Archive member included because of file (symbol)

libx.a(getutim.o)             user.o (getutim)
libx.a(netstart.o)            ../sys/initialize.o (netstart)
libx.a(setmask.o)             libx.a(netstart.o) (ip_maskall)
libx.a(slowtimer.o)           libx.a(netstart.o) (slowtimer)
libx.a(sninit.o)              libx.a(netstart.o) (IfNumber)
libx.a(clkinit.o)             ../sys/initialize.o (clkinit)
libx.a(close.o)               libx.a(getutim.o) (close)
libx.a(conf.o)                libx.a(close.o) (devtab)
libx.a(control.o)             libx.a(getutim.o) (control)
libx.a(create.o)              ../sys/initialize.o (create)
libx.a(evec.o)                ../sys/initialize.o (initevec)
libx.a(getstk.o)              libx.a(create.o) (getstk)
libx.a(gettime.o)             libx.a(slowtimer.o) (gettime)
libx.a(gpq.o)                 libx.a(netstart.o) (newq)
libx.a(init.o)                ../sys/initialize.o (init)
libx.a(ioerr.o)               libx.a(conf.o) (ioerr)
libx.a(ionull.o)              libx.a(conf.o) (ionull)
libx.a(kprintf.o)             ../sys/initialize.o (kprintf)
libx.a(kputc.o)               libx.a(kprintf.o) (kputc)
libx.a(mark.o)                ../sys/initialize.o (_mkinit)
libx.a(naminit.o)             libx.a(conf.o) (naminit)
libx.a(namopen.o)             libx.a(conf.o) (namopen)
libx.a(newqueue.o)            ../sys/initialize.o (newqueue)
libx.a(open.o)                ../sys/initialize.o (open)
libx.a(panic.o)               libx.a(getutim.o) (panic)
libx.a(read.o)                libx.a(getutim.o) (read)
libx.a(recvtim.o)             libx.a(netstart.o) (recvtim)
libx.a(resched.o)             libx.a(recvtim.o) (resched)
libx.a(resume.o)              ../sys/initialize.o (resume)
libx.a(screate.o)             libx.a(netstart.o) (screate)
libx.a(sdelete.o)             libx.a(gpq.o) (sdelete)
libx.a(signal.o)              libx.a(getutim.o) (signal)
libx.a(sleep.o)               libx.a(netstart.o) (sleep)
libx.a(sleep10.o)             libx.a(sleep.o) (sleep10)
libx.a(userret.o)             libx.a(create.o) (userret)
libx.a(wait.o)                libx.a(getutim.o) (wait)
libx.a(write.o)               libx.a(getutim.o) (write)
libx.a(noclose.o)             libx.a(conf.o) (noclose)
libx.a(nocntl.o)              libx.a(conf.o) (nocntl)
libx.a(nogetc.o)              libx.a(conf.o) (nogetc)
libx.a(noopen.o)              libx.a(conf.o) (noopen)
libx.a(noputc.o)              libx.a(conf.o) (noputc)
libx.a(noread.o)              libx.a(conf.o) (noread)
libx.a(noseek.o)              libx.a(conf.o) (noseek)
libx.a(nowrite.o)             libx.a(conf.o) (nowrite)
libx.a(noiint.o)              libx.a(conf.o) (noiint)
libx.a(nooint.o)              libx.a(conf.o) (nooint)
libx.a(i386.o)                libx.a(evec.o) (init8259)
libx.a(tcpclose.o)            libx.a(conf.o) (tcpclose)
libx.a(tcpcntl.o)             libx.a(conf.o) (tcpcntl)
libx.a(tcpgetc.o)             libx.a(conf.o) (tcpgetc)
libx.a(tcpinit.o)             libx.a(conf.o) (tcpinit)
libx.a(tcplq.o)               libx.a(tcpcntl.o) (tcplq)
libx.a(tcpmcntl.o)            libx.a(conf.o) (tcpmcntl)
libx.a(tcpmopen.o)            libx.a(conf.o) (tcpmopen)
libx.a(tcpputc.o)             libx.a(conf.o) (tcpputc)
libx.a(tcpread.o)             libx.a(conf.o) (tcpread)
libx.a(tcpserver.o)           libx.a(tcpmopen.o) (tcpserver)
libx.a(tcpstat.o)             libx.a(tcpcntl.o) (tcpstat)
libx.a(tcpuopt.o)             libx.a(tcpcntl.o) (tcpuopt)
libx.a(tcpwr.o)               libx.a(tcpcntl.o) (tcpwr)
libx.a(tcpwrite.o)            libx.a(conf.o) (tcpwrite)
libx.a(tcpinp.o)              libx.a(netstart.o) (tcpinp)
libx.a(tcpkick.o)             libx.a(tcpclose.o) (tcpkick)
libx.a(tcpnet2h.o)            libx.a(tcpinp.o) (tcpnet2h)
libx.a(tcpok.o)               libx.a(tcpinp.o) (tcpok)
libx.a(tcpopts.o)             libx.a(tcpinp.o) (tcpopts)
libx.a(tcpout.o)              libx.a(netstart.o) (tcpout)
libx.a(tcpreset.o)            libx.a(tcpinp.o) (tcpreset)
libx.a(tcpsmss.o)             libx.a(tcpopts.o) (tcpsmss)
libx.a(tcpswitch.o)           libx.a(tcpinp.o) (tcpswitch)
libx.a(tcpsync.o)             libx.a(tcpmopen.o) (tcpsync)
libx.a(tcpsynrcvd.o)          libx.a(tcpswitch.o) (tcpsynrcvd)
libx.a(tcpsynsent.o)          libx.a(tcpswitch.o) (tcpsynsent)
libx.a(tcptimewait.o)         libx.a(tcpswitch.o) (tcptimewait)
libx.a(tcpwait.o)             libx.a(tcptimewait.o) (tcpwait)
libx.a(tcpwakeup.o)           libx.a(tcpread.o) (tcpwakeup)
libx.a(tcpxmit.o)             libx.a(tcpswitch.o) (tcpxmit)
libx.a(tcptimer.o)            libx.a(netstart.o) (tcptimer)
libx.a(tmclear.o)             libx.a(tcpxmit.o) (tmclear)
libx.a(tmleft.o)              libx.a(tcpkick.o) (tmleft)
libx.a(tmset.o)               libx.a(tcpkick.o) (tmset)
libx.a(ttycntl.o)             libx.a(conf.o) (ttycntl)
libx.a(ttygetc.o)             libx.a(conf.o) (ttygetc)
libx.a(ttyiin.o)              libx.a(conf.o) (ttyiin)
libx.a(ttyinit.o)             libx.a(conf.o) (ttyinit)
libx.a(ttyopen.o)             libx.a(conf.o) (ttyopen)
libx.a(ttyputc.o)             libx.a(conf.o) (ttyputc)
libx.a(ttyread.o)             libx.a(conf.o) (ttyread)
libx.a(ttywrite.o)            libx.a(conf.o) (ttywrite)
libx.a(ttyoin.o)              libx.a(conf.o) (ttyoin)
libx.a(udp_in.o)              libx.a(netstart.o) (udpmutex)
libx.a(udpcksum.o)            libx.a(udp_in.o) (udpcksum)
libx.a(udpnet2h.o)            libx.a(udp_in.o) (udpnet2h)
libx.a(upalloc.o)             libx.a(netstart.o) (upqs)
libx.a(ospf.o)                libx.a(netstart.o) (ospf)
libx.a(ospfnet2h.o)           libx.a(ospf.o) (ospfnet2h)
libx.a(ospftimer.o)           libx.a(slowtimer.o) (ospftimer)
libx.a(ospf_ddin.o)           libx.a(ospf.o) (ospf_ddin)
libx.a(nb_rexmt.o)            libx.a(ospftimer.o) (nb_rexmt)
libx.a(nb_makel.o)            libx.a(ospf_ddin.o) (nb_makel)
libx.a(ddi_exstart.o)         libx.a(ospf_ddin.o) (ddi_exstart)
libx.a(ddi_exchng.o)          libx.a(ospf_ddin.o) (ddi_exchng)
libx.a(lsr_in.o)              libx.a(ospf.o) (lsr_in)
libx.a(db_lookup.o)           libx.a(lsr_in.o) (db_lookup)
libx.a(ddi_full.o)            libx.a(ospf_ddin.o) (ddi_full)
libx.a(lsa_add.o)             libx.a(lsr_in.o) (lsa_add)
libx.a(lsa_send.o)            libx.a(lsr_in.o) (lsa_send)
libx.a(ospflstmpl.o)          libx.a(lsr_in.o) (ospflstmpl)
libx.a(lsu_in.o)              libx.a(ospf.o) (lsu_in)
libx.a(lsack_in.o)            libx.a(ospf.o) (lsack_in)
libx.a(lsr_queue.o)           libx.a(ddi_exstart.o) (lsr_queue)
libx.a(lsr_add.o)             libx.a(lsr_queue.o) (lsr_add)
libx.a(lsr_xmit.o)            libx.a(ospftimer.o) (lsr_xmit)
libx.a(ospflsrtmpl.o)         libx.a(lsr_add.o) (ospflsrtmpl)
libx.a(lsr_check.o)           libx.a(lsu_in.o) (lsr_check)
libx.a(ue_intr.o)             libx.a(conf.o) (ue_intr)
libx.a(ue_write.o)            libx.a(conf.o) (ue_write)
libx.a(ue_init.o)             libx.a(conf.o) (ue_init)
libx.a(ue_cntl.o)             libx.a(conf.o) (ue_cntl)
libx.a(ue_int.o)              libx.a(ue_init.o) (ue_int)
libx.a(ue_demux.o)            libx.a(ue_intr.o) (ue_demux)
libx.a(ue_wstrt.o)            libx.a(ue_intr.o) (ue_wstrt)
libx.a(conio.o)               ../sys/com32/c32entry.o (putchar_com32)
libx.a(arpinit.o)             libx.a(netstart.o) (arpinit)
libx.a(arptimer.o)            libx.a(slowtimer.o) (arptimer)
libx.a(comcntl.o)             libx.a(conf.o) (comcntl)
libx.a(comgetc.o)             libx.a(conf.o) (comgetc)
libx.a(cominit.o)             libx.a(conf.o) (cominit)
libx.a(comoutput.o)           libx.a(conf.o) (computc)
libx.a(comint.o)              libx.a(conf.o) (comint)
libx.a(comintr.o)             libx.a(comint.o) (comintr)
libx.a(kbmcntl.o)             libx.a(conf.o) (kbmcntl)
libx.a(kbmgetc.o)             libx.a(conf.o) (kbmgetc)
libx.a(kbminit.o)             libx.a(conf.o) (kbminit)
libx.a(kbmoutput.o)           libx.a(conf.o) (kbmputc)
libx.a(kbmint.o)              libx.a(conf.o) (kbmint)
libx.a(dgclose.o)             libx.a(conf.o) (dgclose)
libx.a(dgcntl.o)              libx.a(conf.o) (dgcntl)
libx.a(dginit.o)              libx.a(conf.o) (dginit)
libx.a(dgmcntl.o)             libx.a(conf.o) (dgmcntl)
libx.a(dgmopen.o)             libx.a(conf.o) (dgmopen)
libx.a(dgread.o)              libx.a(conf.o) (dgread)
libx.a(dgwrite.o)             libx.a(conf.o) (dgwrite)
libx.a(icmp.o)                libx.a(netstart.o) (icmp)
libx.a(icsetbuf.o)            libx.a(icmp.o) (icsetbuf)
libx.a(icsetdata.o)           libx.a(icmp.o) (icsetdata)
libx.a(icsetsrc.o)            libx.a(icmp.o) (icsetsrc)
libx.a(hginit.o)              libx.a(netstart.o) (hginit)
libx.a(hgjoin.o)              libx.a(hginit.o) (hgjoin)
libx.a(igmp.o)                libx.a(hgjoin.o) (igmp)
libx.a(hglookup.o)            libx.a(hgjoin.o) (hglookup)
libx.a(igmp_update.o)         libx.a(hginit.o) (igmp_update)
libx.a(hgrand.o)              libx.a(hginit.o) (hgseed)
libx.a(ipfinit.o)             libx.a(netstart.o) (ipfinit)
libx.a(ipftimer.o)            libx.a(slowtimer.o) (ipftimer)
libx.a(ipproc.o)              libx.a(netstart.o) (ipproc)
libx.a(ipputp.o)              libx.a(ipproc.o) (ipputp)
libx.a(ipreass.o)             libx.a(ipfinit.o) (ipfmutex)
libx.a(ipredirect.o)          libx.a(ipproc.o) (ipredirect)
libx.a(ipsend.o)              libx.a(tcpreset.o) (ipsend)
libx.a(rtadd.o)               libx.a(netstart.o) (rtadd)
libx.a(rtdel.o)               libx.a(setmask.o) (rtdel)
libx.a(rtfree.o)              libx.a(ipproc.o) (rtfree)
libx.a(rtget.o)               libx.a(ipproc.o) (rtget)
libx.a(rthash.o)              libx.a(rtadd.o) (rthash)
libx.a(rtinit.o)              libx.a(rtadd.o) (rtinit)
libx.a(rtnew.o)               libx.a(rtadd.o) (rtnew)
libx.a(rttimer.o)             libx.a(slowtimer.o) (rttimer)
libx.a(echod.o)               libx.a(netstart.o) (echod)
libx.a(fingerd.o)             libx.a(netstart.o) (fingerd)
libx.a(lfing.o)               libx.a(fingerd.o) (lfing)
libx.a(ripin.o)               libx.a(netstart.o) (rip)
libx.a(ripout.o)              libx.a(ripin.o) (ripout)
libx.a(riprecv.o)             libx.a(ripin.o) (riprecv)
libx.a(riprepl.o)             libx.a(ripin.o) (riprepl)
libx.a(ripsend.o)             libx.a(ripout.o) (ripsend)
libx.a(rwho.o)                libx.a(netstart.o) (rwho)
libx.a(rwhod.o)               libx.a(rwho.o) (rwhod)
libx.a(rwhoind.o)             libx.a(rwho.o) (rwhoind)
libx.a(snmpd.o)               libx.a(netstart.o) (snmpd)
libx.a(udpecho.o)             libx.a(netstart.o) (udpecho)
libx.a(cksum.o)               libx.a(lsa_send.o) (cksum)
libx.a(dnparse.o)             libx.a(dgmopen.o) (dnparse)
libx.a(dot2ip.o)              libx.a(netstart.o) (dot2ip)
libx.a(getiaddr.o)            libx.a(netstart.o) (getiaddr)
libx.a(getname.o)             libx.a(sninit.o) (getname)
libx.a(initgate.o)            libx.a(netstart.o) (initgate)
libx.a(inithost.o)            libx.a(netstart.o) (inithost)
libx.a(ip2dot.o)              libx.a(netstart.o) (ip2dot)
libx.a(ip2name.o)             libx.a(fingerd.o) (ip2name)
libx.a(netmask.o)             libx.a(setmask.o) (netmask)
libx.a(netmatch.o)            libx.a(icsetsrc.o) (netmatch)
libx.a(netnum.o)              libx.a(initgate.o) (netnum)
libx.a(netwrite.o)            libx.a(ipputp.o) (netwrite)
libx.a(ni_in.o)               libx.a(ue_demux.o) (ni_in)
libx.a(rarp_in.o)             libx.a(ni_in.o) (rarp_in)
libx.a(rarpsend.o)            libx.a(getiaddr.o) (rarpsend)
libx.a(ethmcast.o)            libx.a(initgate.o) (ethmcast)
libx.a(mount.o)               libx.a(naminit.o) (mount)
libx.a(rfclose.o)             libx.a(conf.o) (rfclose)
libx.a(rfcntl.o)              libx.a(conf.o) (rfcntl)
libx.a(rfgetc.o)              libx.a(conf.o) (rfgetc)
libx.a(rfinit.o)              libx.a(conf.o) (rfinit)
libx.a(rfmkpac.o)             libx.a(rfclose.o) (rfmkpac)
libx.a(rfopen.o)              libx.a(conf.o) (rfopen)
libx.a(rfputc.o)              libx.a(conf.o) (rfputc)
libx.a(rfread.o)              libx.a(conf.o) (rfread)
libx.a(rfseek.o)              libx.a(conf.o) (rfseek)
libx.a(rfsend.o)              libx.a(rfmkpac.o) (rfsend)
libx.a(rfwrite.o)             libx.a(conf.o) (rfwrite)
libx.a(mksnmp.o)              libx.a(snmpd.o) (mksnmp)
libx.a(sna2b.o)               libx.a(snmpd.o) (sna2b)
libx.a(snb2a.o)               libx.a(mksnmp.o) (snb2a)
libx.a(snfreebl.o)            libx.a(snmpd.o) (snfreebl)
libx.a(snhash.o)              libx.a(sninit.o) (hashinit)
libx.a(snmib.o)               libx.a(snhash.o) (mib)
libx.a(snparse.o)             libx.a(snmpd.o) (snparse)
libx.a(snrslv.o)              libx.a(snmpd.o) (snrslv)
libx.a(sntable.o)             libx.a(snmib.o) (sntable)
libx.a(srt_get.o)             libx.a(snmib.o) (srt_get)
libx.a(srt_getf.o)            libx.a(snmib.o) (srt_getf)
libx.a(srt_getn.o)            libx.a(snmib.o) (srt_getn)
libx.a(srt_match.o)           libx.a(snmib.o) (srt_match)
libx.a(srt_set.o)             libx.a(snmib.o) (srt_set)
libx.a(stc_get.o)             libx.a(snmib.o) (stc_get)
libx.a(stc_getf.o)            libx.a(snmib.o) (stc_getf)
libx.a(stc_getn.o)            libx.a(snmib.o) (stc_getn)
libx.a(stc_match.o)           libx.a(snmib.o) (stc_match)
libx.a(stc_set.o)             libx.a(snmib.o) (stc_set)
libx.a(snm_get.o)             libx.a(snmib.o) (snm_get)
libx.a(snm_getf.o)            libx.a(snmib.o) (snm_getf)
libx.a(snm_getn.o)            libx.a(snmib.o) (snm_getn)
libx.a(snm_match.o)           libx.a(snmib.o) (snm_match)
libx.a(snm_set.o)             libx.a(snmib.o) (snm_set)
libx.a(sud_get.o)             libx.a(snmib.o) (sud_get)
libx.a(sud_getf.o)            libx.a(snmib.o) (sud_getf)
libx.a(sud_getn.o)            libx.a(snmib.o) (sud_getn)
libx.a(sud_match.o)           libx.a(snmib.o) (sud_match)
libx.a(sud_set.o)             libx.a(snmib.o) (sud_set)
libx.a(sud_findn.o)           libx.a(sud_getf.o) (sud_findnext)
libx.a(snm_findn.o)           libx.a(snm_getf.o) (snm_findnext)
libx.a(blkcopy.o)             libx.a(i386.o) (memcpy)
libx.a(ckmode.o)              libx.a(rfopen.o) (ckmode)
libx.a(freebuf.o)             libx.a(tcpinp.o) (freebuf)
libx.a(freemem.o)             libx.a(gpq.o) (freemem)
libx.a(getbuf.o)              libx.a(tcpreset.o) (getbuf)
libx.a(getitem.o)             libx.a(sdelete.o) (getfirst)
libx.a(getmem.o)              libx.a(gpq.o) (getmem)
libx.a(getpid.o)              libx.a(userret.o) (getpid)
libx.a(insert.o)              libx.a(resched.o) (insert)
libx.a(insertd.o)             libx.a(recvtim.o) (insertd)
libx.a(kill.o)                libx.a(userret.o) (kill)
libx.a(stacktrace.o)          libx.a(panic.o) (stacktrace)
libx.a(mkpool.o)              libx.a(rtinit.o) (mkpool)
libx.a(nammap.o)              libx.a(namopen.o) (nammap)
libx.a(namrepl.o)             libx.a(nammap.o) (namrepl)
libx.a(pcount.o)              libx.a(tcpkick.o) (pcount)
libx.a(pcreate.o)             libx.a(tcplq.o) (pcreate)
libx.a(pdelete.o)             libx.a(tcplq.o) (pdelete)
libx.a(pinit.o)               libx.a(pcreate.o) (pinit)
libx.a(poolinit.o)            libx.a(mkpool.o) (poolinit)
libx.a(preceive.o)            libx.a(tcpcntl.o) (preceive)
libx.a(preset.o)              libx.a(dgcntl.o) (preset)
libx.a(psend.o)               libx.a(tcpkick.o) (psend)
libx.a(ptclear.o)             libx.a(pdelete.o) (_ptclear)
libx.a(queue.o)               libx.a(wait.o) (enqueue)
libx.a(ready.o)               libx.a(resume.o) (ready)
libx.a(recvclr.o)             libx.a(rarpsend.o) (recvclr)
libx.a(scount.o)              libx.a(tcpwakeup.o) (scount)
libx.a(send.o)                libx.a(ttyiin.o) (send)
libx.a(sreset.o)              libx.a(ptclear.o) (sreset)
libx.a(suspend.o)             libx.a(tcptimer.o) (suspend)
libx.a(unsleep.o)             libx.a(kill.o) (unsleep)
libx.a(xdone.o)               libx.a(kill.o) (xdone)
libx.a(syslog.o)              libx.a(fingerd.o) (syslog)
libx.a(getuser.o)             libx.a(lfing.o) (getuser)
libx.a(tcballoc.o)            libx.a(tcpmopen.o) (tcballoc)
libx.a(tcbdealloc.o)          libx.a(tcpclose.o) (tcbdealloc)
libx.a(tcpbind.o)             libx.a(tcpmopen.o) (tcpbind)
libx.a(tcpcon.o)              libx.a(tcpmopen.o) (tcpcon)
libx.a(tcpgetdata.o)          libx.a(tcpread.o) (tcpgetdata)
libx.a(tcpgetspace.o)         libx.a(tcpwr.o) (tcpgetspace)
libx.a(tcpnxtp.o)             libx.a(tcpbind.o) (tcpnxtp)
libx.a(tcpabort.o)            libx.a(tcpsynrcvd.o) (tcpabort)
libx.a(tcpacked.o)            libx.a(tcpsynrcvd.o) (tcpacked)
libx.a(tcpackit.o)            libx.a(tcpinp.o) (tcpackit)
libx.a(tcpcksum.o)            libx.a(tcpinp.o) (tcpcksum)
libx.a(tcpclosed.o)           libx.a(tcpswitch.o) (tcpclosed)
libx.a(tcpclosewait.o)        libx.a(tcpswitch.o) (tcpclosewait)
libx.a(tcpclosing.o)          libx.a(tcpswitch.o) (tcpclosing)
libx.a(tcpdata.o)             libx.a(tcpsynrcvd.o) (tcpdata)
libx.a(tcpdemux.o)            libx.a(tcpinp.o) (tcpdemux)
libx.a(tcpdodat.o)            libx.a(tcpdata.o) (tcpdodat)
libx.a(tcpestablished.o)      libx.a(tcpswitch.o) (tcpestablished)
libx.a(tcpfin1.o)             libx.a(tcpswitch.o) (tcpfin1)
libx.a(tcpfin2.o)             libx.a(tcpswitch.o) (tcpfin2)
libx.a(tcph2net.o)            libx.a(tcpreset.o) (tcph2net)
libx.a(tcphowmuch.o)          libx.a(tcpxmit.o) (tcphowmuch)
libx.a(tcpidle.o)             libx.a(tcpswitch.o) (tcpidle)
libx.a(tcpiss.o)              libx.a(tcpsync.o) (tcpiss)
libx.a(tcpkilltimers.o)       libx.a(tcpsynsent.o) (tcpkilltimers)
libx.a(tcplastack.o)          libx.a(tcpswitch.o) (tcplastack)
libx.a(tcplisten.o)           libx.a(tcpswitch.o) (tcplisten)
libx.a(tcpostate.o)           libx.a(tcpacked.o) (tcpostate)
libx.a(tcppersist.o)          libx.a(tcpswitch.o) (tcppersist)
libx.a(tcprexmt.o)            libx.a(tcpswitch.o) (tcprexmt)
libx.a(tcprtt.o)              libx.a(tcpacked.o) (tcprtt)
libx.a(tcprwindow.o)          libx.a(tcpgetdata.o) (tcprwindow)
libx.a(tcpsend.o)             libx.a(tcpxmit.o) (tcpsend)
libx.a(tcpsndlen.o)           libx.a(tcpsend.o) (tcpsndlen)
libx.a(tcpswindow.o)          libx.a(tcpclosewait.o) (tcpswindow)
libx.a(tcpwinit.o)            libx.a(tcplisten.o) (tcpwinit)
libx.a(tfcoalesce.o)          libx.a(tcpdodat.o) (tfcoalesce)
libx.a(tfinsert.o)            libx.a(tcpdodat.o) (tfinsert)
libx.a(ttynew.o)              libx.a(ttyopen.o) (ttynew)
libx.a(udpnxtp.o)             libx.a(dgmopen.o) (udpnxtp)
libx.a(udpsend.o)             libx.a(dgwrite.o) (udpsend)
libx.a(ospf_hin.o)            libx.a(ospf.o) (ospf_hin)
libx.a(ospfcheck.o)           libx.a(ospf.o) (ospfcheck)
libx.a(if_elect.o)            libx.a(ospf.o) (if_elect)
libx.a(ospfhello.o)           libx.a(ospf.o) (ospfhello)
libx.a(ospfifinit.o)          libx.a(ospf.o) (ospf_if)
libx.a(ospfinit.o)            libx.a(ospf.o) (ospfinit)
libx.a(nb_add.o)              libx.a(ospf_ddin.o) (nb_add)
libx.a(nb_switch.o)           libx.a(ospf_hin.o) (nb_switch)
libx.a(nb_reform.o)           libx.a(if_elect.o) (nb_reform)
libx.a(nb_aok.o)              libx.a(ospf_ddin.o) (nb_aok)
libx.a(dd_queue.o)            libx.a(ospf_ddin.o) (dd_queue)
libx.a(dd_xmit.o)             libx.a(nb_rexmt.o) (dd_xmit)
libx.a(lss_build.o)           libx.a(dd_queue.o) (lss_build)
libx.a(ospfddtmpl.o)          libx.a(dd_queue.o) (ospfddtmpl)
libx.a(nb_clearl.o)           libx.a(nb_switch.o) (nb_clearl)
libx.a(nb_mismatch.o)         libx.a(ddi_exchng.o) (nb_mismatch)
libx.a(if_elect1.o)           libx.a(if_elect.o) (if_elect1)
libx.a(db_init.o)             libx.a(ospfinit.o) (db_init)
libx.a(db_resync.o)           libx.a(if_elect.o) (db_resync)
libx.a(arp_in.o)              libx.a(ni_in.o) (arp_in)
libx.a(arpadd.o)              libx.a(arp_in.o) (arpadd)
libx.a(arpalloc.o)            libx.a(netwrite.o) (arpalloc)
libx.a(arpdq.o)               libx.a(arptimer.o) (arpdq)
libx.a(arpfind.o)             libx.a(netwrite.o) (arpfind)
libx.a(arpqsend.o)            libx.a(arp_in.o) (arpqsend)
libx.a(arpsend.o)             libx.a(arptimer.o) (arpsend)
libx.a(kbmiin.o)              libx.a(kbmint.o) (kbmiin)
libx.a(kbscan.o)              libx.a(kbmiin.o) (kbtoa)
libx.a(dgalloc.o)             libx.a(dgmopen.o) (dgalloc)
libx.a(icerrok.o)             libx.a(icmp.o) (icerrok)
libx.a(hgadd.o)               libx.a(hgjoin.o) (hgadd)
libx.a(hgarpadd.o)            libx.a(hgadd.o) (hgarpadd)
libx.a(ip_in.o)               libx.a(ni_in.o) (ip_in)
libx.a(ipdbc.o)               libx.a(ipproc.o) (ipdbc)
libx.a(ipfadd.o)              libx.a(ipreass.o) (ipfadd)
libx.a(ipfhcopy.o)            libx.a(ipputp.o) (ipfhcopy)
libx.a(ipfjoin.o)             libx.a(ipreass.o) (ipfjoin)
libx.a(ipfsend.o)             libx.a(ipputp.o) (ipfsend)
libx.a(ipgetp.o)              libx.a(ipproc.o) (ipgetp)
libx.a(iph2net.o)             libx.a(ipproc.o) (iph2net)
libx.a(ipnet2h.o)             libx.a(ipproc.o) (ipnet2h)
libx.a(isbrc.o)               libx.a(netmatch.o) (isbrc)
libx.a(ripadd.o)              libx.a(ripsend.o) (ripadd)
libx.a(ripcheck.o)            libx.a(ripin.o) (ripcheck)
libx.a(ripifset.o)            libx.a(ripsend.o) (ripifset)
libx.a(ripmetric.o)           libx.a(ripadd.o) (ripmetric)
libx.a(ripok.o)               libx.a(riprecv.o) (ripok)
libx.a(ripstart.o)            libx.a(ripadd.o) (ripstart)
libx.a(local_out.o)           libx.a(netwrite.o) (local_out)
libx.a(rfalloc.o)             libx.a(rfopen.o) (rfalloc)
libx.a(rfio.o)                libx.a(rfopen.o) (rfio)
libx.a(a1rwlen.o)             libx.a(sna2b.o) (a1readlen)
libx.a(a1rwoid.o)             libx.a(sna2b.o) (a1readoid)
libx.a(a1rwval.o)             libx.a(sna2b.o) (a1readval)
libx.a(sae_get.o)             libx.a(snmib.o) (sae_get)
libx.a(sae_getf.o)            libx.a(snmib.o) (sae_getf)
libx.a(sae_getn.o)            libx.a(snmib.o) (sae_getn)
libx.a(sae_match.o)           libx.a(snmib.o) (sae_match)
libx.a(sae_set.o)             libx.a(snmib.o) (sae_set)
libx.a(sat_get.o)             libx.a(snmib.o) (sat_get)
libx.a(sat_getf.o)            libx.a(snmib.o) (sat_getf)
libx.a(sat_getn.o)            libx.a(snmib.o) (sat_getn)
libx.a(sat_match.o)           libx.a(snmib.o) (sat_match)
libx.a(sat_set.o)             libx.a(snmib.o) (sat_set)
libx.a(sif_get.o)             libx.a(snmib.o) (sif_get)
libx.a(sif_getf.o)            libx.a(snmib.o) (sif_getf)
libx.a(sif_getn.o)            libx.a(snmib.o) (sif_getn)
libx.a(sif_match.o)           libx.a(snmib.o) (sif_match)
libx.a(sif_set.o)             libx.a(snmib.o) (sif_set)
libx.a(snleaf.o)              libx.a(snmib.o) (snleaf)
libx.a(snoip.o)               libx.a(srt_getf.o) (sip2ocpy)
libx.a(srt_findn.o)           libx.a(srt_getf.o) (srt_findnext)
libx.a(stc_findn.o)           libx.a(stc_getf.o) (stc_findnext)
libx.a(receive.o)             libx.a(ipgetp.o) (receive)
libx.a(tcp_in.o)              libx.a(local_out.o) (tcp_in)
libx.a(tcprmss.o)             libx.a(tcpsend.o) (tcprmss)
libx.a(ttyalloc.o)            libx.a(ttynew.o) (ttyalloc)
libx.a(udph2net.o)            libx.a(udpsend.o) (udph2net)
libx.a(ospf_hsend.o)          libx.a(ospfhello.o) (ospf_hsend)
libx.a(ospf_in.o)             libx.a(local_out.o) (ospf_in)
libx.a(ospfhtmpl.o)           libx.a(ospf_hsend.o) (ospfhtmpl)
libx.a(db_nlink.o)            libx.a(db_resync.o) (db_nlink)
libx.a(icmp_in.o)             libx.a(local_out.o) (icmp_in)
libx.a(icredirect.o)          libx.a(icmp_in.o) (icredirect)
libx.a(igmp_in.o)             libx.a(local_out.o) (igmp_in)
libx.a(igmp_settimers.o)      libx.a(igmp_in.o) (igmp_settimers)
libx.a(ipdstopts.o)           libx.a(local_out.o) (ipdstopts)
libx.a(ipfcons.o)             libx.a(ipfjoin.o) (ipfcons)
libx.a(a1rwint.o)             libx.a(a1rwval.o) (a1readint)
libx.a(sae_findn.o)           libx.a(sae_getf.o) (sae_findnext)
libx.a(sat_findn.o)           libx.a(sat_getf.o) (sat_findnext)
libx.a(db_update.o)           libx.a(db_nlink.o) (db_update)
libx.a(db_new.o)              libx.a(db_update.o) (db_new)
../lib/libxc/libxc.a(atoi.o)  libx.a(dot2ip.o) (atoi)
../lib/libxc/libxc.a(ctype_.o)
                              libx.a(dnparse.o) (_ctype_)
../lib/libxc/libxc.a(doprnt.o)
                              libx.a(kprintf.o) (_doprnt)
../lib/libxc/libxc.a(memcmp.o)
                              libx.a(ue_wstrt.o) (memcmp)
../lib/libxc/libxc.a(memset.o)
                              libx.a(lsa_send.o) (memset)
../lib/libxc/libxc.a(fprintf.o)
                              sh.o (fprintf)
../lib/libxc/libxc.a(index.o)
                              libx.a(fingerd.o) (index)
../lib/libxc/libxc.a(printf.o)
                              libx.a(udpecho.o) (printf)
../lib/libxc/libxc.a(qsort.o)
                              sh.o (qsort)
../lib/libxc/libxc.a(rindex.o)
                              sh.o (rindex)
../lib/libxc/libxc.a(sprintf.o)
                              libx.a(syslog.o) (vsprintf)
../lib/libxc/libxc.a(strcat.o)
                              libx.a(lfing.o) (strcat)
../lib/libxc/libxc.a(strcmp.o)
                              libx.a(mount.o) (strcmp)
../lib/libxc/libxc.a(strcpy.o)
                              libx.a(sninit.o) (strcpy)
../lib/libxc/libxc.a(strlen.o)
                              libx.a(netstart.o) (strlen)
../lib/libxc/libxc.a(strncat.o)
                              libx.a(ip2name.o) (strncat)
../lib/libxc/libxc.a(strncmp.o)
                              libx.a(rwhoind.o) (strncmp)
../lib/libxc/libxc.a(strncpy.o)
                              libx.a(rwhod.o) (strncpy)
libx.a(arpprint.o)            sh.o (arpprint)
libx.a(hgleave.o)             sh.o (hgleave)
libx.a(name2ip.o)             sh.o (name2ip)
libx.a(unmount.o)             sh.o (unmount)
libx.a(snclient.o)            sh.o (snclient)
libx.a(snerr.o)               sh.o (snerr)
libx.a(snprint.o)             sh.o (snmpprint)
libx.a(getc.o)                sh.o (getc)
libx.a(putc.o)                sh.o (putc)
libx.a(remove.o)              sh.o (remove)
libx.a(rename.o)              sh.o (rename)
libx.a(setdev.o)              sh.o (setdev)
libx.a(setnok.o)              sh.o (setnok)
libx.a(wakeup.o)              ../sys/arch/x86/clkint.o (wakeup)
libx.a(getuid.o)              sh.o (getuid)
libx.a(tqdump.o)              sh.o (tqwrite)
libx.a(hgarpdel.o)            libx.a(hgleave.o) (hgarpdel)

Allocating common symbols
Common symbol       size              file

ospf_ar             0x24              libx.a(ospfinit.o)
tcps_tmutex         0x4               libx.a(tcpinp.o)
snmpInBadCommunityUses
                    0x4               libx.a(sninit.o)
snmpInGetNexts      0x4               libx.a(sninit.o)
tcps_iport          0x4               libx.a(tcpinp.o)
bptab               0x64              libx.a(poolinit.o)
TcpEstabResets      0x4               libx.a(sninit.o)
snmpOutGenErrs      0x4               libx.a(sninit.o)
snhtab              0x194             libx.a(snhash.o)
IcmpInEchos         0x4               libx.a(sninit.o)
IcmpInMsgs          0x4               libx.a(sninit.o)
snmpInTooBigs       0x4               libx.a(sninit.o)
IcmpInTimeExcds     0x4               libx.a(sninit.o)
sem                 0x4               ../sys/initialize.o
IpOutRequests       0x4               libx.a(sninit.o)
rttable             0x800             libx.a(rtinit.o)
IpReasmFails        0x4               libx.a(sninit.o)
SysDescr            0x100             libx.a(sninit.o)
Rf                  0x198             libx.a(rfinit.o)
IcmpOutEchoReps     0x4               libx.a(sninit.o)
dgmutex             0x4               libx.a(dginit.o)
ipfmutex            0x4               libx.a(ipreass.o)
IcmpInSrcQuenchs    0x4               libx.a(sninit.o)
snmpOutNoSuchNames  0x4               libx.a(sninit.o)
snmpInGetRequests   0x4               libx.a(sninit.o)
numproc             0x4               ../sys/initialize.o
bsdbrc              0x4               libx.a(ipproc.o)
IcmpInEchoReps      0x4               libx.a(sninit.o)
UdpInErrors         0x4               libx.a(sninit.o)
marks               0x50              libx.a(mark.o)
clockq              0x4               libx.a(clkinit.o)
TcpCurrEstab        0x4               libx.a(sninit.o)
sltop               0x4               libx.a(clkinit.o)
next_completion     0x4               sh.o
currpid             0x4               ../sys/initialize.o
riplock             0x4               libx.a(ripin.o)
IfNumber            0x4               libx.a(sninit.o)
count6              0x4               libx.a(clkinit.o)
girmask             0x2               libx.a(evec.o)
ttytab              0x920             libx.a(ttyinit.o)
IpReasmTimeout      0x4               libx.a(sninit.o)
TcpAttemptFails     0x4               libx.a(sninit.o)
ptid                0x4               ../sys/initialize.o
tcps_oport          0x4               libx.a(tcpinp.o)
TcpRtoMax           0x4               libx.a(sninit.o)
IpFragCreates       0x4               libx.a(sninit.o)
proctab             0x1e78            ../sys/initialize.o
semaph              0xc80             ../sys/initialize.o
snmpOutBadValues    0x4               libx.a(sninit.o)
IcmpInDestUnreachs  0x4               libx.a(sninit.o)
snmpOutGetNexts     0x4               libx.a(sninit.o)
IcmpOutAddrMaskReps
                    0x4               libx.a(sninit.o)
snmpOutGetRequests  0x4               libx.a(sninit.o)
kbmtty              0x248             libx.a(kbminit.o)
UdpOutDatagrams     0x4               libx.a(sninit.o)
TcpRetransSegs      0x4               libx.a(sninit.o)
SysName             0x100             libx.a(sninit.o)
snmpInPkts          0x4               libx.a(sninit.o)
TcpInSegs           0x4               libx.a(sninit.o)
snmpOutPkts         0x4               libx.a(sninit.o)
IcmpOutMsgs         0x4               libx.a(sninit.o)
IcmpOutAddrMasks    0x4               libx.a(sninit.o)
hgseed              0x4               libx.a(hgrand.o)
Shl                 0x150             sh.o
IpFragOKs           0x4               libx.a(sninit.o)
ue                  0x3c              libx.a(ue_init.o)
snmpInTotalSetVars  0x4               libx.a(sninit.o)
snmpInBadCommunityNames
                    0x4               libx.a(sninit.o)
IcmpOutEchos        0x4               libx.a(sninit.o)
rarppid             0x4               libx.a(arpinit.o)
IcmpOutSrcQuenchs   0x4               libx.a(sninit.o)
nextsem             0x4               ../sys/initialize.o
snmpInASNParseErrs  0x4               libx.a(sninit.o)
defclk              0x4               libx.a(clkinit.o)
IpOutNoRoutes       0x4               libx.a(sninit.o)
snmpEnableAuthenTraps
                    0x4               libx.a(sninit.o)
IcmpInAddrMasks     0x4               libx.a(sninit.o)
Route               0x10              libx.a(rtinit.o)
IcmpInErrors        0x4               libx.a(sninit.o)
SysServices         0x4               libx.a(sninit.o)
nextqueue           0x4               ../sys/initialize.o
snmpOutTooBigs      0x4               libx.a(sninit.o)
ospf_lspool         0x4               libx.a(ospfinit.o)
nmarks              0x4               libx.a(mark.o)
IcmpOutErrors       0x4               libx.a(sninit.o)
pid2                0x4               ../sys/initialize.o
initsp              0x4               libx.a(i386.o)
snmpOutTraps        0x4               libx.a(sninit.o)
IpRoutingDiscards   0x4               libx.a(sninit.o)
TcpPassiveOpens     0x4               libx.a(sninit.o)
SysUpTime           0x4               libx.a(sninit.o)
tqmutex             0x4               libx.a(tcptimer.o)
snmpInReadOnlys     0x4               libx.a(sninit.o)
ipfqt               0xc8              libx.a(ipreass.o)
comtab              0x28              libx.a(cominit.o)
Rwho                0xe1c             libx.a(rwho.o)
preempt             0x4               libx.a(clkinit.o)
IcmpInTimestampReps
                    0x4               libx.a(sninit.o)
snmpInNoSuchNames   0x4               libx.a(sninit.o)
IpReasmReqds        0x4               libx.a(sninit.o)
TcpOutRsts          0x4               libx.a(sninit.o)
Nam                 0x3bc             libx.a(naminit.o)
mkmutex             0x4               libx.a(mark.o)
IpInReceives        0x4               libx.a(sninit.o)
ctr100              0x4               libx.a(clkinit.o)
IcmpOutTimeExcds    0x4               libx.a(sninit.o)
UdpNoPorts          0x4               libx.a(sninit.o)
currSP              0x4               libx.a(resched.o)
hgtable             0xf0              libx.a(hginit.o)
lastpid             0x4               ../sys/initialize.o
IpForwDatagrams     0x4               libx.a(sninit.o)
SysContact          0x100             libx.a(sninit.o)
TcpRtoAlgorithm     0x4               libx.a(sninit.o)
nif                 0x188             libx.a(netstart.o)
HostGroup           0xc               libx.a(hginit.o)
slnempty            0x4               libx.a(clkinit.o)
num_completions     0x4               sh.o
nextproc            0x4               ../sys/initialize.o
TcpRtoMin           0x4               libx.a(sninit.o)
completions         0x1000            sh.o
snmpInBadValues     0x4               libx.a(sninit.o)
sema_stat           0xc               libx.a(screate.o)
tqhead              0x4               libx.a(tcptimer.o)
TcpActiveOpens      0x4               libx.a(sninit.o)
ippid               0x4               libx.a(ipproc.o)
maxaddr             0x4               ../sys/initialize.o
str2compl           0x400             sh.o
SysLocation         0x100             libx.a(sninit.o)
IpInHdrErrors       0x4               libx.a(sninit.o)
vers                0x64              ../sys/initialize.o
snmpbuff            0x1fcc            libx.a(mksnmp.o)
Net                 0x10              libx.a(netstart.o)
bpmark              0x4               libx.a(poolinit.o)
gateway             0x4               libx.a(ipproc.o)
arptable            0x708             libx.a(arpinit.o)
ports               0xaf0             libx.a(pinit.o)
IcmpInAddrMaskReps  0x4               libx.a(sninit.o)
clktime             0x4               libx.a(clkinit.o)
IcmpOutRedirects    0x4               libx.a(sninit.o)
IpFragFails         0x4               libx.a(sninit.o)
UdpInDatagrams      0x4               libx.a(sninit.o)
ptmark              0x4               libx.a(pinit.o)
s2clen              0x4               sh.o
IpForwarding        0x4               libx.a(sninit.o)
intmap              0x300             ../sys/initialize.o
snmpInGetResponses  0x4               libx.a(sninit.o)
clmutex             0x4               libx.a(clkinit.o)
buf                 0x400             sh.o
count10             0x4               libx.a(clkinit.o)
clkdiff             0x4               libx.a(clkinit.o)
snmpInGenErrs       0x4               libx.a(sninit.o)
nbpools             0x4               libx.a(poolinit.o)
IcmpInRedirects     0x4               libx.a(sninit.o)
IpReasmOKs          0x4               libx.a(sninit.o)
tcps_lqsize         0x4               libx.a(tcpinp.o)
TcpOutSegs          0x4               libx.a(sninit.o)
tty                 0x920             ../sys/initialize.o
IcmpOutTimestampReps
                    0x4               libx.a(sninit.o)
str                 0x78              sh.o
rdytail             0x4               ../sys/initialize.o
pid1                0x4               ../sys/initialize.o
snmpInTotalReqVars  0x4               libx.a(sninit.o)
IcmpInTimestamps    0x4               libx.a(sninit.o)
clkruns             0x4               libx.a(clkinit.o)
IpInAddrErrors      0x4               libx.a(sninit.o)
IcmpOutDestUnreachs
                    0x4               libx.a(sninit.o)
ptnextp             0x4               libx.a(pinit.o)
tcbtab              0xc40             libx.a(tcpinit.o)
snmpOutSetRequests  0x4               libx.a(sninit.o)
udpmutex            0x4               libx.a(udp_in.o)
tqpid               0x4               libx.a(tcptimer.o)
rdyhead             0x4               ../sys/initialize.o
IpInDiscards        0x4               libx.a(sninit.o)
upqs                0xc0              libx.a(upalloc.o)
ospf_if             0x10f8            libx.a(ospfifinit.o)
TcpMaxConn          0x4               libx.a(sninit.o)
snmpInSetRequests   0x4               libx.a(sninit.o)
IpInDelivers        0x4               libx.a(sninit.o)
q                   0x1548            ../sys/initialize.o
IcmpInParmProbs     0x4               libx.a(sninit.o)
snmpInBadVersions   0x4               libx.a(sninit.o)
TcpInErrs           0x4               libx.a(sninit.o)
ospf_iport          0x4               libx.a(ospf.o)
IcmpOutParmProbs    0x4               libx.a(sninit.o)
dgtab               0x240             libx.a(dginit.o)
IpOutDiscards       0x4               libx.a(sninit.o)
snmpOutGetResponses
                    0x4               libx.a(sninit.o)
snmpInTraps         0x4               libx.a(sninit.o)
memlist             0x8               ../sys/initialize.o
ptfree              0x4               libx.a(pinit.o)
IpDefaultTTL        0x4               libx.a(sninit.o)
IcmpOutTimestamps   0x4               libx.a(sninit.o)
IpInUnknownProtos   0x4               libx.a(sninit.o)
rarpsem             0x4               libx.a(arpinit.o)

Memory Configuration

Name             Origin             Length             Attributes
*default*        0x00000000         0xffffffff

Linker script and memory map

                0x00101000                . = 0x101000
                0x00101000                PROVIDE (__executable_start, .)

.init
 *(.init)

.text           0x00101000    0x2ca74
 *(.text .stub .text.* .gnu.linkonce.t.*)
 .text          0x00101000       0x8e ../sys/com32/c32entry.o
                0x00101067                inb
                0x0010108d                lidt
                0x0010106f                inw
                0x00101004                _start
                0x00101000                com32topmem
                0x00101078                outb
                0x00101051                delay
                0x00101082                outw
                0x00101004                start
 *fill*         0x0010108e        0x2 90909090
 .text          0x00101090      0x378 ../sys/arch/x86/intr.o
                0x00101397                pause
                0x001012cc                _Xint47
                0x0010114b                _Xint12
                0x00101227                _Xint32
                0x001012ab                _Xint44
                0x0010112a                _Xint9
                0x00101407                _Xignore
                0x00101182                _Xint17
                0x001012b6                _Xint45
                0x00101156                _Xint13
                0x001010f9                _Xint4
                0x00101114                _Xint7
                0x00101161                _Xint14
                0x0010118d                _Xint18
                0x00101274                _Xint39
                0x001013a4                enable
                0x0010121c                _Xint31
                0x001011ae                _Xint21
                0x001011f0                _Xint27
                0x00101253                _Xint36
                0x001013b5                disable
                0x0010128a                _Xint41
                0x00101269                _Xint38
                0x001012a0                _Xint43
                0x0010116c                _Xint15
                0x001012c1                _Xint46
                0x001010d9                _Xint0
                0x001011b9                _Xint22
                0x00101101                _Xint5
                0x001011cf                _Xint24
                0x001010e9                _Xint2
                0x0010125e                _Xint37
                0x001011c4                _Xint23
                0x001012d7                defevec
                0x00101232                _Xint33
                0x001011da                _Xint25
                0x001011fb                _Xint28
                0x0010127f                _Xint40
                0x0010123d                _Xint34
                0x00101135                _Xint10
                0x00101295                _Xint42
                0x001013f7                getirmask
                0x00101198                _Xint19
                0x0010139e                halt
                0x001013dd                restore
                0x0010111f                _Xint8
                0x001010f1                _Xint3
                0x00101211                _Xint30
                0x00101206                _Xint29
                0x001011a3                _Xint20
                0x00101109                _Xint6
                0x001011e5                _Xint26
                0x00101177                _Xint16
                0x00101248                _Xint35
                0x00101140                _Xint11
                0x001010e1                _Xint1
 .text          0x00101408      0x523 ../sys/initialize.o
                0x00101408                nulluser
                0x0010187d                sizmem
                0x00101854                _stop
 *fill*         0x0010192b        0x1 90909090
 .text          0x0010192c       0x9b user.o
                0x001019c6                __main
                0x0010192c                user1
                0x00101971                main
 *fill*         0x001019c7        0x1 90909090
 .text          0x001019c8      0x129 libx.a(getutim.o)
                0x001019c8                getutim
 *fill*         0x00101af1        0x3 90909090
 .text          0x00101af4      0x7fc libx.a(netstart.o)
                0x00101af4                netstart
 .text          0x001022f0      0x473 libx.a(setmask.o)
                0x001022f0                setmask
 *fill*         0x00102763        0x1 90909090
 .text          0x00102764       0xb6 libx.a(slowtimer.o)
                0x00102764                slowtimer
 *fill*         0x0010281a        0x2 90909090
 .text          0x0010281c       0xb9 libx.a(sninit.o)
                0x0010281c                sninit
 *fill*         0x001028d5        0x3 90909090
 .text          0x001028d8      0x235 libx.a(clkinit.o)
                0x001028d8                clkinit
                0x00102af0                clktest
                0x00102946                compute_delay
 *fill*         0x00102b0d        0x3 90909090
 .text          0x00102b10       0x51 libx.a(close.o)
                0x00102b10                close
 *fill*         0x00102b61        0x3 90909090
 .text          0x00102b64        0x0 libx.a(conf.o)
 .text          0x00102b64       0x8e libx.a(control.o)
                0x00102b64                control
 *fill*         0x00102bf2        0x2 90909090
 .text          0x00102bf4      0x710 libx.a(create.o)
                0x0010329d                dumppentry
                0x00102bf4                create
                0x00102fc4                dumpstack
 .text          0x00103304      0x798 libx.a(evec.o)
                0x00103304                initevec
                0x0010373a                doevec
                0x00103390                set_evec
                0x00103436                trap
 .text          0x00103a9c      0x124 libx.a(getstk.o)
                0x00103a9c                getstk
 .text          0x00103bc0       0x43 libx.a(gettime.o)
                0x00103bc0                gettime
 *fill*         0x00103c03        0x1 90909090
 .text          0x00103c04      0x7d9 libx.a(gpq.o)
                0x00103f4d                headq
                0x00104029                seeq
                0x00104367                lenq
                0x00103de9                deq
                0x00104290                freeq
                0x0010417b                newq
                0x00103c04                enq
 *fill*         0x001043dd        0x3 90909090
 .text          0x001043e0       0x51 libx.a(init.o)
                0x001043e0                init
 *fill*         0x00104431        0x3 90909090
 .text          0x00104434        0x1 libx.a(ioerr.o)
                0x00104434                ioerr
 *fill*         0x00104435        0x3 90909090
 .text          0x00104438        0x6 libx.a(ionull.o)
                0x00104438                ionull
 *fill*         0x0010443e        0x2 90909090
 .text          0x00104440       0x86 libx.a(kprintf.o)
                0x00104440                kprintf
 *fill*         0x001044c6        0x2 90909090
 .text          0x001044c8       0x20 libx.a(kputc.o)
                0x001044c8                kputc
 .text          0x001044e8       0xc7 libx.a(mark.o)
                0x001044e8                _mkinit
                0x0010450b                mark
 *fill*         0x001045af        0x1 90909090
 .text          0x001045b0      0x125 libx.a(naminit.o)
                0x001045b0                naminit
 *fill*         0x001046d5        0x3 90909090
 .text          0x001046d8       0x60 libx.a(namopen.o)
                0x001046d8                namopen
 .text          0x00104738       0x97 libx.a(newqueue.o)
                0x00104738                newqueue
 *fill*         0x001047cf        0x1 90909090
 .text          0x001047d0       0x69 libx.a(open.o)
                0x001047d0                open
 *fill*         0x00104839        0x3 90909090
 .text          0x0010483c       0xb7 libx.a(panic.o)
                0x0010483c                panic
 *fill*         0x001048f3        0x1 90909090
 .text          0x001048f4       0x5a libx.a(read.o)
                0x001048f4                read
 *fill*         0x0010494e        0x2 90909090
 .text          0x00104950       0xfc libx.a(recvtim.o)
                0x00104950                recvtim
 .text          0x00104a4c      0x222 libx.a(resched.o)
                0x00104a4c                resched
                0x00104c07                PrintSaved
 *fill*         0x00104c6e        0x2 90909090
 .text          0x00104c70       0x9d libx.a(resume.o)
                0x00104c70                resume
 *fill*         0x00104d0d        0x3 90909090
 .text          0x00104d10      0x110 libx.a(screate.o)
                0x00104d10                screate
 .text          0x00104e20      0x102 libx.a(sdelete.o)
                0x00104e20                sdelete
 *fill*         0x00104f22        0x2 90909090
 .text          0x00104f24       0xb5 libx.a(signal.o)
                0x00104f24                signal
 *fill*         0x00104fd9        0x3 90909090
 .text          0x00104fdc       0xa8 libx.a(sleep.o)
                0x00104fdc                sleep
 .text          0x00105084       0xd1 libx.a(sleep10.o)
                0x00105084                sleep10
 *fill*         0x00105155        0x3 90909090
 .text          0x00105158       0x18 libx.a(userret.o)
                0x00105158                userret
 .text          0x00105170       0xe7 libx.a(wait.o)
                0x00105170                wait
 *fill*         0x00105257        0x1 90909090
 .text          0x00105258       0x5a libx.a(write.o)
                0x00105258                write
 *fill*         0x001052b2        0x2 90909090
 .text          0x001052b4        0x6 libx.a(noclose.o)
                0x001052b4                noclose
 *fill*         0x001052ba        0x2 90909090
 .text          0x001052bc        0x6 libx.a(nocntl.o)
                0x001052bc                nocntl
 *fill*         0x001052c2        0x2 90909090
 .text          0x001052c4        0x6 libx.a(nogetc.o)
                0x001052c4                nogetc
 *fill*         0x001052ca        0x2 90909090
 .text          0x001052cc        0x6 libx.a(noopen.o)
                0x001052cc                noopen
 *fill*         0x001052d2        0x2 90909090
 .text          0x001052d4       0x13 libx.a(noputc.o)
                0x001052d4                noputc
 *fill*         0x001052e7        0x1 90909090
 .text          0x001052e8        0x6 libx.a(noread.o)
                0x001052e8                noread
 *fill*         0x001052ee        0x2 90909090
 .text          0x001052f0        0x6 libx.a(noseek.o)
                0x001052f0                noseek
 *fill*         0x001052f6        0x2 90909090
 .text          0x001052f8        0x6 libx.a(nowrite.o)
                0x001052f8                nowrite
 *fill*         0x001052fe        0x2 90909090
 .text          0x00105300        0xe libx.a(noiint.o)
                0x00105300                noiint
 *fill*         0x0010530e        0x2 90909090
 .text          0x00105310        0x1 libx.a(nooint.o)
                0x00105310                nooint
 *fill*         0x00105311        0x3 90909090
 .text          0x00105314      0x35b libx.a(i386.o)
                0x00105413                init8259
                0x001054cf                pseg
                0x00105314                setsegs
 *fill*         0x0010566f        0x1 90909090
 .text          0x00105670      0x193 libx.a(tcpclose.o)
                0x00105670                tcpclose
 *fill*         0x00105803        0x1 90909090
 .text          0x00105804      0x169 libx.a(tcpcntl.o)
                0x00105804                tcpcntl
 *fill*         0x0010596d        0x3 90909090
 .text          0x00105970       0x52 libx.a(tcpgetc.o)
                0x00105970                tcpgetc
 *fill*         0x001059c2        0x2 90909090
 .text          0x001059c4       0xb4 libx.a(tcpinit.o)
                0x001059c4                tcpinit
 .text          0x00105a78       0x71 libx.a(tcplq.o)
                0x00105a78                tcplq
 *fill*         0x00105ae9        0x3 90909090
 .text          0x00105aec       0x48 libx.a(tcpmcntl.o)
                0x00105aec                tcpmcntl
 .text          0x00105b34      0x111 libx.a(tcpmopen.o)
                0x00105b34                tcpmopen
 *fill*         0x00105c45        0x3 90909090
 .text          0x00105c48       0x24 libx.a(tcpputc.o)
                0x00105c48                tcpputc
 .text          0x00105c6c      0x210 libx.a(tcpread.o)
                0x00105c6c                tcpread
 .text          0x00105e7c       0xb6 libx.a(tcpserver.o)
                0x00105e7c                tcpserver
 *fill*         0x00105f32        0x2 90909090
 .text          0x00105f34      0x104 libx.a(tcpstat.o)
                0x00105f34                tcpstat
 .text          0x00106038       0x64 libx.a(tcpuopt.o)
                0x00106038                tcpuopt
 .text          0x0010609c      0x19d libx.a(tcpwr.o)
                0x0010609c                tcpwr
 *fill*         0x00106239        0x3 90909090
 .text          0x0010623c       0x1d libx.a(tcpwrite.o)
                0x0010623c                tcpwrite
 *fill*         0x00106259        0x3 90909090
 .text          0x0010625c      0x1ab libx.a(tcpinp.o)
                0x0010625c                tcpinp
 *fill*         0x00106407        0x1 90909090
 .text          0x00106408       0xd9 libx.a(tcpkick.o)
                0x00106408                tcpkick
 *fill*         0x001064e1        0x3 90909090
 .text          0x001064e4      0x122 libx.a(tcpnet2h.o)
                0x001064e4                tcpnet2h
 *fill*         0x00106606        0x2 90909090
 .text          0x00106608      0x1cf libx.a(tcpok.o)
                0x00106608                tcpok
 *fill*         0x001067d7        0x1 90909090
 .text          0x001067d8      0x1b8 libx.a(tcpopts.o)
                0x001067d8                tcpopts
 .text          0x00106990      0x101 libx.a(tcpout.o)
                0x00106990                tcpout
 *fill*         0x00106a91        0x3 90909090
 .text          0x00106a94      0x1fb libx.a(tcpreset.o)
                0x00106a94                tcpreset
 *fill*         0x00106c8f        0x1 90909090
 .text          0x00106c90      0x12e libx.a(tcpsmss.o)
                0x00106c90                tcpsmss
 *fill*         0x00106dbe        0x2 90909090
 .text          0x00106dc0        0x0 libx.a(tcpswitch.o)
 .text          0x00106dc0      0x193 libx.a(tcpsync.o)
                0x00106dc0                tcpsync
 *fill*         0x00106f53        0x1 90909090
 .text          0x00106f54      0x28f libx.a(tcpsynrcvd.o)
                0x00106f54                tcpsynrcvd
 *fill*         0x001071e3        0x1 90909090
 .text          0x001071e4      0x1ce libx.a(tcpsynsent.o)
                0x001071e4                tcpsynsent
 *fill*         0x001073b2        0x2 90909090
 .text          0x001073b4       0xb9 libx.a(tcptimewait.o)
                0x001073b4                tcptimewait
 *fill*         0x0010746d        0x3 90909090
 .text          0x00107470       0x8d libx.a(tcpwait.o)
                0x00107470                tcpwait
 *fill*         0x001074fd        0x3 90909090
 .text          0x00107500      0x13b libx.a(tcpwakeup.o)
                0x00107500                tcpwakeup
 *fill*         0x0010763b        0x1 90909090
 .text          0x0010763c      0x277 libx.a(tcpxmit.o)
                0x0010763c                tcpxmit
 *fill*         0x001078b3        0x1 90909090
 .text          0x001078b4      0x167 libx.a(tcptimer.o)
                0x001078b4                tcptimer
 *fill*         0x00107a1b        0x1 90909090
 .text          0x00107a1c      0x117 libx.a(tmclear.o)
                0x00107a1c                tmclear
 *fill*         0x00107b33        0x1 90909090
 .text          0x00107b34       0xaf libx.a(tmleft.o)
                0x00107b34                tmleft
 *fill*         0x00107be3        0x1 90909090
 .text          0x00107be4      0x171 libx.a(tmset.o)
                0x00107be4                tmset
 *fill*         0x00107d55        0x3 90909090
 .text          0x00107d58      0x257 libx.a(ttycntl.o)
                0x00107d58                ttycntl
 *fill*         0x00107faf        0x1 90909090
 .text          0x00107fb0       0x52 libx.a(ttygetc.o)
                0x00107fb0                ttygetc
 *fill*         0x00108002        0x2 90909090
 .text          0x00108004      0x734 libx.a(ttyiin.o)
                0x00108004                ttyiin
 .text          0x00108738       0x24 libx.a(ttyinit.o)
                0x00108738                ttyinit
 .text          0x0010875c       0xed libx.a(ttyopen.o)
                0x0010875c                ttyopen
 *fill*         0x00108849        0x3 90909090
 .text          0x0010884c       0x25 libx.a(ttyputc.o)
                0x0010884c                ttyputc
 *fill*         0x00108871        0x3 90909090
 .text          0x00108874      0x16f libx.a(ttyread.o)
                0x00108874                ttyread
 *fill*         0x001089e3        0x1 90909090
 .text          0x001089e4      0x14d libx.a(ttywrite.o)
                0x001089e4                ttywrite
 *fill*         0x00108b31        0x3 90909090
 .text          0x00108b34       0x17 libx.a(ttyoin.o)
                0x00108b34                ttyoin
 *fill*         0x00108b4b        0x1 90909090
 .text          0x00108b4c      0x1fb libx.a(udp_in.o)
                0x00108b4c                udp_in
 *fill*         0x00108d47        0x1 90909090
 .text          0x00108d48       0xf7 libx.a(udpcksum.o)
                0x00108d48                udpcksum
 *fill*         0x00108e3f        0x1 90909090
 .text          0x00108e40       0x76 libx.a(udpnet2h.o)
                0x00108e40                udpnet2h
 *fill*         0x00108eb6        0x2 90909090
 .text          0x00108eb8       0xb7 libx.a(upalloc.o)
                0x00108eb8                upalloc
 *fill*         0x00108f6f        0x1 90909090
 .text          0x00108f70      0x1f4 libx.a(ospf.o)
                0x00108f70                ospf
 .text          0x00109164       0x7d libx.a(ospfnet2h.o)
                0x00109164                ospfnet2h
 *fill*         0x001091e1        0x3 90909090
 .text          0x001091e4      0x240 libx.a(ospftimer.o)
                0x001091e4                ospftimer
 .text          0x00109424      0x18a libx.a(ospf_ddin.o)
                0x00109424                ospf_ddin
 *fill*         0x001095ae        0x2 90909090
 .text          0x001095b0       0x34 libx.a(nb_rexmt.o)
                0x001095b0                nb_rexmt
 .text          0x001095e4       0x4f libx.a(nb_makel.o)
                0x001095e4                nb_makel
 *fill*         0x00109633        0x1 90909090
 .text          0x00109634      0x24c libx.a(ddi_exstart.o)
                0x00109634                ddi_exstart
 .text          0x00109880      0x29a libx.a(ddi_exchng.o)
                0x00109880                ddi_exchng
 *fill*         0x00109b1a        0x2 90909090
 .text          0x00109b1c      0x276 libx.a(lsr_in.o)
                0x00109b1c                lsr_in
 *fill*         0x00109d92        0x2 90909090
 .text          0x00109d94       0x66 libx.a(db_lookup.o)
                0x00109d94                db_lookup
 *fill*         0x00109dfa        0x2 90909090
 .text          0x00109dfc      0x133 libx.a(ddi_full.o)
                0x00109dfc                ddi_full
 *fill*         0x00109f2f        0x1 90909090
 .text          0x00109f30       0x85 libx.a(lsa_add.o)
                0x00109f30                lsa_add
 *fill*         0x00109fb5        0x3 90909090
 .text          0x00109fb8       0xbc libx.a(lsa_send.o)
                0x00109fb8                lsa_send
 .text          0x0010a074       0xd0 libx.a(ospflstmpl.o)
                0x0010a074                ospflstmpl
 .text          0x0010a144       0xf0 libx.a(lsu_in.o)
                0x0010a144                lsu_in
 .text          0x0010a234       0xa1 libx.a(lsack_in.o)
                0x0010a234                lsack_in
 *fill*         0x0010a2d5        0x3 90909090
 .text          0x0010a2d8      0x118 libx.a(lsr_queue.o)
                0x0010a2d8                lsr_queue
 .text          0x0010a3f0       0xed libx.a(lsr_add.o)
                0x0010a3f0                lsr_add
 *fill*         0x0010a4dd        0x3 90909090
 .text          0x0010a4e0      0x1c7 libx.a(lsr_xmit.o)
                0x0010a4e0                lsr_xmit
 *fill*         0x0010a6a7        0x1 90909090
 .text          0x0010a6a8       0xbb libx.a(ospflsrtmpl.o)
                0x0010a6a8                ospflsrtmpl
 *fill*         0x0010a763        0x1 90909090
 .text          0x0010a764        0x6 libx.a(lsr_check.o)
                0x0010a764                lsr_check
 *fill*         0x0010a76a        0x2 90909090
 .text          0x0010a76c      0x1fd libx.a(ue_intr.o)
                0x0010a76c                ue_intr
                0x0010a8f5                ue_hasintr
                0x0010a914                ue_xintr
 *fill*         0x0010a969        0x3 90909090
 .text          0x0010a96c      0x1a5 libx.a(ue_write.o)
                0x0010a96c                ue_write
 *fill*         0x0010ab11        0x3 90909090
 .text          0x0010ab14      0xc67 libx.a(ue_init.o)
                0x0010b09f                uewr
                0x0010ab14                ue_init
                0x0010b130                uerd
                0x0010b62d                ue_dbuf
                0x0010b1b3                ue_dump
                0x0010b6ef                ue_check
 *fill*         0x0010b77b        0x1 90909090
 .text          0x0010b77c        0x6 libx.a(ue_cntl.o)
                0x0010b77c                ue_cntl
 *fill*         0x0010b782        0x2 90909090
 .text          0x0010b784        0xe libx.a(ue_int.o)
                0x0010b784                _ue_int
                0x0010b784                ue_int
 *fill*         0x0010b792        0x2 90909090
 .text          0x0010b794      0x486 libx.a(ue_demux.o)
                0x0010b794                ue_demux
                0x0010bae7                ueget
 *fill*         0x0010bc1a        0x2 90909090
 .text          0x0010bc1c      0x2ab libx.a(ue_wstrt.o)
                0x0010bc1c                ue_wstrt
 *fill*         0x0010bec7        0x1 90909090
 .text          0x0010bec8       0xb5 libx.a(conio.o)
                0x0010bec8                putchar_com32
                0x0010bf41                puts_com32
 *fill*         0x0010bf7d        0x3 90909090
 .text          0x0010bf80       0x53 libx.a(arpinit.o)
                0x0010bf80                arpinit
 *fill*         0x0010bfd3        0x1 90909090
 .text          0x0010bfd4      0x102 libx.a(arptimer.o)
                0x0010bfd4                arptimer
 *fill*         0x0010c0d6        0x2 90909090
 .text          0x0010c0d8        0x6 libx.a(comcntl.o)
                0x0010c0d8                comcntl
 *fill*         0x0010c0de        0x2 90909090
 .text          0x0010c0e0        0xc libx.a(comgetc.o)
                0x0010c0e0                comgetc
                0x0010c0e6                comread
 .text          0x0010c0ec       0x89 libx.a(cominit.o)
                0x0010c159                comdump
                0x0010c0ec                cominit
 *fill*         0x0010c175        0x3 90909090
 .text          0x0010c178      0x24c libx.a(comoutput.o)
                0x0010c35a                comsputc
                0x0010c378                comwrite
                0x0010c327                comflush
                0x0010c178                computc
 .text          0x0010c3c4        0xe libx.a(comint.o)
                0x0010c3c4                _comint
                0x0010c3c4                comint
 *fill*         0x0010c3d2        0x2 90909090
 .text          0x0010c3d4       0x47 libx.a(comintr.o)
                0x0010c3d4                comintr
                0x0010c3fb                comwstrt
 *fill*         0x0010c41b        0x1 90909090
 .text          0x0010c41c        0x6 libx.a(kbmcntl.o)
                0x0010c41c                kbmcntl
 *fill*         0x0010c422        0x2 90909090
 .text          0x0010c424        0xc libx.a(kbmgetc.o)
                0x0010c42a                kbmread
                0x0010c424                kbmgetc
 .text          0x0010c430       0x20 libx.a(kbminit.o)
                0x0010c430                kbminit
 .text          0x0010c450      0x28d libx.a(kbmoutput.o)
                0x0010c691                kbmwrite
                0x0010c457                kbmputc
 *fill*         0x0010c6dd        0x3 90909090
 .text          0x0010c6e0        0xe libx.a(kbmint.o)
                0x0010c6e0                _kbmint
                0x0010c6e0                kbmint
 *fill*         0x0010c6ee        0x2 90909090
 .text          0x0010c6f0       0x94 libx.a(dgclose.o)
                0x0010c6f0                dgclose
 .text          0x0010c784       0x86 libx.a(dgcntl.o)
                0x0010c784                dgcntl
 *fill*         0x0010c80a        0x2 90909090
 .text          0x0010c80c       0x5c libx.a(dginit.o)
                0x0010c80c                dginit
 .text          0x0010c868       0x13 libx.a(dgmcntl.o)
                0x0010c868                dgmcntl
 *fill*         0x0010c87b        0x1 90909090
 .text          0x0010c87c      0x1b7 libx.a(dgmopen.o)
                0x0010c87c                dgmopen
 *fill*         0x0010ca33        0x1 90909090
 .text          0x0010ca34      0x1c2 libx.a(dgread.o)
                0x0010ca34                dgread
 *fill*         0x0010cbf6        0x2 90909090
 .text          0x0010cbf8      0x161 libx.a(dgwrite.o)
                0x0010cbf8                dgwrite
 *fill*         0x0010cd59        0x3 90909090
 .text          0x0010cd5c      0x1f3 libx.a(icmp.o)
                0x0010cd5c                icmp
 *fill*         0x0010cf4f        0x1 90909090
 .text          0x0010cf50      0x1e6 libx.a(icsetbuf.o)
                0x0010cf50                icsetbuf
 *fill*         0x0010d136        0x2 90909090
 .text          0x0010d138      0x193 libx.a(icsetdata.o)
                0x0010d138                icsetdata
 *fill*         0x0010d2cb        0x1 90909090
 .text          0x0010d2cc       0xbd libx.a(icsetsrc.o)
                0x0010d2cc                icsetsrc
 *fill*         0x0010d389        0x3 90909090
 .text          0x0010d38c       0xc5 libx.a(hginit.o)
                0x0010d38c                hginit
 *fill*         0x0010d451        0x3 90909090
 .text          0x0010d454      0x147 libx.a(hgjoin.o)
                0x0010d454                hgjoin
 *fill*         0x0010d59b        0x1 90909090
 .text          0x0010d59c       0xbb libx.a(igmp.o)
                0x0010d59c                igmp
 *fill*         0x0010d657        0x1 90909090
 .text          0x0010d658       0x63 libx.a(hglookup.o)
                0x0010d658                hglookup
 *fill*         0x0010d6bb        0x1 90909090
 .text          0x0010d6bc       0x7f libx.a(igmp_update.o)
                0x0010d6bc                igmp_update
 *fill*         0x0010d73b        0x1 90909090
 .text          0x0010d73c       0x4d libx.a(hgrand.o)
                0x0010d73c                hgrand
 *fill*         0x0010d789        0x3 90909090
 .text          0x0010d78c       0x47 libx.a(ipfinit.o)
                0x0010d78c                ipfinit
 *fill*         0x0010d7d3        0x1 90909090
 .text          0x0010d7d4      0x148 libx.a(ipftimer.o)
                0x0010d7d4                ipftimer
 .text          0x0010d91c      0x3a9 libx.a(ipproc.o)
                0x0010d91c                ipproc
 *fill*         0x0010dcc5        0x3 90909090
 .text          0x0010dcc8      0x398 libx.a(ipputp.o)
                0x0010dcc8                ipputp
 .text          0x0010e060      0x28a libx.a(ipreass.o)
                0x0010e060                ipreass
 *fill*         0x0010e2ea        0x2 90909090
 .text          0x0010e2ec       0xe0 libx.a(ipredirect.o)
                0x0010e2ec                ipredirect
 .text          0x0010e3cc      0x12c libx.a(ipsend.o)
                0x0010e3cc                ipsend
 .text          0x0010e4f8      0x36b libx.a(rtadd.o)
                0x0010e4f8                rtadd
 *fill*         0x0010e863        0x1 90909090
 .text          0x0010e864      0x182 libx.a(rtdel.o)
                0x0010e864                rtdel
 *fill*         0x0010e9e6        0x2 90909090
 .text          0x0010e9e8       0x73 libx.a(rtfree.o)
                0x0010e9e8                rtfree
 *fill*         0x0010ea5b        0x1 90909090
 .text          0x0010ea5c      0x10d libx.a(rtget.o)
                0x0010ea5c                rtget
 *fill*         0x0010eb69        0x3 90909090
 .text          0x0010eb6c       0xc1 libx.a(rthash.o)
                0x0010eb6c                rthash
 *fill*         0x0010ec2d        0x3 90909090
 .text          0x0010ec30       0x65 libx.a(rtinit.o)
                0x0010ec30                rtinit
 *fill*         0x0010ec95        0x3 90909090
 .text          0x0010ec98       0xaf libx.a(rtnew.o)
                0x0010ec98                rtnew
 *fill*         0x0010ed47        0x1 90909090
 .text          0x0010ed48      0x283 libx.a(rttimer.o)
                0x0010ed48                rttimer
 *fill*         0x0010efcb        0x1 90909090
 .text          0x0010efcc      0x123 libx.a(echod.o)
                0x0010f047                echop
                0x0010efcc                echod
 *fill*         0x0010f0ef        0x1 90909090
 .text          0x0010f0f0      0x213 libx.a(fingerd.o)
                0x0010f0f0                fingerd
 *fill*         0x0010f303        0x1 90909090
 .text          0x0010f304      0x444 libx.a(lfing.o)
                0x0010f304                lfing
 .text          0x0010f748      0x16a libx.a(ripin.o)
                0x0010f748                rip
 *fill*         0x0010f8b2        0x2 90909090
 .text          0x0010f8b4       0x8b libx.a(ripout.o)
                0x0010f8b4                ripout
 *fill*         0x0010f93f        0x1 90909090
 .text          0x0010f940      0x18e libx.a(riprecv.o)
                0x0010f940                riprecv
 *fill*         0x0010face        0x2 90909090
 .text          0x0010fad0      0x1fa libx.a(riprepl.o)
                0x0010fad0                riprepl
 *fill*         0x0010fcca        0x2 90909090
 .text          0x0010fccc      0x1df libx.a(ripsend.o)
                0x0010fccc                ripsend
 *fill*         0x0010feab        0x1 90909090
 .text          0x0010feac       0x5b libx.a(rwho.o)
                0x0010feac                rwho
 *fill*         0x0010ff07        0x1 90909090
 .text          0x0010ff08      0x559 libx.a(rwhod.o)
                0x0010ff08                rwhod
 *fill*         0x00110461        0x3 90909090
 .text          0x00110464      0x2b1 libx.a(rwhoind.o)
                0x00110464                rwhoind
 *fill*         0x00110715        0x3 90909090
 .text          0x00110718      0x36f libx.a(snmpd.o)
                0x00110718                snmpd
 *fill*         0x00110a87        0x1 90909090
 .text          0x00110a88       0x70 libx.a(udpecho.o)
                0x00110a88                udpecho
 .text          0x00110af8       0xa3 libx.a(cksum.o)
                0x00110af8                _cksum
                0x00110af8                cksum
 *fill*         0x00110b9b        0x1 90909090
 .text          0x00110b9c       0xf3 libx.a(dnparse.o)
                0x00110b9c                dnparse
 *fill*         0x00110c8f        0x1 90909090
 .text          0x00110c90       0x7c libx.a(dot2ip.o)
                0x00110c90                dot2ip
 .text          0x00110d0c       0xc2 libx.a(getiaddr.o)
                0x00110d0c                getiaddr
 *fill*         0x00110dce        0x2 90909090
 .text          0x00110dd0       0xfa libx.a(getname.o)
                0x00110de8                getiname
                0x00110dd0                getname
 *fill*         0x00110eca        0x2 90909090
 .text          0x00110ecc      0x5e5 libx.a(initgate.o)
                0x00111126                efaceinit
                0x00110ecc                initgate
 *fill*         0x001114b1        0x3 90909090
 .text          0x001114b4      0x241 libx.a(inithost.o)
                0x001114b4                inithost
 *fill*         0x001116f5        0x3 90909090
 .text          0x001116f8       0xa2 libx.a(ip2dot.o)
                0x001116f8                ip2dot
 *fill*         0x0011179a        0x2 90909090
 .text          0x0011179c      0x436 libx.a(ip2name.o)
                0x0011179c                ip2name
 *fill*         0x00111bd2        0x2 90909090
 .text          0x00111bd4      0x135 libx.a(netmask.o)
                0x00111bd4                netmask
 *fill*         0x00111d09        0x3 90909090
 .text          0x00111d0c       0x6b libx.a(netmatch.o)
                0x00111d0c                netmatch
 *fill*         0x00111d77        0x1 90909090
 .text          0x00111d78       0x5e libx.a(netnum.o)
                0x00111d78                netnum
 *fill*         0x00111dd6        0x2 90909090
 .text          0x00111dd8      0x28b libx.a(netwrite.o)
                0x00111dd8                netwrite
 *fill*         0x00112063        0x1 90909090
 .text          0x00112064      0x175 libx.a(ni_in.o)
                0x00112064                ni_in
 *fill*         0x001121d9        0x3 90909090
 .text          0x001121dc      0x200 libx.a(rarp_in.o)
                0x001121dc                rarp_in
 .text          0x001123dc      0x30d libx.a(rarpsend.o)
                0x001123dc                rarpsend
 *fill*         0x001126e9        0x3 90909090
 .text          0x001126ec       0xd9 libx.a(ethmcast.o)
                0x001126ec                ethmcast
 *fill*         0x001127c5        0x3 90909090
 .text          0x001127c8      0x1e2 libx.a(mount.o)
                0x001127c8                mount
 *fill*         0x001129aa        0x2 90909090
 .text          0x001129ac       0x8b libx.a(rfclose.o)
                0x001129ac                rfclose
 *fill*         0x00112a37        0x1 90909090
 .text          0x00112a38      0x101 libx.a(rfcntl.o)
                0x00112a38                rfcntl
 *fill*         0x00112b39        0x3 90909090
 .text          0x00112b3c       0x53 libx.a(rfgetc.o)
                0x00112b3c                rfgetc
 *fill*         0x00112b8f        0x1 90909090
 .text          0x00112b90       0x9e libx.a(rfinit.o)
                0x00112b90                rfinit
 *fill*         0x00112c2e        0x2 90909090
 .text          0x00112c30      0x280 libx.a(rfmkpac.o)
                0x00112c30                rfmkpac
 .text          0x00112eb0      0x184 libx.a(rfopen.o)
                0x00112eb0                rfopen
 .text          0x00113034       0x4b libx.a(rfputc.o)
                0x00113034                rfputc
 *fill*         0x0011307f        0x1 90909090
 .text          0x00113080       0x38 libx.a(rfread.o)
                0x00113080                rfread
 .text          0x001130b8       0x48 libx.a(rfseek.o)
                0x001130b8                rfseek
 .text          0x00113100      0x137 libx.a(rfsend.o)
                0x00113100                rfsend
 *fill*         0x00113237        0x1 90909090
 .text          0x00113238       0x74 libx.a(rfwrite.o)
                0x00113238                rfwrite
 .text          0x001132ac      0x352 libx.a(mksnmp.o)
                0x001132ac                mksnmp
 *fill*         0x001135fe        0x2 90909090
 .text          0x00113600      0x191 libx.a(sna2b.o)
                0x00113600                sna2b
 *fill*         0x00113791        0x3 90909090
 .text          0x00113794      0x133 libx.a(snb2a.o)
                0x00113794                snb2a
 *fill*         0x001138c7        0x1 90909090
 .text          0x001138c8       0xde libx.a(snfreebl.o)
                0x001138c8                snfreebl
 *fill*         0x001139a6        0x2 90909090
 .text          0x001139a8      0x2a0 libx.a(snhash.o)
                0x00113ab8                hashoid
                0x001139a8                getmib
                0x00113b1f                hashinit
 .text          0x00113c48        0x0 libx.a(snmib.o)
 .text          0x00113c48      0x4aa libx.a(snparse.o)
                0x00113c48                snparse
 *fill*         0x001140f2        0x2 90909090
 .text          0x001140f4      0x24a libx.a(snrslv.o)
                0x001140f4                snrslv
 *fill*         0x0011433e        0x2 90909090
 .text          0x00114340       0xdd libx.a(sntable.o)
                0x00114340                sntable
 *fill*         0x0011441d        0x3 90909090
 .text          0x00114420      0x239 libx.a(srt_get.o)
                0x00114420                srt_get
 *fill*         0x00114659        0x3 90909090
 .text          0x0011465c      0x101 libx.a(srt_getf.o)
                0x0011465c                srt_getf
 *fill*         0x0011475d        0x3 90909090
 .text          0x00114760      0x11d libx.a(srt_getn.o)
                0x00114760                srt_getn
 *fill*         0x0011487d        0x3 90909090
 .text          0x00114880      0x13e libx.a(srt_match.o)
                0x00114880                srt_match
 *fill*         0x001149be        0x2 90909090
 .text          0x001149c0      0x1c7 libx.a(srt_set.o)
                0x001149c0                srt_set
 *fill*         0x00114b87        0x1 90909090
 .text          0x00114b88      0x167 libx.a(stc_get.o)
                0x00114b88                stc_get
 *fill*         0x00114cef        0x1 90909090
 .text          0x00114cf0      0x1a1 libx.a(stc_getf.o)
                0x00114cf0                stc_getf
 *fill*         0x00114e91        0x3 90909090
 .text          0x00114e94      0x1b8 libx.a(stc_getn.o)
                0x00114e94                stc_getn
 .text          0x0011504c      0x210 libx.a(stc_match.o)
                0x0011504c                stc_match
 .text          0x0011525c       0xa4 libx.a(stc_set.o)
                0x0011525c                stc_set
 .text          0x00115300      0x18d libx.a(snm_get.o)
                0x00115300                snm_get
 *fill*         0x0011548d        0x3 90909090
 .text          0x00115490      0x14d libx.a(snm_getf.o)
                0x00115490                snm_getf
 *fill*         0x001155dd        0x3 90909090
 .text          0x001155e0      0x15e libx.a(snm_getn.o)
                0x001155e0                snm_getn
 *fill*         0x0011573e        0x2 90909090
 .text          0x00115740      0x1be libx.a(snm_match.o)
                0x00115740                snm_match
 *fill*         0x001158fe        0x2 90909090
 .text          0x00115900      0x21e libx.a(snm_set.o)
                0x00115900                snm_set
 *fill*         0x00115b1e        0x2 90909090
 .text          0x00115b20       0xa2 libx.a(sud_get.o)
                0x00115b20                sud_get
 *fill*         0x00115bc2        0x2 90909090
 .text          0x00115bc4      0x115 libx.a(sud_getf.o)
                0x00115bc4                sud_getf
 *fill*         0x00115cd9        0x3 90909090
 .text          0x00115cdc      0x144 libx.a(sud_getn.o)
                0x00115cdc                sud_getn
 .text          0x00115e20      0x115 libx.a(sud_match.o)
                0x00115e20                sud_match
 *fill*         0x00115f35        0x3 90909090
 .text          0x00115f38        0x6 libx.a(sud_set.o)
                0x00115f38                sud_set
 *fill*         0x00115f3e        0x2 90909090
 .text          0x00115f40       0xb6 libx.a(sud_findn.o)
                0x00115f40                sud_findnext
 *fill*         0x00115ff6        0x2 90909090
 .text          0x00115ff8      0x150 libx.a(snm_findn.o)
                0x001160e4                snmcmp
                0x00115ff8                snm_findnext
 .text          0x00116148       0x66 libx.a(blkcopy.o)
                0x00116148                memcpy
 *fill*         0x001161ae        0x2 90909090
 .text          0x001161b0      0x114 libx.a(ckmode.o)
                0x001161b0                ckmode
 .text          0x001162c4       0xf2 libx.a(freebuf.o)
                0x001162c4                freebuf
 *fill*         0x001163b6        0x2 90909090
 .text          0x001163b8      0x18e libx.a(freemem.o)
                0x001163b8                freemem
 *fill*         0x00116546        0x2 90909090
 .text          0x00116548      0x300 libx.a(getbuf.o)
                0x00116548                getbuf
                0x001166a4                nbgetbuf
 .text          0x00116848       0x8c libx.a(getitem.o)
                0x0011688e                getlast
                0x00116848                getfirst
 .text          0x001168d4      0x136 libx.a(getmem.o)
                0x001168d4                getmem
 *fill*         0x00116a0a        0x2 90909090
 .text          0x00116a0c        0x6 libx.a(getpid.o)
                0x00116a0c                getpid
 *fill*         0x00116a12        0x2 90909090
 .text          0x00116a14       0xf3 libx.a(insert.o)
                0x00116a14                insert
 *fill*         0x00116b07        0x1 90909090
 .text          0x00116b08      0x136 libx.a(insertd.o)
                0x00116b08                insertd
 *fill*         0x00116c3e        0x2 90909090
 .text          0x00116c40      0x1bc libx.a(kill.o)
                0x00116c40                kill
 .text          0x00116dfc      0x2d7 libx.a(stacktrace.o)
                0x00116dfc                stacktrace
 *fill*         0x001170d3        0x1 90909090
 .text          0x001170d4      0x1af libx.a(mkpool.o)
                0x001170d4                mkpool
 *fill*         0x00117283        0x1 90909090
 .text          0x00117284       0x77 libx.a(nammap.o)
                0x00117284                nammap
 *fill*         0x001172fb        0x1 90909090
 .text          0x001172fc      0x130 libx.a(namrepl.o)
                0x001172fc                namrepl
 .text          0x0011742c       0xea libx.a(pcount.o)
                0x0011742c                pcount
 *fill*         0x00117516        0x2 90909090
 .text          0x00117518      0x145 libx.a(pcreate.o)
                0x00117518                pcreate
 *fill*         0x0011765d        0x3 90909090
 .text          0x00117660       0xc2 libx.a(pdelete.o)
                0x00117660                pdelete
 *fill*         0x00117722        0x2 90909090
 .text          0x00117724       0xb9 libx.a(pinit.o)
                0x00117724                pinit
 *fill*         0x001177dd        0x3 90909090
 .text          0x001177e0       0x69 libx.a(poolinit.o)
                0x001177e0                poolinit
 *fill*         0x00117849        0x3 90909090
 .text          0x0011784c      0x180 libx.a(preceive.o)
                0x0011784c                preceive
 .text          0x001179cc       0xc2 libx.a(preset.o)
                0x001179cc                preset
 *fill*         0x00117a8e        0x2 90909090
 .text          0x00117a90      0x19c libx.a(psend.o)
                0x00117a90                psend
 .text          0x00117c2c       0xfe libx.a(ptclear.o)
                0x00117c2c                _ptclear
 *fill*         0x00117d2a        0x2 90909090
 .text          0x00117d2c       0xd4 libx.a(queue.o)
                0x00117d2c                enqueue
                0x00117da5                dequeue
 .text          0x00117e00       0x6c libx.a(ready.o)
                0x00117e00                ready
 .text          0x00117e6c       0x8f libx.a(recvclr.o)
                0x00117e6c                recvclr
 *fill*         0x00117efb        0x1 90909090
 .text          0x00117efc       0x45 libx.a(scount.o)
                0x00117efc                scount
 *fill*         0x00117f41        0x3 90909090
 .text          0x00117f44       0xe6 libx.a(send.o)
                0x00117f44                send
 *fill*         0x0011802a        0x2 90909090
 .text          0x0011802c       0xce libx.a(sreset.o)
                0x0011802c                sreset
 *fill*         0x001180fa        0x2 90909090
 .text          0x001180fc       0xcb libx.a(suspend.o)
                0x001180fc                suspend
 *fill*         0x001181c7        0x1 90909090
 .text          0x001181c8      0x13e libx.a(unsleep.o)
                0x001181c8                unsleep
 *fill*         0x00118306        0x2 90909090
 .text          0x00118308       0x17 libx.a(xdone.o)
                0x00118308                xdone
 *fill*         0x0011831f        0x1 90909090
 .text          0x00118320      0x159 libx.a(syslog.o)
                0x00118320                syslog
 *fill*         0x00118479        0x3 90909090
 .text          0x0011847c       0x40 libx.a(getuser.o)
                0x0011847c                getuser
 .text          0x001184bc       0x8d libx.a(tcballoc.o)
                0x001184bc                tcballoc
 *fill*         0x00118549        0x3 90909090
 .text          0x0011854c      0x156 libx.a(tcbdealloc.o)
                0x0011854c                tcbdealloc
 *fill*         0x001186a2        0x2 90909090
 .text          0x001186a4      0x1c6 libx.a(tcpbind.o)
                0x001186a4                tcpbind
 *fill*         0x0011886a        0x2 90909090
 .text          0x0011886c      0x184 libx.a(tcpcon.o)
                0x0011886c                tcpcon
 .text          0x001189f0      0x1af libx.a(tcpgetdata.o)
                0x001189f0                tcpgetdata
 *fill*         0x00118b9f        0x1 90909090
 .text          0x00118ba0       0xe9 libx.a(tcpgetspace.o)
                0x00118ba0                tcpgetspace
 *fill*         0x00118c89        0x3 90909090
 .text          0x00118c8c      0x100 libx.a(tcpnxtp.o)
                0x00118c8c                tcpnxtp
 .text          0x00118d8c       0x4f libx.a(tcpabort.o)
                0x00118d8c                tcpabort
 *fill*         0x00118ddb        0x1 90909090
 .text          0x00118ddc      0x285 libx.a(tcpacked.o)
                0x00118ddc                tcpacked
 *fill*         0x00119061        0x3 90909090
 .text          0x00119064      0x1de libx.a(tcpackit.o)
                0x00119064                tcpackit
 *fill*         0x00119242        0x2 90909090
 .text          0x00119244       0xf5 libx.a(tcpcksum.o)
                0x00119244                tcpcksum
 *fill*         0x00119339        0x3 90909090
 .text          0x0011933c       0x1b libx.a(tcpclosed.o)
                0x0011933c                tcpclosed
 *fill*         0x00119357        0x1 90909090
 .text          0x00119358       0xda libx.a(tcpclosewait.o)
                0x00119358                tcpclosewait
 *fill*         0x00119432        0x2 90909090
 .text          0x00119434       0xd7 libx.a(tcpclosing.o)
                0x00119434                tcpclosing
 *fill*         0x0011950b        0x1 90909090
 .text          0x0011950c      0x2a7 libx.a(tcpdata.o)
                0x0011950c                tcpdata
 *fill*         0x001197b3        0x1 90909090
 .text          0x001197b4      0x253 libx.a(tcpdemux.o)
                0x001197b4                tcpdemux
 *fill*         0x00119a07        0x1 90909090
 .text          0x00119a08      0x159 libx.a(tcpdodat.o)
                0x00119a08                tcpdodat
 *fill*         0x00119b61        0x3 90909090
 .text          0x00119b64      0x118 libx.a(tcpestablished.o)
                0x00119b64                tcpestablished
 .text          0x00119c7c      0x161 libx.a(tcpfin1.o)
                0x00119c7c                tcpfin1
 *fill*         0x00119ddd        0x3 90909090
 .text          0x00119de0       0xe8 libx.a(tcpfin2.o)
                0x00119de0                tcpfin2
 .text          0x00119ec8      0x122 libx.a(tcph2net.o)
                0x00119ec8                tcph2net
 *fill*         0x00119fea        0x2 90909090
 .text          0x00119fec       0x5a libx.a(tcphowmuch.o)
                0x00119fec                tcphowmuch
 *fill*         0x0011a046        0x2 90909090
 .text          0x0011a048       0x26 libx.a(tcpidle.o)
                0x0011a048                tcpidle
 *fill*         0x0011a06e        0x2 90909090
 .text          0x0011a070       0x28 libx.a(tcpiss.o)
                0x0011a070                tcpiss
 .text          0x0011a098       0xb4 libx.a(tcpkilltimers.o)
                0x0011a098                tcpkilltimers
 .text          0x0011a14c       0xc0 libx.a(tcplastack.o)
                0x0011a14c                tcplastack
 .text          0x0011a20c      0x188 libx.a(tcplisten.o)
                0x0011a20c                tcplisten
 .text          0x0011a394       0x78 libx.a(tcpostate.o)
                0x0011a394                tcpostate
 .text          0x0011a40c       0xb4 libx.a(tcppersist.o)
                0x0011a40c                tcppersist
 .text          0x0011a4c0      0x164 libx.a(tcprexmt.o)
                0x0011a4c0                tcprexmt
 .text          0x0011a624      0x1b5 libx.a(tcprtt.o)
                0x0011a624                tcprtt
 *fill*         0x0011a7d9        0x3 90909090
 .text          0x0011a7dc       0xcc libx.a(tcprwindow.o)
                0x0011a7dc                tcprwindow
 .text          0x0011a8a8      0x436 libx.a(tcpsend.o)
                0x0011a8a8                tcpsend
 *fill*         0x0011acde        0x2 90909090
 .text          0x0011ace0       0xba libx.a(tcpsndlen.o)
                0x0011ace0                tcpsndlen
 *fill*         0x0011ad9a        0x2 90909090
 .text          0x0011ad9c      0x18b libx.a(tcpswindow.o)
                0x0011ad9c                tcpswindow
 *fill*         0x0011af27        0x1 90909090
 .text          0x0011af28      0x1a1 libx.a(tcpwinit.o)
                0x0011af28                tcpwinit
 *fill*         0x0011b0c9        0x3 90909090
 .text          0x0011b0cc      0x2cb libx.a(tfcoalesce.o)
                0x0011b0cc                tfcoalesce
 *fill*         0x0011b397        0x1 90909090
 .text          0x0011b398       0xb0 libx.a(tfinsert.o)
                0x0011b398                tfinsert
 .text          0x0011b448       0xde libx.a(ttynew.o)
                0x0011b448                ttynew
 *fill*         0x0011b526        0x2 90909090
 .text          0x0011b528       0xae libx.a(udpnxtp.o)
                0x0011b528                udpnxtp
 *fill*         0x0011b5d6        0x2 90909090
 .text          0x0011b5d8      0x21c libx.a(udpsend.o)
                0x0011b5d8                udpsend
 .text          0x0011b7f4      0x292 libx.a(ospf_hin.o)
                0x0011b7f4                ospf_hin
 *fill*         0x0011ba86        0x2 90909090
 .text          0x0011ba88      0x166 libx.a(ospfcheck.o)
                0x0011ba88                ospfcheck
 *fill*         0x0011bbee        0x2 90909090
 .text          0x0011bbf0      0x222 libx.a(if_elect.o)
                0x0011bbf0                if_elect
 *fill*         0x0011be12        0x2 90909090
 .text          0x0011be14      0x15a libx.a(ospfhello.o)
                0x0011be14                ospfhello
 *fill*         0x0011bf6e        0x2 90909090
 .text          0x0011bf70      0x153 libx.a(ospfifinit.o)
                0x0011bf70                ospfifinit
 *fill*         0x0011c0c3        0x1 90909090
 .text          0x0011c0c4       0x84 libx.a(ospfinit.o)
                0x0011c0c4                ospfinit
 .text          0x0011c148      0x128 libx.a(nb_add.o)
                0x0011c148                nb_add
 .text          0x0011c270      0x130 libx.a(nb_switch.o)
                0x0011c270                nb_switch
 .text          0x0011c3a0       0xc9 libx.a(nb_reform.o)
                0x0011c3a0                nb_reform
 *fill*         0x0011c469        0x3 90909090
 .text          0x0011c46c       0x8a libx.a(nb_aok.o)
                0x0011c46c                nb_aok
 *fill*         0x0011c4f6        0x2 90909090
 .text          0x0011c4f8      0x133 libx.a(dd_queue.o)
                0x0011c4f8                dd_queue
 *fill*         0x0011c62b        0x1 90909090
 .text          0x0011c62c      0x238 libx.a(dd_xmit.o)
                0x0011c62c                dd_xmit
 .text          0x0011c864      0x380 libx.a(lss_build.o)
                0x0011c864                lss_build
 .text          0x0011cbe4       0xe5 libx.a(ospfddtmpl.o)
                0x0011cbe4                ospfddtmpl
 *fill*         0x0011ccc9        0x3 90909090
 .text          0x0011cccc       0xee libx.a(nb_clearl.o)
                0x0011cccc                nb_clearl
 *fill*         0x0011cdba        0x2 90909090
 .text          0x0011cdbc       0xc4 libx.a(nb_mismatch.o)
                0x0011cdbc                nb_mismatch
 .text          0x0011ce80      0x25b libx.a(if_elect1.o)
                0x0011ce80                if_elect1
 *fill*         0x0011d0db        0x1 90909090
 .text          0x0011d0dc       0x84 libx.a(db_init.o)
                0x0011d0dc                db_init
 .text          0x0011d160       0x8d libx.a(db_resync.o)
                0x0011d160                db_resync
 *fill*         0x0011d1ed        0x3 90909090
 .text          0x0011d1f0      0x3ce libx.a(arp_in.o)
                0x0011d1f0                arp_in
 *fill*         0x0011d5be        0x2 90909090
 .text          0x0011d5c0       0xd9 libx.a(arpadd.o)
                0x0011d5c0                arpadd
 *fill*         0x0011d699        0x3 90909090
 .text          0x0011d69c       0xbc libx.a(arpalloc.o)
                0x0011d69c                arpalloc
 .text          0x0011d758       0xa3 libx.a(arpdq.o)
                0x0011d758                arpdq
 *fill*         0x0011d7fb        0x1 90909090
 .text          0x0011d7fc       0xa3 libx.a(arpfind.o)
                0x0011d7fc                arpfind
 *fill*         0x0011d89f        0x1 90909090
 .text          0x0011d8a0       0x79 libx.a(arpqsend.o)
                0x0011d8a0                arpqsend
 *fill*         0x0011d919        0x3 90909090
 .text          0x0011d91c      0x217 libx.a(arpsend.o)
                0x0011d91c                arpsend
 *fill*         0x0011db33        0x1 90909090
 .text          0x0011db34       0x99 libx.a(kbmiin.o)
                0x0011db34                kbmiin
 *fill*         0x0011dbcd        0x3 90909090
 .text          0x0011dbd0      0x23d libx.a(kbscan.o)
                0x0011dbd0                kbtoa
 *fill*         0x0011de0d        0x3 90909090
 .text          0x0011de10       0x92 libx.a(dgalloc.o)
                0x0011de10                dgalloc
 *fill*         0x0011dea2        0x2 90909090
 .text          0x0011dea4       0xa9 libx.a(icerrok.o)
                0x0011dea4                icerrok
 *fill*         0x0011df4d        0x3 90909090
 .text          0x0011df50      0x147 libx.a(hgadd.o)
                0x0011df50                hgadd
 *fill*         0x0011e097        0x1 90909090
 .text          0x0011e098      0x176 libx.a(hgarpadd.o)
                0x0011e098                hgarpadd
 *fill*         0x0011e20e        0x2 90909090
 .text          0x0011e210       0xca libx.a(ip_in.o)
                0x0011e210                ip_in
 *fill*         0x0011e2da        0x2 90909090
 .text          0x0011e2dc      0x131 libx.a(ipdbc.o)
                0x0011e2dc                ipdbc
 *fill*         0x0011e40d        0x3 90909090
 .text          0x0011e410       0xf4 libx.a(ipfadd.o)
                0x0011e410                ipfadd
 .text          0x0011e504      0x17f libx.a(ipfhcopy.o)
                0x0011e504                ipfhcopy
 *fill*         0x0011e683        0x1 90909090
 .text          0x0011e684      0x161 libx.a(ipfjoin.o)
                0x0011e684                ipfjoin
 *fill*         0x0011e7e5        0x3 90909090
 .text          0x0011e7e8      0x14e libx.a(ipfsend.o)
                0x0011e7e8                ipfsend
 *fill*         0x0011e936        0x2 90909090
 .text          0x0011e938       0xca libx.a(ipgetp.o)
                0x0011e938                ipgetp
 *fill*         0x0011ea02        0x2 90909090
 .text          0x0011ea04       0x73 libx.a(iph2net.o)
                0x0011ea04                iph2net
 *fill*         0x0011ea77        0x1 90909090
 .text          0x0011ea78       0x73 libx.a(ipnet2h.o)
                0x0011ea78                ipnet2h
 *fill*         0x0011eaeb        0x1 90909090
 .text          0x0011eaec       0xeb libx.a(isbrc.o)
                0x0011eaec                isbrc
 *fill*         0x0011ebd7        0x1 90909090
 .text          0x0011ebd8      0x1e4 libx.a(ripadd.o)
                0x0011ebd8                ripadd
 .text          0x0011edbc       0xfd libx.a(ripcheck.o)
                0x0011edbc                ripcheck
 *fill*         0x0011eeb9        0x3 90909090
 .text          0x0011eebc      0x1af libx.a(ripifset.o)
                0x0011eebc                ripifset
 *fill*         0x0011f06b        0x1 90909090
 .text          0x0011f06c       0x58 libx.a(ripmetric.o)
                0x0011f06c                ripmetric
 .text          0x0011f0c4       0xd6 libx.a(ripok.o)
                0x0011f0c4                ripok
 *fill*         0x0011f19a        0x2 90909090
 .text          0x0011f19c       0xdd libx.a(ripstart.o)
                0x0011f19c                ripstart
 *fill*         0x0011f279        0x3 90909090
 .text          0x0011f27c      0x18d libx.a(local_out.o)
                0x0011f27c                local_out
 *fill*         0x0011f409        0x3 90909090
 .text          0x0011f40c       0xa5 libx.a(rfalloc.o)
                0x0011f40c                rfalloc
 *fill*         0x0011f4b1        0x3 90909090
 .text          0x0011f4b4       0x9a libx.a(rfio.o)
                0x0011f4b4                rfio
 *fill*         0x0011f54e        0x2 90909090
 .text          0x0011f550      0x110 libx.a(a1rwlen.o)
                0x0011f5df                a1writelen
                0x0011f550                a1readlen
 .text          0x0011f660      0x1f9 libx.a(a1rwoid.o)
                0x0011f74a                a1writeoid
                0x0011f660                a1readoid
 *fill*         0x0011f859        0x3 90909090
 .text          0x0011f85c      0x20c libx.a(a1rwval.o)
                0x0011f92d                a1writeval
                0x0011f85c                a1readval
 .text          0x0011fa68      0x167 libx.a(sae_get.o)
                0x0011fa68                sae_get
 *fill*         0x0011fbcf        0x1 90909090
 .text          0x0011fbd0       0xb7 libx.a(sae_getf.o)
                0x0011fbd0                sae_getf
 *fill*         0x0011fc87        0x1 90909090
 .text          0x0011fc88      0x121 libx.a(sae_getn.o)
                0x0011fc88                sae_getn
 *fill*         0x0011fda9        0x3 90909090
 .text          0x0011fdac      0x129 libx.a(sae_match.o)
                0x0011fdac                sae_match
 *fill*         0x0011fed5        0x3 90909090
 .text          0x0011fed8        0x6 libx.a(sae_set.o)
                0x0011fed8                sae_set
 *fill*         0x0011fede        0x2 90909090
 .text          0x0011fee0      0x12f libx.a(sat_get.o)
                0x0011fee0                sat_get
 *fill*         0x0012000f        0x1 90909090
 .text          0x00120010      0x14d libx.a(sat_getf.o)
                0x00120010                sat_getf
 *fill*         0x0012015d        0x3 90909090
 .text          0x00120160      0x15e libx.a(sat_getn.o)
                0x00120160                sat_getn
 *fill*         0x001202be        0x2 90909090
 .text          0x001202c0      0x1be libx.a(sat_match.o)
                0x001202c0                sat_match
 *fill*         0x0012047e        0x2 90909090
 .text          0x00120480      0x1b3 libx.a(sat_set.o)
                0x00120480                sat_set
 *fill*         0x00120633        0x1 90909090
 .text          0x00120634      0x79c libx.a(sif_get.o)
                0x00120634                sif_get
 .text          0x00120dd0       0x78 libx.a(sif_getf.o)
                0x00120dd0                sif_getf
 .text          0x00120e48       0xe0 libx.a(sif_getn.o)
                0x00120e48                sif_getn
 .text          0x00120f28       0xd2 libx.a(sif_match.o)
                0x00120f28                sif_match
 *fill*         0x00120ffa        0x2 90909090
 .text          0x00120ffc       0xaf libx.a(sif_set.o)
                0x00120ffc                sif_set
 *fill*         0x001210ab        0x1 90909090
 .text          0x001210ac      0x2fe libx.a(snleaf.o)
                0x001210ac                snleaf
 *fill*         0x001213aa        0x2 90909090
 .text          0x001213ac       0xc8 libx.a(snoip.o)
                0x001213ac                sip2ocpy
                0x001213e6                so2ipcpy
                0x0012141b                soipequ
 .text          0x00121474       0xb7 libx.a(srt_findn.o)
                0x00121474                srt_findnext
 *fill*         0x0012152b        0x1 90909090
 .text          0x0012152c      0x213 libx.a(stc_findn.o)
                0x001215bc                sntcpcmp
                0x0012152c                stc_findnext
 *fill*         0x0012173f        0x1 90909090
 .text          0x00121740       0x74 libx.a(receive.o)
                0x00121740                receive
 .text          0x001217b4       0x64 libx.a(tcp_in.o)
                0x001217b4                tcp_in
 .text          0x00121818       0xc0 libx.a(tcprmss.o)
                0x00121818                tcprmss
 .text          0x001218d8       0xad libx.a(ttyalloc.o)
                0x001218d8                ttyalloc
 *fill*         0x00121985        0x3 90909090
 .text          0x00121988       0x76 libx.a(udph2net.o)
                0x00121988                udph2net
 *fill*         0x001219fe        0x2 90909090
 .text          0x00121a00      0x25f libx.a(ospf_hsend.o)
                0x00121a00                ospf_hsend
 *fill*         0x00121c5f        0x1 90909090
 .text          0x00121c60       0x59 libx.a(ospf_in.o)
                0x00121c60                ospf_in
 *fill*         0x00121cb9        0x3 90909090
 .text          0x00121cbc      0x16a libx.a(ospfhtmpl.o)
                0x00121cbc                ospfhtmpl
 *fill*         0x00121e26        0x2 90909090
 .text          0x00121e28      0x179 libx.a(db_nlink.o)
                0x00121e28                db_nlink
 *fill*         0x00121fa1        0x3 90909090
 .text          0x00121fa4      0x3df libx.a(icmp_in.o)
                0x00121fa4                icmp_in
 *fill*         0x00122383        0x1 90909090
 .text          0x00122384      0x121 libx.a(icredirect.o)
                0x00122384                icredirect
 *fill*         0x001224a5        0x3 90909090
 .text          0x001224a8      0x192 libx.a(igmp_in.o)
                0x001224a8                igmp_in
 *fill*         0x0012263a        0x2 90909090
 .text          0x0012263c       0x8f libx.a(igmp_settimers.o)
                0x0012263c                igmp_settimers
 *fill*         0x001226cb        0x1 90909090
 .text          0x001226cc       0xe8 libx.a(ipdstopts.o)
                0x001226cc                ipdstopts
 .text          0x001227b4      0x1f4 libx.a(ipfcons.o)
                0x001227b4                ipfcons
 .text          0x001229a8      0x1d9 libx.a(a1rwint.o)
                0x00122a3d                a1writeint
                0x001229a8                a1readint
 *fill*         0x00122b81        0x3 90909090
 .text          0x00122b84       0xf4 libx.a(sae_findn.o)
                0x00122b84                sae_findnext
 .text          0x00122c78      0x150 libx.a(sat_findn.o)
                0x00122c78                sat_findnext
                0x00122d64                satcmp
 .text          0x00122dc8       0xb2 libx.a(db_update.o)
                0x00122dc8                db_update
 *fill*         0x00122e7a        0x2 90909090
 .text          0x00122e7c       0x76 libx.a(db_new.o)
                0x00122e7c                db_new
 *fill*         0x00122ef2        0x2 90909090
 .text          0x00122ef4     0x7dcb sh.o
                0x00124810                x_dumper
                0x0012546c                x_help
                0x00123bf0                x_bpool
                0x0012ab6b                rwcomp
                0x00128e08                x_snmp
                0x0012a424                x_unmou
                0x001272cc                x_ospf
                0x00125e4c                x_mount
                0x001271dc                x_ns
                0x00123ea8                x_close
                0x00127b08                x_ping
                0x00128210                x_rls
                0x001234f0                shell
                0x00123d38                x_cat
                0x00128090                x_rf
                0x00125660                x_ifstat
                0x00123f00                x_conf
                0x001243d0                x_cp
                0x0012a2bc                x_sema
                0x00124720                x_dg
                0x0012456c                x_creat
                0x00128088                x_reboot
                0x00125554                x_igmp
                0x00128d98                x_sleep
                0x001231fc                login
                0x0012a494                x_uptime
                0x00124fd4                x_finger
                0x0012a40c                x_timerq
                0x00124fcc                x_exit
                0x00128194                x_rm
                0x00122ef4                addarg
                0x0012459c                x_date
                0x00122fe4                ascdate
                0x00124f08                x_echo
                0x00128908                x_routes
                0x001250bc                rfing
                0x001260c0                x_mv
                0x00125bfc                x_mem
                0x00128628                x_route
                0x0012abbc                x_who
                0x00126144                x_net
                0x00123b78                x_arp
                0x0012a350                x_stacktrace
                0x00124eba                summary
                0x0012461c                x_devs
                0x00127dac                x_ps
                0x00125b80                x_kill
                0x0012334c                lexan
                0x00124384                FindName
 *fill*         0x0012acbf        0x1 90909090
 .text          0x0012acc0       0x4c ../sys/arch/x86/clkint.o
                0x0012acc0                clkint
 .text          0x0012ad0c       0x34 ../sys/arch/x86/ctxsw.o
                0x0012ad0e                ctxsw
 .text          0x0012ad40       0xae ../lib/libxc/libxc.a(atoi.o)
                0x0012ad40                atoi
 *fill*         0x0012adee        0x2 90909090
 .text          0x0012adf0        0x0 ../lib/libxc/libxc.a(ctype_.o)
 .text          0x0012adf0      0xa34 ../lib/libxc/libxc.a(doprnt.o)
                0x0012adf0                _doprnt
 .text          0x0012b824       0x48 ../lib/libxc/libxc.a(memcmp.o)
                0x0012b824                memcmp
 .text          0x0012b86c       0x21 ../lib/libxc/libxc.a(memset.o)
                0x0012b86c                memset
 *fill*         0x0012b88d        0x3 90909090
 .text          0x0012b890       0x26 ../lib/libxc/libxc.a(fprintf.o)
                0x0012b890                fprintf
 *fill*         0x0012b8b6        0x2 90909090
 .text          0x0012b8b8       0x44 ../lib/libxc/libxc.a(index.o)
                0x0012b8b8                index
 .text          0x0012b8fc       0x24 ../lib/libxc/libxc.a(printf.o)
                0x0012b8fc                printf
 .text          0x0012b920      0x33d ../lib/libxc/libxc.a(qsort.o)
                0x0012b920                qsort
 *fill*         0x0012bc5d        0x3 90909090
 .text          0x0012bc60       0x42 ../lib/libxc/libxc.a(rindex.o)
                0x0012bc60                rindex
 *fill*         0x0012bca2        0x2 90909090
 .text          0x0012bca4       0x86 ../lib/libxc/libxc.a(sprintf.o)
                0x0012bca4                vsprintf
                0x0012bcdd                sprintf
 *fill*         0x0012bd2a        0x2 90909090
 .text          0x0012bd2c       0x4b ../lib/libxc/libxc.a(strcat.o)
                0x0012bd2c                strcat
 *fill*         0x0012bd77        0x1 90909090
 .text          0x0012bd78       0x5e ../lib/libxc/libxc.a(strcmp.o)
                0x0012bd78                strcmp
 *fill*         0x0012bdd6        0x2 90909090
 .text          0x0012bdd8       0x34 ../lib/libxc/libxc.a(strcpy.o)
                0x0012bdd8                strcpy
 .text          0x0012be0c       0x29 ../lib/libxc/libxc.a(strlen.o)
                0x0012be0c                strlen
 *fill*         0x0012be35        0x3 90909090
 .text          0x0012be38       0x65 ../lib/libxc/libxc.a(strncat.o)
                0x0012be38                strncat
 *fill*         0x0012be9d        0x3 90909090
 .text          0x0012bea0       0x82 ../lib/libxc/libxc.a(strncmp.o)
                0x0012bea0                strncmp
 *fill*         0x0012bf22        0x2 90909090
 .text          0x0012bf24       0x78 ../lib/libxc/libxc.a(strncpy.o)
                0x0012bf24                strncpy
 .text          0x0012bf9c      0x38f libx.a(arpprint.o)
                0x0012bf9c                arpprint
 *fill*         0x0012c32b        0x1 90909090
 .text          0x0012c32c       0xf5 libx.a(hgleave.o)
                0x0012c32c                hgleave
 *fill*         0x0012c421        0x3 90909090
 .text          0x0012c424      0x4dc libx.a(name2ip.o)
                0x0012c424                name2ip
 .text          0x0012c900      0x147 libx.a(unmount.o)
                0x0012c900                unmount
 *fill*         0x0012ca47        0x1 90909090
 .text          0x0012ca48      0x2db libx.a(snclient.o)
                0x0012ca48                snclient
 *fill*         0x0012cd23        0x1 90909090
 .text          0x0012cd24       0xff libx.a(snerr.o)
                0x0012cd24                snerr
 *fill*         0x0012ce23        0x1 90909090
 .text          0x0012ce24      0x646 libx.a(snprint.o)
                0x0012d302                snmpprint_objname
                0x0012ce99                snmpprint_val
                0x0012d24b                snmpprint_objid
                0x0012ce24                snmpprint
 *fill*         0x0012d46a        0x2 90909090
 .text          0x0012d46c       0x51 libx.a(getc.o)
                0x0012d46c                getc
 *fill*         0x0012d4bd        0x3 90909090
 .text          0x0012d4c0       0x61 libx.a(putc.o)
                0x0012d4c0                putc
 *fill*         0x0012d521        0x3 90909090
 .text          0x0012d524       0x6e libx.a(remove.o)
                0x0012d524                remove
 *fill*         0x0012d592        0x2 90909090
 .text          0x0012d594       0xc1 libx.a(rename.o)
                0x0012d594                rename
 *fill*         0x0012d655        0x3 90909090
 .text          0x0012d658       0x69 libx.a(setdev.o)
                0x0012d658                setdev
 *fill*         0x0012d6c1        0x3 90909090
 .text          0x0012d6c4       0x82 libx.a(setnok.o)
                0x0012d6c4                setnok
 *fill*         0x0012d746        0x2 90909090
 .text          0x0012d748       0xc3 libx.a(wakeup.o)
                0x0012d748                wakeup
 *fill*         0x0012d80b        0x1 90909090
 .text          0x0012d80c       0x54 libx.a(getuid.o)
                0x0012d80c                getuid
 .text          0x0012d860      0x143 libx.a(tqdump.o)
                0x0012d8bf                tqwrite
                0x0012d860                tqdump
 *fill*         0x0012d9a3        0x1 90909090
 .text          0x0012d9a4       0xd0 libx.a(hgarpdel.o)
                0x0012d9a4                hgarpdel
 *(.gnu.warning)

.fini
 *(.fini)
                0x0012da74                PROVIDE (__etext, .)
                0x0012da74                PROVIDE (_etext, .)
                0x0012da74                PROVIDE (etext, .)

.rodata         0x0012da74     0x437e
 *(.rodata .rodata.* .gnu.linkonce.r.*)
 .rodata        0x0012da74      0x1b5 ../sys/initialize.o
 .rodata        0x0012dc29       0x5c user.o
 .rodata        0x0012dc85       0x25 libx.a(getutim.o)
 *fill*         0x0012dcaa        0x2 00
 .rodata        0x0012dcac       0xe2 libx.a(netstart.o)
 .rodata        0x0012dd8e       0x18 libx.a(sninit.o)
 .rodata        0x0012dda6       0x18 libx.a(clkinit.o)
 .rodata        0x0012ddbe      0x129 libx.a(conf.o)
 *fill*         0x0012dee7        0x1 00
 .rodata        0x0012dee8      0x160 libx.a(create.o)
 .rodata        0x0012e048      0x644 libx.a(evec.o)
 .rodata        0x0012e68c       0xad libx.a(naminit.o)
 .rodata        0x0012e739       0x21 libx.a(panic.o)
 *fill*         0x0012e75a        0x2 00
 .rodata        0x0012e75c       0xbd libx.a(resched.o)
 .rodata        0x0012e819        0xd libx.a(sdelete.o)
 *fill*         0x0012e826        0x2 00
 .rodata        0x0012e828       0x90 libx.a(i386.o)
 .rodata        0x0012e8b8       0x1c libx.a(tcpcntl.o)
 .rodata        0x0012e8d4       0x81 libx.a(tcpswitch.o)
 *fill*         0x0012e955        0x3 00
 .rodata        0x0012e958       0x50 libx.a(ttycntl.o)
 .rodata        0x0012e9a8        0x8 libx.a(ttyoin.o)
 .rodata        0x0012e9b0       0x40 libx.a(ospf.o)
 .rodata        0x0012e9f0       0x20 libx.a(ospf_ddin.o)
 .rodata        0x0012ea10       0x29 libx.a(ue_intr.o)
 *fill*         0x0012ea39        0x3 00
 .rodata        0x0012ea3c       0xe4 libx.a(ue_init.o)
 .rodata        0x0012eb20       0x4a libx.a(ue_demux.o)
 .rodata        0x0012eb6a       0x11 libx.a(cominit.o)
 *fill*         0x0012eb7b        0x1 00
 .rodata        0x0012eb7c       0xbc libx.a(icsetbuf.o)
 .rodata        0x0012ec38       0x4c libx.a(icsetdata.o)
 .rodata        0x0012ec84        0xc libx.a(hginit.o)
 .rodata        0x0012ec90        0x6 libx.a(echod.o)
 .rodata        0x0012ec96       0x1c libx.a(fingerd.o)
 .rodata        0x0012ecb2       0x86 libx.a(lfing.o)
 .rodata        0x0012ed38       0x21 libx.a(ripin.o)
 .rodata        0x0012ed59        0xe libx.a(rwho.o)
 .rodata        0x0012ed67        0x8 libx.a(rwhod.o)
 *fill*         0x0012ed6f        0x1 00
 .rodata        0x0012ed70       0x1f libx.a(rwhoind.o)
 .rodata        0x0012ed8f       0x15 libx.a(udpecho.o)
 .rodata        0x0012eda4        0x9 libx.a(initgate.o)
 .rodata        0x0012edad        0x7 libx.a(ip2dot.o)
 .rodata        0x0012edb4       0x51 libx.a(ip2name.o)
 .rodata        0x0012ee05       0x14 libx.a(rarpsend.o)
 .rodata        0x0012ee19        0x1 libx.a(mount.o)
 .rodata        0x0012ee1a        0x1 libx.a(rfcntl.o)
 *fill*         0x0012ee1b        0x1 00
 .rodata        0x0012ee1c       0x24 libx.a(rfmkpac.o)
 .rodata        0x0012ee40        0x1 libx.a(rfopen.o)
 .rodata        0x0012ee41        0xe libx.a(rfsend.o)
 .rodata        0x0012ee4f      0x73e libx.a(snmib.o)
 .rodata        0x0012f58d        0x7 libx.a(snparse.o)
 .rodata        0x0012f594       0x38 libx.a(srt_get.o)
 .rodata        0x0012f5cc       0x2c libx.a(srt_set.o)
 .rodata        0x0012f5f8       0x18 libx.a(stc_get.o)
 .rodata        0x0012f610       0x24 libx.a(kill.o)
 .rodata        0x0012f634      0x112 libx.a(stacktrace.o)
 .rodata        0x0012f746        0x1 libx.a(namrepl.o)
 .rodata        0x0012f747       0x1c libx.a(pinit.o)
 .rodata        0x0012f763       0x17 libx.a(psend.o)
 *fill*         0x0012f77a        0x2 00
 .rodata        0x0012f77c       0x27 libx.a(xdone.o)
 .rodata        0x0012f7a3       0x1b libx.a(syslog.o)
 .rodata        0x0012f7be       0x11 libx.a(tcpnxtp.o)
 .rodata        0x0012f7cf       0x18 libx.a(kbmiin.o)
 *fill*         0x0012f7e7        0x1 00
 .rodata        0x0012f7e8      0x220 libx.a(a1rwval.o)
 .rodata        0x0012fa08       0x18 libx.a(sae_get.o)
 .rodata        0x0012fa20       0x68 libx.a(sif_get.o)
 .rodata        0x0012fa88       0x4c libx.a(icmp_in.o)
 .rodata        0x0012fad4     0x1e16 sh.o
 *fill*         0x001318ea        0x2 00
 .rodata        0x001318ec       0xed ../lib/libxc/libxc.a(doprnt.o)
 *fill*         0x001319d9        0x3 00
 .rodata        0x001319dc       0xe5 libx.a(arpprint.o)
 .rodata        0x00131ac1       0x11 libx.a(name2ip.o)
 .rodata        0x00131ad2        0x1 libx.a(unmount.o)
 .rodata        0x00131ad3       0x20 libx.a(snerr.o)
 *fill*         0x00131af3        0x1 00
 .rodata        0x00131af4      0x29a libx.a(snprint.o)
 *fill*         0x00131d8e        0x2 00
 .rodata        0x00131d90       0x62 libx.a(tqdump.o)

.rel.dyn        0x00131df4        0x0 load address 0x00131df2
 .rel.text      0x00000000        0x0 ../sys/com32/c32entry.o
 .rel.data      0x00000000        0x0 ../sys/com32/c32entry.o

.rodata1
 *(.rodata1)
                0x00131df4                . = ALIGN (0x4)
                0x00131df4                PROVIDE (__preinit_array_start, .)

.preinit_array
 *(.preinit_array)
                0x00131df4                PROVIDE (__preinit_array_end, .)
                0x00131df4                PROVIDE (__init_array_start, .)

.init_array
 *(.init_array)
                0x00131df4                PROVIDE (__init_array_end, .)
                0x00131df4                PROVIDE (__fini_array_start, .)

.fini_array
 *(.fini_array)
                0x00131df4                PROVIDE (__fini_array_end, .)
                0x00131df4                PROVIDE (__ctors_start, .)

.ctors
 *(SORT(.ctors.*))
 *(.ctors)
                0x00131df4                PROVIDE (__ctors_end, .)
                0x00131df4                PROVIDE (__dtors_start, .)

.dtors
 *(SORT(.dtors.*))
 *(.dtors)
                0x00131df4                PROVIDE (__dtors_end, .)
                0x00131e00                . = ALIGN (0x80)

.data           0x00131e00     0x47a4
 *(.data .data.* .gnu.linkonce.d.*)
 .data          0x00131e00      0x1d0 ../sys/com32/c32entry.o
                0x00131e40                gdtr
                0x00131e00                gdt
                0x00131e46                idt
                0x00131fc6                idtr
                0x00131fcc                cpudelay
 .data          0x00131fd0        0x0 ../sys/arch/x86/intr.o
 .data          0x00131fd0        0x4 ../sys/initialize.o
                0x00131fd0                revision
 *fill*         0x00131fd4        0xc 00
 .data          0x00131fe0       0x30 user.o
                0x00131fe0                utab
 .data          0x00132010        0x0 libx.a(getutim.o)
 .data          0x00132010        0x0 libx.a(netstart.o)
 .data          0x00132010        0x4 libx.a(setmask.o)
                0x00132010                ip_maskall
 .data          0x00132014        0x0 libx.a(slowtimer.o)
 *fill*         0x00132014        0xc 00
 .data          0x00132020       0x44 libx.a(sninit.o)
                0x00132020                SysObjectID
 .data          0x00132064        0x0 libx.a(clkinit.o)
 .data          0x00132064        0x0 libx.a(close.o)
 *fill*         0x00132064       0x1c 00
 .data          0x00132080      0xd80 libx.a(conf.o)
                0x00132080                devtab
 .data          0x00132e00        0x0 libx.a(control.o)
 .data          0x00132e00        0x0 libx.a(create.o)
 .data          0x00132e00       0x44 libx.a(evec.o)
                0x00132e00                inames
 .data          0x00132e44        0x0 libx.a(getstk.o)
 .data          0x00132e44        0x0 libx.a(gettime.o)
 .data          0x00132e44        0x0 libx.a(gpq.o)
 .data          0x00132e44        0x0 libx.a(init.o)
 .data          0x00132e44        0x0 libx.a(ioerr.o)
 .data          0x00132e44        0x0 libx.a(ionull.o)
 .data          0x00132e44        0x0 libx.a(kprintf.o)
 .data          0x00132e44        0x0 libx.a(kputc.o)
 .data          0x00132e44        0x0 libx.a(mark.o)
 .data          0x00132e44        0x0 libx.a(naminit.o)
 .data          0x00132e44        0x0 libx.a(namopen.o)
 .data          0x00132e44        0x0 libx.a(newqueue.o)
 .data          0x00132e44        0x0 libx.a(open.o)
 .data          0x00132e44        0x0 libx.a(panic.o)
 .data          0x00132e44        0x0 libx.a(read.o)
 .data          0x00132e44        0x0 libx.a(recvtim.o)
 .data          0x00132e44        0x0 libx.a(resched.o)
 .data          0x00132e44        0x0 libx.a(resume.o)
 .data          0x00132e44        0x0 libx.a(screate.o)
 .data          0x00132e44        0x0 libx.a(sdelete.o)
 .data          0x00132e44        0x0 libx.a(signal.o)
 .data          0x00132e44        0x0 libx.a(sleep.o)
 .data          0x00132e44        0x0 libx.a(sleep10.o)
 .data          0x00132e44        0x0 libx.a(userret.o)
 .data          0x00132e44        0x0 libx.a(wait.o)
 .data          0x00132e44        0x0 libx.a(write.o)
 .data          0x00132e44        0x0 libx.a(noclose.o)
 .data          0x00132e44        0x0 libx.a(nocntl.o)
 .data          0x00132e44        0x0 libx.a(nogetc.o)
 .data          0x00132e44        0x0 libx.a(noopen.o)
 .data          0x00132e44        0x0 libx.a(noputc.o)
 .data          0x00132e44        0x0 libx.a(noread.o)
 .data          0x00132e44        0x0 libx.a(noseek.o)
 .data          0x00132e44        0x0 libx.a(nowrite.o)
 .data          0x00132e44        0x0 libx.a(noiint.o)
 .data          0x00132e44        0x0 libx.a(nooint.o)
 *fill*         0x00132e44       0x1c 00
 .data          0x00132e60       0x40 libx.a(i386.o)
                0x00132e60                gdt_copy
 .data          0x00132ea0        0x0 libx.a(tcpclose.o)
 .data          0x00132ea0        0x0 libx.a(tcpcntl.o)
 .data          0x00132ea0        0x0 libx.a(tcpgetc.o)
 .data          0x00132ea0        0x0 libx.a(tcpinit.o)
 .data          0x00132ea0        0x0 libx.a(tcplq.o)
 .data          0x00132ea0        0x0 libx.a(tcpmcntl.o)
 .data          0x00132ea0        0x0 libx.a(tcpmopen.o)
 .data          0x00132ea0        0x0 libx.a(tcpputc.o)
 .data          0x00132ea0        0x0 libx.a(tcpread.o)
 .data          0x00132ea0        0x0 libx.a(tcpserver.o)
 .data          0x00132ea0        0x0 libx.a(tcpstat.o)
 .data          0x00132ea0        0x0 libx.a(tcpuopt.o)
 .data          0x00132ea0        0x0 libx.a(tcpwr.o)
 .data          0x00132ea0        0x0 libx.a(tcpwrite.o)
 .data          0x00132ea0        0x0 libx.a(tcpinp.o)
 .data          0x00132ea0        0x0 libx.a(tcpkick.o)
 .data          0x00132ea0        0x0 libx.a(tcpnet2h.o)
 .data          0x00132ea0        0x0 libx.a(tcpok.o)
 .data          0x00132ea0        0x0 libx.a(tcpopts.o)
 .data          0x00132ea0        0x0 libx.a(tcpout.o)
 .data          0x00132ea0        0x0 libx.a(tcpreset.o)
 .data          0x00132ea0        0x0 libx.a(tcpsmss.o)
 .data          0x00132ea0       0x60 libx.a(tcpswitch.o)
                0x00132ec0                tcpswitch
                0x00132ef0                tcposwitch
                0x00132ea0                tcperror
 .data          0x00132f00        0x0 libx.a(tcpsync.o)
 .data          0x00132f00        0x0 libx.a(tcpsynrcvd.o)
 .data          0x00132f00        0x0 libx.a(tcpsynsent.o)
 .data          0x00132f00        0x0 libx.a(tcptimewait.o)
 .data          0x00132f00        0x0 libx.a(tcpwait.o)
 .data          0x00132f00        0x0 libx.a(tcpwakeup.o)
 .data          0x00132f00        0x0 libx.a(tcpxmit.o)
 .data          0x00132f00        0x0 libx.a(tcptimer.o)
 .data          0x00132f00        0x0 libx.a(tmclear.o)
 .data          0x00132f00        0x0 libx.a(tmleft.o)
 .data          0x00132f00        0x0 libx.a(tmset.o)
 .data          0x00132f00        0x0 libx.a(ttycntl.o)
 .data          0x00132f00        0x0 libx.a(ttygetc.o)
 .data          0x00132f00        0x0 libx.a(ttyiin.o)
 .data          0x00132f00        0x0 libx.a(ttyinit.o)
 .data          0x00132f00        0x0 libx.a(ttyopen.o)
 .data          0x00132f00        0x0 libx.a(ttyputc.o)
 .data          0x00132f00        0x0 libx.a(ttyread.o)
 .data          0x00132f00        0x0 libx.a(ttywrite.o)
 .data          0x00132f00        0x0 libx.a(ttyoin.o)
 .data          0x00132f00        0x0 libx.a(udp_in.o)
 .data          0x00132f00        0x0 libx.a(udpcksum.o)
 .data          0x00132f00        0x0 libx.a(udpnet2h.o)
 .data          0x00132f00        0x0 libx.a(upalloc.o)
 .data          0x00132f00        0x4 libx.a(ospf.o)
                0x00132f00                ospfpid
 .data          0x00132f04        0x0 libx.a(ospfnet2h.o)
 .data          0x00132f04        0x0 libx.a(ospftimer.o)
 .data          0x00132f04        0x0 libx.a(ospf_ddin.o)
 .data          0x00132f04        0x0 libx.a(nb_rexmt.o)
 .data          0x00132f04        0x0 libx.a(nb_makel.o)
 .data          0x00132f04        0x0 libx.a(ddi_exstart.o)
 .data          0x00132f04        0x0 libx.a(ddi_exchng.o)
 .data          0x00132f04        0x0 libx.a(lsr_in.o)
 .data          0x00132f04        0x0 libx.a(db_lookup.o)
 .data          0x00132f04        0x0 libx.a(ddi_full.o)
 .data          0x00132f04        0x0 libx.a(lsa_add.o)
 .data          0x00132f04        0x0 libx.a(lsa_send.o)
 .data          0x00132f04        0x0 libx.a(ospflstmpl.o)
 .data          0x00132f04        0x0 libx.a(lsu_in.o)
 .data          0x00132f04        0x0 libx.a(lsack_in.o)
 .data          0x00132f04        0x0 libx.a(lsr_queue.o)
 .data          0x00132f04        0x0 libx.a(lsr_add.o)
 .data          0x00132f04        0x0 libx.a(lsr_xmit.o)
 .data          0x00132f04        0x0 libx.a(ospflsrtmpl.o)
 .data          0x00132f04        0x0 libx.a(lsr_check.o)
 .data          0x00132f04        0x0 libx.a(ue_intr.o)
 .data          0x00132f04        0x0 libx.a(ue_write.o)
 .data          0x00132f04       0x10 libx.a(ue_init.o)
 .data          0x00132f14        0x0 libx.a(ue_cntl.o)
 .data          0x00132f14        0x0 libx.a(ue_int.o)
 .data          0x00132f14        0x0 libx.a(ue_demux.o)
 .data          0x00132f14        0x0 libx.a(ue_wstrt.o)
 .data          0x00132f14        0x0 libx.a(conio.o)
 .data          0x00132f14        0x0 libx.a(arpinit.o)
 .data          0x00132f14        0x0 libx.a(arptimer.o)
 *fill*         0x00132f14        0xc 00
 .data          0x00132f20       0xac libx.a(comcntl.o)
                0x00132f80                lstab
                0x00132f20                brtab
 .data          0x00132fcc        0x0 libx.a(comgetc.o)
 .data          0x00132fcc        0x0 libx.a(cominit.o)
 .data          0x00132fcc        0x0 libx.a(comoutput.o)
 .data          0x00132fcc        0x0 libx.a(comint.o)
 .data          0x00132fcc        0x0 libx.a(comintr.o)
 .data          0x00132fcc        0x0 libx.a(kbmcntl.o)
 .data          0x00132fcc        0x0 libx.a(kbmgetc.o)
 .data          0x00132fcc        0x0 libx.a(kbminit.o)
 .data          0x00132fcc        0xc libx.a(kbmoutput.o)
                0x00132fd0                Crtat
 .data          0x00132fd8        0x0 libx.a(kbmint.o)
 .data          0x00132fd8        0x0 libx.a(dgclose.o)
 .data          0x00132fd8        0x0 libx.a(dgcntl.o)
 .data          0x00132fd8        0x0 libx.a(dginit.o)
 .data          0x00132fd8        0x0 libx.a(dgmcntl.o)
 .data          0x00132fd8        0x0 libx.a(dgmopen.o)
 .data          0x00132fd8        0x0 libx.a(dgread.o)
 .data          0x00132fd8        0x0 libx.a(dgwrite.o)
 .data          0x00132fd8        0x0 libx.a(icmp.o)
 .data          0x00132fd8        0x0 libx.a(icsetbuf.o)
 .data          0x00132fd8        0x0 libx.a(icsetdata.o)
 .data          0x00132fd8        0x0 libx.a(icsetsrc.o)
 .data          0x00132fd8        0x0 libx.a(hginit.o)
 .data          0x00132fd8        0x0 libx.a(hgjoin.o)
 .data          0x00132fd8        0x8 libx.a(igmp.o)
                0x00132fdc                ig_allDmask
                0x00132fd8                ig_allhosts
 .data          0x00132fe0        0x0 libx.a(hglookup.o)
 .data          0x00132fe0        0x0 libx.a(igmp_update.o)
 .data          0x00132fe0        0x8 libx.a(hgrand.o)
                0x00132fe4                offset
                0x00132fe0                modulus
 .data          0x00132fe8        0x0 libx.a(ipfinit.o)
 .data          0x00132fe8        0x0 libx.a(ipftimer.o)
 .data          0x00132fe8        0x0 libx.a(ipproc.o)
 .data          0x00132fe8        0x0 libx.a(ipputp.o)
 .data          0x00132fe8        0x0 libx.a(ipreass.o)
 .data          0x00132fe8        0x0 libx.a(ipredirect.o)
 .data          0x00132fe8        0x8 libx.a(ipsend.o)
                0x00132fec                ip_loopback
 .data          0x00132ff0        0x0 libx.a(rtadd.o)
 .data          0x00132ff0        0x0 libx.a(rtdel.o)
 .data          0x00132ff0        0x0 libx.a(rtfree.o)
 .data          0x00132ff0        0x0 libx.a(rtget.o)
 .data          0x00132ff0        0x0 libx.a(rthash.o)
 .data          0x00132ff0        0x0 libx.a(rtinit.o)
 .data          0x00132ff0        0x0 libx.a(rtnew.o)
 .data          0x00132ff0        0x0 libx.a(rttimer.o)
 .data          0x00132ff0        0x0 libx.a(echod.o)
 .data          0x00132ff0        0x0 libx.a(fingerd.o)
 .data          0x00132ff0        0x0 libx.a(lfing.o)
 .data          0x00132ff0        0x4 libx.a(ripin.o)
                0x00132ff0                rippid
 .data          0x00132ff4        0x0 libx.a(ripout.o)
 .data          0x00132ff4        0x0 libx.a(riprecv.o)
 .data          0x00132ff4        0x0 libx.a(riprepl.o)
 .data          0x00132ff4        0x0 libx.a(ripsend.o)
 .data          0x00132ff4        0x0 libx.a(rwho.o)
 .data          0x00132ff4        0x0 libx.a(rwhod.o)
 .data          0x00132ff4        0x0 libx.a(rwhoind.o)
 .data          0x00132ff4        0x0 libx.a(snmpd.o)
 .data          0x00132ff4        0x0 libx.a(udpecho.o)
 .data          0x00132ff4        0x0 libx.a(cksum.o)
 .data          0x00132ff4        0x0 libx.a(dnparse.o)
 .data          0x00132ff4        0x0 libx.a(dot2ip.o)
 .data          0x00132ff4        0x0 libx.a(getiaddr.o)
 .data          0x00132ff4        0x0 libx.a(getname.o)
 .data          0x00132ff4       0x18 libx.a(initgate.o)
 .data          0x0013300c        0x8 libx.a(inithost.o)
 .data          0x00133014        0x0 libx.a(ip2dot.o)
 .data          0x00133014        0x0 libx.a(ip2name.o)
 .data          0x00133014        0x0 libx.a(netmask.o)
 .data          0x00133014        0x0 libx.a(netmatch.o)
 .data          0x00133014        0x0 libx.a(netnum.o)
 .data          0x00133014        0x0 libx.a(netwrite.o)
 .data          0x00133014        0x0 libx.a(ni_in.o)
 .data          0x00133014        0x0 libx.a(rarp_in.o)
 .data          0x00133014        0x0 libx.a(rarpsend.o)
 .data          0x00133014        0x6 libx.a(ethmcast.o)
                0x00133014                multitemplate
 *fill*         0x0013301a        0x2 00
 .data          0x0013301c        0x0 libx.a(mount.o)
 .data          0x0013301c        0x0 libx.a(rfclose.o)
 .data          0x0013301c        0x0 libx.a(rfcntl.o)
 .data          0x0013301c        0x0 libx.a(rfgetc.o)
 .data          0x0013301c        0x0 libx.a(rfinit.o)
 .data          0x0013301c        0x0 libx.a(rfmkpac.o)
 .data          0x0013301c        0x0 libx.a(rfopen.o)
 .data          0x0013301c        0x0 libx.a(rfputc.o)
 .data          0x0013301c        0x0 libx.a(rfread.o)
 .data          0x0013301c        0x0 libx.a(rfseek.o)
 .data          0x0013301c        0x0 libx.a(rfsend.o)
 .data          0x0013301c        0x0 libx.a(rfwrite.o)
 .data          0x0013301c        0xb libx.a(mksnmp.o)
                0x0013301c                SNVCBACK
 *fill*         0x00133027        0x1 00
 .data          0x00133028        0x0 libx.a(sna2b.o)
 .data          0x00133028        0x0 libx.a(snb2a.o)
 .data          0x00133028        0x0 libx.a(snfreebl.o)
 .data          0x00133028        0x0 libx.a(snhash.o)
 *fill*         0x00133028       0x18 00
 .data          0x00133040     0x2e88 libx.a(snmib.o)
                0x00135e00                mib_entries
                0x00135e20                tabtab
                0x00133040                mib
 .data          0x00135ec8        0x0 libx.a(snparse.o)
 .data          0x00135ec8        0x0 libx.a(snrslv.o)
 .data          0x00135ec8        0x0 libx.a(sntable.o)
 .data          0x00135ec8        0x0 libx.a(srt_get.o)
 .data          0x00135ec8        0x0 libx.a(srt_getf.o)
 .data          0x00135ec8        0x0 libx.a(srt_getn.o)
 .data          0x00135ec8        0x0 libx.a(srt_match.o)
 .data          0x00135ec8        0x0 libx.a(srt_set.o)
 .data          0x00135ec8        0x0 libx.a(stc_get.o)
 .data          0x00135ec8        0x0 libx.a(stc_getf.o)
 .data          0x00135ec8        0x0 libx.a(stc_getn.o)
 .data          0x00135ec8        0x0 libx.a(stc_match.o)
 .data          0x00135ec8        0x0 libx.a(stc_set.o)
 .data          0x00135ec8        0x0 libx.a(snm_get.o)
 .data          0x00135ec8        0x0 libx.a(snm_getf.o)
 .data          0x00135ec8        0x0 libx.a(snm_getn.o)
 .data          0x00135ec8        0x0 libx.a(snm_match.o)
 .data          0x00135ec8        0x0 libx.a(snm_set.o)
 .data          0x00135ec8        0x0 libx.a(sud_get.o)
 .data          0x00135ec8        0x0 libx.a(sud_getf.o)
 .data          0x00135ec8        0x0 libx.a(sud_getn.o)
 .data          0x00135ec8        0x0 libx.a(sud_match.o)
 .data          0x00135ec8        0x0 libx.a(sud_set.o)
 .data          0x00135ec8        0x0 libx.a(sud_findn.o)
 .data          0x00135ec8        0x0 libx.a(snm_findn.o)
 .data          0x00135ec8        0x0 libx.a(blkcopy.o)
 .data          0x00135ec8        0x0 libx.a(ckmode.o)
 .data          0x00135ec8        0x0 libx.a(freebuf.o)
 .data          0x00135ec8        0x0 libx.a(freemem.o)
 .data          0x00135ec8        0x0 libx.a(getbuf.o)
 .data          0x00135ec8        0x0 libx.a(getitem.o)
 .data          0x00135ec8        0x0 libx.a(getmem.o)
 .data          0x00135ec8        0x0 libx.a(getpid.o)
 .data          0x00135ec8        0x0 libx.a(insert.o)
 .data          0x00135ec8        0x0 libx.a(insertd.o)
 .data          0x00135ec8        0x0 libx.a(kill.o)
 .data          0x00135ec8        0x0 libx.a(stacktrace.o)
 .data          0x00135ec8        0x0 libx.a(mkpool.o)
 .data          0x00135ec8        0x0 libx.a(nammap.o)
 .data          0x00135ec8        0x0 libx.a(namrepl.o)
 .data          0x00135ec8        0x0 libx.a(pcount.o)
 .data          0x00135ec8        0x0 libx.a(pcreate.o)
 .data          0x00135ec8        0x0 libx.a(pdelete.o)
 .data          0x00135ec8        0x0 libx.a(pinit.o)
 .data          0x00135ec8        0x0 libx.a(poolinit.o)
 .data          0x00135ec8        0x0 libx.a(preceive.o)
 .data          0x00135ec8        0x0 libx.a(preset.o)
 .data          0x00135ec8        0x0 libx.a(psend.o)
 .data          0x00135ec8        0x0 libx.a(ptclear.o)
 .data          0x00135ec8        0x0 libx.a(queue.o)
 .data          0x00135ec8        0x0 libx.a(ready.o)
 .data          0x00135ec8        0x0 libx.a(recvclr.o)
 .data          0x00135ec8        0x0 libx.a(scount.o)
 .data          0x00135ec8        0x0 libx.a(send.o)
 .data          0x00135ec8        0x0 libx.a(sreset.o)
 .data          0x00135ec8        0x0 libx.a(suspend.o)
 .data          0x00135ec8        0x0 libx.a(unsleep.o)
 .data          0x00135ec8        0x0 libx.a(xdone.o)
 .data          0x00135ec8        0x8 libx.a(syslog.o)
                0x00135ec8                loghost
 .data          0x00135ed0        0x0 libx.a(getuser.o)
 .data          0x00135ed0        0x0 libx.a(tcballoc.o)
 .data          0x00135ed0        0x0 libx.a(tcbdealloc.o)
 .data          0x00135ed0        0x0 libx.a(tcpbind.o)
 .data          0x00135ed0        0x0 libx.a(tcpcon.o)
 .data          0x00135ed0        0x0 libx.a(tcpgetdata.o)
 .data          0x00135ed0        0x0 libx.a(tcpgetspace.o)
 .data          0x00135ed0        0x2 libx.a(tcpnxtp.o)
 *fill*         0x00135ed2        0x2 00
 .data          0x00135ed4        0x0 libx.a(tcpabort.o)
 .data          0x00135ed4        0x0 libx.a(tcpacked.o)
 .data          0x00135ed4        0x0 libx.a(tcpackit.o)
 .data          0x00135ed4        0x0 libx.a(tcpcksum.o)
 .data          0x00135ed4        0x0 libx.a(tcpclosed.o)
 .data          0x00135ed4        0x0 libx.a(tcpclosewait.o)
 .data          0x00135ed4        0x0 libx.a(tcpclosing.o)
 .data          0x00135ed4        0x0 libx.a(tcpdata.o)
 .data          0x00135ed4        0x0 libx.a(tcpdemux.o)
 .data          0x00135ed4        0x0 libx.a(tcpdodat.o)
 .data          0x00135ed4        0x0 libx.a(tcpestablished.o)
 .data          0x00135ed4        0x0 libx.a(tcpfin1.o)
 .data          0x00135ed4        0x0 libx.a(tcpfin2.o)
 .data          0x00135ed4        0x0 libx.a(tcph2net.o)
 .data          0x00135ed4        0x0 libx.a(tcphowmuch.o)
 .data          0x00135ed4        0x0 libx.a(tcpidle.o)
 .data          0x00135ed4        0x0 libx.a(tcpiss.o)
 .data          0x00135ed4        0x0 libx.a(tcpkilltimers.o)
 .data          0x00135ed4        0x0 libx.a(tcplastack.o)
 .data          0x00135ed4        0x0 libx.a(tcplisten.o)
 .data          0x00135ed4        0x0 libx.a(tcpostate.o)
 .data          0x00135ed4        0x0 libx.a(tcppersist.o)
 .data          0x00135ed4        0x0 libx.a(tcprexmt.o)
 .data          0x00135ed4        0x0 libx.a(tcprtt.o)
 .data          0x00135ed4        0x0 libx.a(tcprwindow.o)
 .data          0x00135ed4        0x0 libx.a(tcpsend.o)
 .data          0x00135ed4        0x0 libx.a(tcpsndlen.o)
 .data          0x00135ed4        0x0 libx.a(tcpswindow.o)
 .data          0x00135ed4        0x0 libx.a(tcpwinit.o)
 .data          0x00135ed4        0x0 libx.a(tfcoalesce.o)
 .data          0x00135ed4        0x0 libx.a(tfinsert.o)
 .data          0x00135ed4        0xc libx.a(ttynew.o)
                0x00135ed4                dfltchars
 .data          0x00135ee0        0x2 libx.a(udpnxtp.o)
 *fill*         0x00135ee2        0x2 00
 .data          0x00135ee4        0x0 libx.a(udpsend.o)
 .data          0x00135ee4        0x0 libx.a(ospf_hin.o)
 .data          0x00135ee4        0x0 libx.a(ospfcheck.o)
 .data          0x00135ee4        0x0 libx.a(if_elect.o)
 .data          0x00135ee4        0x0 libx.a(ospfhello.o)
 .data          0x00135ee4        0x0 libx.a(ospfifinit.o)
 .data          0x00135ee4        0x0 libx.a(ospfinit.o)
 .data          0x00135ee4        0x0 libx.a(nb_add.o)
 .data          0x00135ee4        0x0 libx.a(nb_switch.o)
 .data          0x00135ee4        0x0 libx.a(nb_reform.o)
 .data          0x00135ee4        0x0 libx.a(nb_aok.o)
 .data          0x00135ee4        0x0 libx.a(dd_queue.o)
 .data          0x00135ee4        0x0 libx.a(dd_xmit.o)
 .data          0x00135ee4        0x0 libx.a(lss_build.o)
 .data          0x00135ee4        0x0 libx.a(ospfddtmpl.o)
 .data          0x00135ee4        0x0 libx.a(nb_clearl.o)
 .data          0x00135ee4        0x0 libx.a(nb_mismatch.o)
 .data          0x00135ee4        0x0 libx.a(if_elect1.o)
 .data          0x00135ee4        0x0 libx.a(db_init.o)
 .data          0x00135ee4        0x0 libx.a(db_resync.o)
 .data          0x00135ee4        0x0 libx.a(arp_in.o)
 .data          0x00135ee4        0x0 libx.a(arpadd.o)
 .data          0x00135ee4        0x0 libx.a(arpalloc.o)
 .data          0x00135ee4        0x0 libx.a(arpdq.o)
 .data          0x00135ee4        0x0 libx.a(arpfind.o)
 .data          0x00135ee4        0x0 libx.a(arpqsend.o)
 .data          0x00135ee4        0x0 libx.a(arpsend.o)
 .data          0x00135ee4        0x0 libx.a(kbmiin.o)
 *fill*         0x00135ee4       0x1c 00
 .data          0x00135f00       0xb3 libx.a(kbscan.o)
                0x00135f00                kbcode
                0x00135f80                kbctl
                0x00135f40                kbshift
 *fill*         0x00135fb3        0x1 00
 .data          0x00135fb4        0x0 libx.a(dgalloc.o)
 .data          0x00135fb4        0x0 libx.a(icerrok.o)
 .data          0x00135fb4        0x0 libx.a(hgadd.o)
 .data          0x00135fb4        0x0 libx.a(hgarpadd.o)
 .data          0x00135fb4        0x0 libx.a(ip_in.o)
 .data          0x00135fb4        0x0 libx.a(ipdbc.o)
 .data          0x00135fb4        0x0 libx.a(ipfadd.o)
 .data          0x00135fb4        0x0 libx.a(ipfhcopy.o)
 .data          0x00135fb4        0x0 libx.a(ipfjoin.o)
 .data          0x00135fb4        0x0 libx.a(ipfsend.o)
 .data          0x00135fb4        0x0 libx.a(ipgetp.o)
 .data          0x00135fb4        0x0 libx.a(iph2net.o)
 .data          0x00135fb4        0x0 libx.a(ipnet2h.o)
 .data          0x00135fb4        0x0 libx.a(isbrc.o)
 .data          0x00135fb4        0x0 libx.a(ripadd.o)
 .data          0x00135fb4        0x0 libx.a(ripcheck.o)
 .data          0x00135fb4        0x0 libx.a(ripifset.o)
 .data          0x00135fb4        0x0 libx.a(ripmetric.o)
 .data          0x00135fb4        0x0 libx.a(ripok.o)
 .data          0x00135fb4        0x0 libx.a(ripstart.o)
 .data          0x00135fb4        0x0 libx.a(local_out.o)
 .data          0x00135fb4        0x0 libx.a(rfalloc.o)
 .data          0x00135fb4        0x0 libx.a(rfio.o)
 .data          0x00135fb4        0x0 libx.a(a1rwlen.o)
 .data          0x00135fb4        0x5 libx.a(a1rwoid.o)
                0x00135fb4                MIB_PREFIX
 *fill*         0x00135fb9        0x3 00
 .data          0x00135fbc        0x0 libx.a(a1rwval.o)
 .data          0x00135fbc        0x0 libx.a(sae_get.o)
 .data          0x00135fbc        0x0 libx.a(sae_getf.o)
 .data          0x00135fbc        0x0 libx.a(sae_getn.o)
 .data          0x00135fbc        0x0 libx.a(sae_match.o)
 .data          0x00135fbc        0x0 libx.a(sae_set.o)
 .data          0x00135fbc        0x0 libx.a(sat_get.o)
 .data          0x00135fbc        0x0 libx.a(sat_getf.o)
 .data          0x00135fbc        0x0 libx.a(sat_getn.o)
 .data          0x00135fbc        0x0 libx.a(sat_match.o)
 .data          0x00135fbc        0x0 libx.a(sat_set.o)
 .data          0x00135fbc        0x0 libx.a(sif_get.o)
 .data          0x00135fbc        0x0 libx.a(sif_getf.o)
 .data          0x00135fbc        0x0 libx.a(sif_getn.o)
 .data          0x00135fbc        0x0 libx.a(sif_match.o)
 .data          0x00135fbc        0x0 libx.a(sif_set.o)
 .data          0x00135fbc        0x0 libx.a(snleaf.o)
 .data          0x00135fbc        0x0 libx.a(snoip.o)
 .data          0x00135fbc        0x0 libx.a(srt_findn.o)
 .data          0x00135fbc        0x0 libx.a(stc_findn.o)
 .data          0x00135fbc        0x0 libx.a(receive.o)
 .data          0x00135fbc        0x0 libx.a(tcp_in.o)
 .data          0x00135fbc        0x0 libx.a(tcprmss.o)
 .data          0x00135fbc        0x0 libx.a(ttyalloc.o)
 .data          0x00135fbc        0x0 libx.a(udph2net.o)
 .data          0x00135fbc        0x8 libx.a(ospf_hsend.o)
                0x00135fc0                AllDRouters
                0x00135fbc                AllSPFRouters
 .data          0x00135fc4        0x0 libx.a(ospf_in.o)
 .data          0x00135fc4        0x0 libx.a(ospfhtmpl.o)
 .data          0x00135fc4        0x0 libx.a(db_nlink.o)
 .data          0x00135fc4        0x0 libx.a(icmp_in.o)
 .data          0x00135fc4        0x0 libx.a(icredirect.o)
 .data          0x00135fc4        0x0 libx.a(igmp_in.o)
 .data          0x00135fc4        0x0 libx.a(igmp_settimers.o)
 .data          0x00135fc4        0x0 libx.a(ipdstopts.o)
 .data          0x00135fc4        0x0 libx.a(ipfcons.o)
 .data          0x00135fc4        0x0 libx.a(a1rwint.o)
 .data          0x00135fc4        0x0 libx.a(sae_findn.o)
 .data          0x00135fc4        0x0 libx.a(sat_findn.o)
 .data          0x00135fc4        0x0 libx.a(db_update.o)
 .data          0x00135fc4        0x0 libx.a(db_new.o)
 *fill*         0x00135fc4       0x1c 00
 .data          0x00135fe0      0x520 sh.o
                0x00136400                nbsnames
                0x00136340                tcpsnames
                0x00135fe0                Dat
                0x00136380                tcpstuff
                0x00136040                cmds
 .data          0x00136500        0x4 ../sys/arch/x86/clkint.o
 .data          0x00136504        0x0 ../sys/arch/x86/ctxsw.o
 .data          0x00136504        0x0 ../lib/libxc/libxc.a(atoi.o)
 *fill*         0x00136504       0x1c 00
 .data          0x00136520       0x81 ../lib/libxc/libxc.a(ctype_.o)
                0x00136520                _ctype_
 *fill*         0x001365a1        0x3 00
 .data          0x001365a4        0x0 ../lib/libxc/libxc.a(doprnt.o)
 .data          0x001365a4        0x0 ../lib/libxc/libxc.a(memcmp.o)
 .data          0x001365a4        0x0 ../lib/libxc/libxc.a(memset.o)
 .data          0x001365a4        0x0 ../lib/libxc/libxc.a(fprintf.o)
 .data          0x001365a4        0x0 ../lib/libxc/libxc.a(index.o)
 .data          0x001365a4        0x0 ../lib/libxc/libxc.a(printf.o)
 .data          0x001365a4        0x0 ../lib/libxc/libxc.a(qsort.o)
 .data          0x001365a4        0x0 ../lib/libxc/libxc.a(rindex.o)
 .data          0x001365a4        0x0 ../lib/libxc/libxc.a(sprintf.o)
 .data          0x001365a4        0x0 ../lib/libxc/libxc.a(strcat.o)
 .data          0x001365a4        0x0 ../lib/libxc/libxc.a(strcmp.o)
 .data          0x001365a4        0x0 ../lib/libxc/libxc.a(strcpy.o)
 .data          0x001365a4        0x0 ../lib/libxc/libxc.a(strlen.o)
 .data          0x001365a4        0x0 ../lib/libxc/libxc.a(strncat.o)
 .data          0x001365a4        0x0 ../lib/libxc/libxc.a(strncmp.o)
 .data          0x001365a4        0x0 ../lib/libxc/libxc.a(strncpy.o)
 .data          0x001365a4        0x0 libx.a(arpprint.o)
 .data          0x001365a4        0x0 libx.a(hgleave.o)
 .data          0x001365a4        0x0 libx.a(name2ip.o)
 .data          0x001365a4        0x0 libx.a(unmount.o)
 .data          0x001365a4        0x0 libx.a(snclient.o)
 .data          0x001365a4        0x0 libx.a(snerr.o)
 .data          0x001365a4        0x0 libx.a(snprint.o)
 .data          0x001365a4        0x0 libx.a(getc.o)
 .data          0x001365a4        0x0 libx.a(putc.o)
 .data          0x001365a4        0x0 libx.a(remove.o)
 .data          0x001365a4        0x0 libx.a(rename.o)
 .data          0x001365a4        0x0 libx.a(setdev.o)
 .data          0x001365a4        0x0 libx.a(setnok.o)
 .data          0x001365a4        0x0 libx.a(wakeup.o)
 .data          0x001365a4        0x0 libx.a(getuid.o)
 .data          0x001365a4        0x0 libx.a(tqdump.o)
 .data          0x001365a4        0x0 libx.a(hgarpdel.o)

.data1
 *(.data1)
                0x001365a4                _edata = .
                0x001365a4                PROVIDE (edata, .)
                0x001365a4                __bss_start = .

.bss            0x001365c0    0x103f8
 *(.dynbss)
 *(.bss .bss.* .gnu.linkonce.b.*)
 .bss           0x001365c0       0x1c ../sys/com32/c32entry.o
                0x001365c0                __entry_esp
                0x001365c4                __com32
 .bss           0x001365dc        0x0 ../sys/arch/x86/intr.o
 .bss           0x001365dc        0xc ../sys/initialize.o
                0x001365dc                reboot
 .bss           0x001365e8        0x4 user.o
 .bss           0x001365ec        0x0 libx.a(getutim.o)
 .bss           0x001365ec        0x0 libx.a(netstart.o)
 .bss           0x001365ec        0x0 libx.a(setmask.o)
 .bss           0x001365ec        0x0 libx.a(slowtimer.o)
 .bss           0x001365ec        0x4 libx.a(sninit.o)
                0x001365ec                snmpinitialized
 .bss           0x001365f0        0x0 libx.a(clkinit.o)
 .bss           0x001365f0        0x0 libx.a(close.o)
 .bss           0x001365f0        0x0 libx.a(conf.o)
 .bss           0x001365f0        0x0 libx.a(control.o)
 .bss           0x001365f0        0x4 libx.a(create.o)
 .bss           0x001365f4        0x8 libx.a(evec.o)
 .bss           0x001365fc        0x0 libx.a(getstk.o)
 .bss           0x001365fc        0x0 libx.a(gettime.o)
 *fill*         0x001365fc        0x4 00
 .bss           0x00136600      0xca0 libx.a(gpq.o)
 .bss           0x001372a0        0x0 libx.a(init.o)
 .bss           0x001372a0        0x0 libx.a(ioerr.o)
 .bss           0x001372a0        0x0 libx.a(ionull.o)
 .bss           0x001372a0        0x0 libx.a(kprintf.o)
 .bss           0x001372a0        0x0 libx.a(kputc.o)
 .bss           0x001372a0        0x0 libx.a(mark.o)
 .bss           0x001372a0        0x0 libx.a(naminit.o)
 .bss           0x001372a0        0x0 libx.a(namopen.o)
 .bss           0x001372a0        0x0 libx.a(newqueue.o)
 .bss           0x001372a0        0x0 libx.a(open.o)
 .bss           0x001372a0        0x8 libx.a(panic.o)
 .bss           0x001372a8        0x0 libx.a(read.o)
 .bss           0x001372a8        0x0 libx.a(recvtim.o)
 .bss           0x001372a8        0x0 libx.a(resched.o)
 .bss           0x001372a8        0x0 libx.a(resume.o)
 .bss           0x001372a8        0x0 libx.a(screate.o)
 .bss           0x001372a8        0x0 libx.a(sdelete.o)
 .bss           0x001372a8        0x0 libx.a(signal.o)
 .bss           0x001372a8        0x0 libx.a(sleep.o)
 .bss           0x001372a8        0x0 libx.a(sleep10.o)
 .bss           0x001372a8        0x0 libx.a(userret.o)
 .bss           0x001372a8        0x0 libx.a(wait.o)
 .bss           0x001372a8        0x0 libx.a(write.o)
 .bss           0x001372a8        0x0 libx.a(noclose.o)
 .bss           0x001372a8        0x0 libx.a(nocntl.o)
 .bss           0x001372a8        0x0 libx.a(nogetc.o)
 .bss           0x001372a8        0x0 libx.a(noopen.o)
 .bss           0x001372a8        0x0 libx.a(noputc.o)
 .bss           0x001372a8        0x0 libx.a(noread.o)
 .bss           0x001372a8        0x0 libx.a(noseek.o)
 .bss           0x001372a8        0x0 libx.a(nowrite.o)
 .bss           0x001372a8        0x0 libx.a(noiint.o)
 .bss           0x001372a8        0x0 libx.a(nooint.o)
 .bss           0x001372a8        0x0 libx.a(i386.o)
 .bss           0x001372a8        0x0 libx.a(tcpclose.o)
 .bss           0x001372a8        0x0 libx.a(tcpcntl.o)
 .bss           0x001372a8        0x0 libx.a(tcpgetc.o)
 .bss           0x001372a8        0x4 libx.a(tcpinit.o)
 .bss           0x001372ac        0x0 libx.a(tcplq.o)
 .bss           0x001372ac        0x0 libx.a(tcpmcntl.o)
 .bss           0x001372ac        0x0 libx.a(tcpmopen.o)
 .bss           0x001372ac        0x0 libx.a(tcpputc.o)
 .bss           0x001372ac        0x0 libx.a(tcpread.o)
 .bss           0x001372ac        0x0 libx.a(tcpserver.o)
 .bss           0x001372ac        0x0 libx.a(tcpstat.o)
 .bss           0x001372ac        0x0 libx.a(tcpuopt.o)
 .bss           0x001372ac        0x0 libx.a(tcpwr.o)
 .bss           0x001372ac        0x0 libx.a(tcpwrite.o)
 .bss           0x001372ac        0x0 libx.a(tcpinp.o)
 .bss           0x001372ac        0x0 libx.a(tcpkick.o)
 .bss           0x001372ac        0x0 libx.a(tcpnet2h.o)
 .bss           0x001372ac        0x0 libx.a(tcpok.o)
 .bss           0x001372ac        0x0 libx.a(tcpopts.o)
 .bss           0x001372ac        0x0 libx.a(tcpout.o)
 .bss           0x001372ac        0x0 libx.a(tcpreset.o)
 .bss           0x001372ac        0x0 libx.a(tcpsmss.o)
 .bss           0x001372ac        0x0 libx.a(tcpswitch.o)
 .bss           0x001372ac        0x0 libx.a(tcpsync.o)
 .bss           0x001372ac        0x0 libx.a(tcpsynrcvd.o)
 .bss           0x001372ac        0x0 libx.a(tcpsynsent.o)
 .bss           0x001372ac        0x0 libx.a(tcptimewait.o)
 .bss           0x001372ac        0x0 libx.a(tcpwait.o)
 .bss           0x001372ac        0x0 libx.a(tcpwakeup.o)
 .bss           0x001372ac        0x0 libx.a(tcpxmit.o)
 .bss           0x001372ac        0x0 libx.a(tcptimer.o)
 .bss           0x001372ac        0x0 libx.a(tmclear.o)
 .bss           0x001372ac        0x0 libx.a(tmleft.o)
 .bss           0x001372ac        0x0 libx.a(tmset.o)
 .bss           0x001372ac        0x0 libx.a(ttycntl.o)
 .bss           0x001372ac        0x0 libx.a(ttygetc.o)
 .bss           0x001372ac        0x1 libx.a(ttyiin.o)
 *fill*         0x001372ad        0x3 00
 .bss           0x001372b0        0x0 libx.a(ttyinit.o)
 .bss           0x001372b0        0x0 libx.a(ttyopen.o)
 .bss           0x001372b0        0x0 libx.a(ttyputc.o)
 .bss           0x001372b0        0x0 libx.a(ttyread.o)
 .bss           0x001372b0        0x0 libx.a(ttywrite.o)
 .bss           0x001372b0        0x0 libx.a(ttyoin.o)
 .bss           0x001372b0        0x0 libx.a(udp_in.o)
 .bss           0x001372b0        0x0 libx.a(udpcksum.o)
 .bss           0x001372b0        0x0 libx.a(udpnet2h.o)
 .bss           0x001372b0        0x0 libx.a(upalloc.o)
 .bss           0x001372b0        0x1 libx.a(ospf.o)
                0x001372b0                doospf
 *fill*         0x001372b1        0x3 00
 .bss           0x001372b4        0x0 libx.a(ospfnet2h.o)
 .bss           0x001372b4        0x0 libx.a(ospftimer.o)
 .bss           0x001372b4        0x0 libx.a(ospf_ddin.o)
 .bss           0x001372b4        0x0 libx.a(nb_rexmt.o)
 .bss           0x001372b4        0x0 libx.a(nb_makel.o)
 .bss           0x001372b4        0x0 libx.a(ddi_exstart.o)
 .bss           0x001372b4        0x0 libx.a(ddi_exchng.o)
 .bss           0x001372b4        0x0 libx.a(lsr_in.o)
 .bss           0x001372b4        0x0 libx.a(db_lookup.o)
 .bss           0x001372b4        0x0 libx.a(ddi_full.o)
 .bss           0x001372b4        0x0 libx.a(lsa_add.o)
 .bss           0x001372b4        0x0 libx.a(lsa_send.o)
 .bss           0x001372b4        0x0 libx.a(ospflstmpl.o)
 .bss           0x001372b4        0x0 libx.a(lsu_in.o)
 .bss           0x001372b4        0x0 libx.a(lsack_in.o)
 .bss           0x001372b4        0x0 libx.a(lsr_queue.o)
 .bss           0x001372b4        0x0 libx.a(lsr_add.o)
 .bss           0x001372b4        0x0 libx.a(lsr_xmit.o)
 .bss           0x001372b4        0x0 libx.a(ospflsrtmpl.o)
 .bss           0x001372b4        0x0 libx.a(lsr_check.o)
 .bss           0x001372b4        0x4 libx.a(ue_intr.o)
 .bss           0x001372b8        0x0 libx.a(ue_write.o)
 .bss           0x001372b8        0x4 libx.a(ue_init.o)
 .bss           0x001372bc        0x0 libx.a(ue_cntl.o)
 .bss           0x001372bc        0x0 libx.a(ue_int.o)
 .bss           0x001372bc        0x0 libx.a(ue_demux.o)
 .bss           0x001372bc        0x0 libx.a(ue_wstrt.o)
 .bss           0x001372bc        0x0 libx.a(conio.o)
 .bss           0x001372bc        0x0 libx.a(arpinit.o)
 .bss           0x001372bc        0x0 libx.a(arptimer.o)
 .bss           0x001372bc        0x0 libx.a(comcntl.o)
 .bss           0x001372bc        0x0 libx.a(comgetc.o)
 .bss           0x001372bc        0x0 libx.a(cominit.o)
 .bss           0x001372bc        0x0 libx.a(comoutput.o)
 .bss           0x001372bc        0x0 libx.a(comint.o)
 .bss           0x001372bc        0x0 libx.a(comintr.o)
 .bss           0x001372bc        0x0 libx.a(kbmcntl.o)
 .bss           0x001372bc        0x0 libx.a(kbmgetc.o)
 .bss           0x001372bc        0x0 libx.a(kbminit.o)
 .bss           0x001372bc        0x4 libx.a(kbmoutput.o)
 .bss           0x001372c0        0x0 libx.a(kbmint.o)
 .bss           0x001372c0        0x0 libx.a(dgclose.o)
 .bss           0x001372c0        0x0 libx.a(dgcntl.o)
 .bss           0x001372c0        0x0 libx.a(dginit.o)
 .bss           0x001372c0        0x0 libx.a(dgmcntl.o)
 .bss           0x001372c0        0x0 libx.a(dgmopen.o)
 .bss           0x001372c0        0x0 libx.a(dgread.o)
 .bss           0x001372c0        0x0 libx.a(dgwrite.o)
 .bss           0x001372c0        0x0 libx.a(icmp.o)
 .bss           0x001372c0        0x0 libx.a(icsetbuf.o)
 .bss           0x001372c0        0x0 libx.a(icsetdata.o)
 .bss           0x001372c0        0x0 libx.a(icsetsrc.o)
 .bss           0x001372c0        0x0 libx.a(hginit.o)
 .bss           0x001372c0        0x0 libx.a(hgjoin.o)
 .bss           0x001372c0        0x0 libx.a(igmp.o)
 .bss           0x001372c0        0x0 libx.a(hglookup.o)
 .bss           0x001372c0        0x0 libx.a(igmp_update.o)
 .bss           0x001372c0        0x0 libx.a(hgrand.o)
 .bss           0x001372c0        0x0 libx.a(ipfinit.o)
 .bss           0x001372c0        0x0 libx.a(ipftimer.o)
 .bss           0x001372c0        0x0 libx.a(ipproc.o)
 .bss           0x001372c0        0x0 libx.a(ipputp.o)
 .bss           0x001372c0        0x0 libx.a(ipreass.o)
 .bss           0x001372c0        0x0 libx.a(ipredirect.o)
 .bss           0x001372c0        0x4 libx.a(ipsend.o)
                0x001372c0                ip_anyaddr
 .bss           0x001372c4        0x0 libx.a(rtadd.o)
 .bss           0x001372c4        0x0 libx.a(rtdel.o)
 .bss           0x001372c4        0x0 libx.a(rtfree.o)
 .bss           0x001372c4        0x0 libx.a(rtget.o)
 .bss           0x001372c4        0x0 libx.a(rthash.o)
 .bss           0x001372c4        0x0 libx.a(rtinit.o)
 .bss           0x001372c4        0x0 libx.a(rtnew.o)
 .bss           0x001372c4        0x0 libx.a(rttimer.o)
 .bss           0x001372c4        0x0 libx.a(echod.o)
 .bss           0x001372c4        0x0 libx.a(fingerd.o)
 .bss           0x001372c4        0x6 libx.a(lfing.o)
 *fill*         0x001372ca        0x2 00
 .bss           0x001372cc        0x1 libx.a(ripin.o)
                0x001372cc                dorip
 *fill*         0x001372cd        0x3 00
 .bss           0x001372d0        0x0 libx.a(ripout.o)
 .bss           0x001372d0        0x0 libx.a(riprecv.o)
 .bss           0x001372d0        0x0 libx.a(riprepl.o)
 .bss           0x001372d0        0x0 libx.a(ripsend.o)
 .bss           0x001372d0        0x0 libx.a(rwho.o)
 .bss           0x001372d0        0x0 libx.a(rwhod.o)
 .bss           0x001372d0        0x0 libx.a(rwhoind.o)
 .bss           0x001372d0        0x0 libx.a(snmpd.o)
 *fill*         0x001372d0       0x10 00
 .bss           0x001372e0      0x258 libx.a(udpecho.o)
 .bss           0x00137538        0x0 libx.a(cksum.o)
 .bss           0x00137538        0x0 libx.a(dnparse.o)
 .bss           0x00137538        0x0 libx.a(dot2ip.o)
 .bss           0x00137538        0x0 libx.a(getiaddr.o)
 .bss           0x00137538        0x0 libx.a(getname.o)
 .bss           0x00137538        0x0 libx.a(initgate.o)
 .bss           0x00137538        0x0 libx.a(inithost.o)
 .bss           0x00137538        0x0 libx.a(ip2dot.o)
 .bss           0x00137538        0x0 libx.a(ip2name.o)
 .bss           0x00137538        0x0 libx.a(netmask.o)
 .bss           0x00137538        0x0 libx.a(netmatch.o)
 .bss           0x00137538        0x0 libx.a(netnum.o)
 .bss           0x00137538        0x0 libx.a(netwrite.o)
 .bss           0x00137538        0x0 libx.a(ni_in.o)
 .bss           0x00137538        0x0 libx.a(rarp_in.o)
 .bss           0x00137538        0x0 libx.a(rarpsend.o)
 .bss           0x00137538        0x0 libx.a(ethmcast.o)
 .bss           0x00137538        0x0 libx.a(mount.o)
 .bss           0x00137538        0x0 libx.a(rfclose.o)
 .bss           0x00137538        0x0 libx.a(rfcntl.o)
 .bss           0x00137538        0x0 libx.a(rfgetc.o)
 .bss           0x00137538        0x0 libx.a(rfinit.o)
 *fill*         0x00137538        0x8 00
 .bss           0x00137540      0x258 libx.a(rfmkpac.o)
 .bss           0x00137798        0x0 libx.a(rfopen.o)
 .bss           0x00137798        0x0 libx.a(rfputc.o)
 .bss           0x00137798        0x0 libx.a(rfread.o)
 .bss           0x00137798        0x0 libx.a(rfseek.o)
 .bss           0x00137798        0x0 libx.a(rfsend.o)
 .bss           0x00137798        0x0 libx.a(rfwrite.o)
 .bss           0x00137798        0x0 libx.a(mksnmp.o)
 .bss           0x00137798        0x0 libx.a(sna2b.o)
 .bss           0x00137798        0x0 libx.a(snb2a.o)
 .bss           0x00137798        0x0 libx.a(snfreebl.o)
 .bss           0x00137798        0x0 libx.a(snhash.o)
 .bss           0x00137798        0x0 libx.a(snmib.o)
 .bss           0x00137798        0x0 libx.a(snparse.o)
 .bss           0x00137798        0x0 libx.a(snrslv.o)
 .bss           0x00137798        0x0 libx.a(sntable.o)
 .bss           0x00137798        0x0 libx.a(srt_get.o)
 .bss           0x00137798        0x0 libx.a(srt_getf.o)
 .bss           0x00137798        0x0 libx.a(srt_getn.o)
 .bss           0x00137798        0x0 libx.a(srt_match.o)
 .bss           0x00137798        0x0 libx.a(srt_set.o)
 .bss           0x00137798        0x0 libx.a(stc_get.o)
 .bss           0x00137798        0x0 libx.a(stc_getf.o)
 .bss           0x00137798        0x0 libx.a(stc_getn.o)
 .bss           0x00137798        0x0 libx.a(stc_match.o)
 .bss           0x00137798        0x0 libx.a(stc_set.o)
 .bss           0x00137798        0x0 libx.a(snm_get.o)
 .bss           0x00137798        0x0 libx.a(snm_getf.o)
 .bss           0x00137798        0x0 libx.a(snm_getn.o)
 .bss           0x00137798        0x0 libx.a(snm_match.o)
 .bss           0x00137798        0x0 libx.a(snm_set.o)
 .bss           0x00137798        0x0 libx.a(sud_get.o)
 .bss           0x00137798        0x0 libx.a(sud_getf.o)
 .bss           0x00137798        0x0 libx.a(sud_getn.o)
 .bss           0x00137798        0x0 libx.a(sud_match.o)
 .bss           0x00137798        0x0 libx.a(sud_set.o)
 .bss           0x00137798        0x0 libx.a(sud_findn.o)
 .bss           0x00137798        0x0 libx.a(snm_findn.o)
 .bss           0x00137798        0x0 libx.a(blkcopy.o)
 .bss           0x00137798        0x0 libx.a(ckmode.o)
 .bss           0x00137798        0x0 libx.a(freebuf.o)
 .bss           0x00137798        0x0 libx.a(freemem.o)
 .bss           0x00137798        0x0 libx.a(getbuf.o)
 .bss           0x00137798        0x0 libx.a(getitem.o)
 .bss           0x00137798        0x0 libx.a(getmem.o)
 .bss           0x00137798        0x0 libx.a(getpid.o)
 .bss           0x00137798        0x0 libx.a(insert.o)
 .bss           0x00137798        0x0 libx.a(insertd.o)
 .bss           0x00137798        0x0 libx.a(kill.o)
 .bss           0x00137798        0xc libx.a(stacktrace.o)
 .bss           0x001377a4        0x0 libx.a(mkpool.o)
 .bss           0x001377a4        0x0 libx.a(nammap.o)
 .bss           0x001377a4        0x0 libx.a(namrepl.o)
 .bss           0x001377a4        0x0 libx.a(pcount.o)
 .bss           0x001377a4        0x0 libx.a(pcreate.o)
 .bss           0x001377a4        0x0 libx.a(pdelete.o)
 .bss           0x001377a4        0x0 libx.a(pinit.o)
 .bss           0x001377a4        0x0 libx.a(poolinit.o)
 .bss           0x001377a4        0x0 libx.a(preceive.o)
 .bss           0x001377a4        0x0 libx.a(preset.o)
 .bss           0x001377a4        0x0 libx.a(psend.o)
 .bss           0x001377a4        0x0 libx.a(ptclear.o)
 .bss           0x001377a4        0x0 libx.a(queue.o)
 .bss           0x001377a4        0x0 libx.a(ready.o)
 .bss           0x001377a4        0x0 libx.a(recvclr.o)
 .bss           0x001377a4        0x0 libx.a(scount.o)
 .bss           0x001377a4        0x0 libx.a(send.o)
 .bss           0x001377a4        0x0 libx.a(sreset.o)
 .bss           0x001377a4        0x0 libx.a(suspend.o)
 .bss           0x001377a4        0x0 libx.a(unsleep.o)
 .bss           0x001377a4        0x0 libx.a(xdone.o)
 *fill*         0x001377a4       0x1c 00
 .bss           0x001377c0      0x10a libx.a(syslog.o)
 *fill*         0x001378ca        0x2 00
 .bss           0x001378cc        0x0 libx.a(getuser.o)
 .bss           0x001378cc        0x0 libx.a(tcballoc.o)
 .bss           0x001378cc        0x0 libx.a(tcbdealloc.o)
 .bss           0x001378cc        0x0 libx.a(tcpbind.o)
 .bss           0x001378cc        0x0 libx.a(tcpcon.o)
 .bss           0x001378cc        0x0 libx.a(tcpgetdata.o)
 .bss           0x001378cc        0x0 libx.a(tcpgetspace.o)
 .bss           0x001378cc        0x0 libx.a(tcpnxtp.o)
 .bss           0x001378cc        0x0 libx.a(tcpabort.o)
 .bss           0x001378cc        0x0 libx.a(tcpacked.o)
 .bss           0x001378cc        0x0 libx.a(tcpackit.o)
 .bss           0x001378cc        0x0 libx.a(tcpcksum.o)
 .bss           0x001378cc        0x0 libx.a(tcpclosed.o)
 .bss           0x001378cc        0x0 libx.a(tcpclosewait.o)
 .bss           0x001378cc        0x0 libx.a(tcpclosing.o)
 .bss           0x001378cc        0x0 libx.a(tcpdata.o)
 .bss           0x001378cc        0x0 libx.a(tcpdemux.o)
 .bss           0x001378cc        0x0 libx.a(tcpdodat.o)
 .bss           0x001378cc        0x0 libx.a(tcpestablished.o)
 .bss           0x001378cc        0x0 libx.a(tcpfin1.o)
 .bss           0x001378cc        0x0 libx.a(tcpfin2.o)
 .bss           0x001378cc        0x0 libx.a(tcph2net.o)
 .bss           0x001378cc        0x0 libx.a(tcphowmuch.o)
 .bss           0x001378cc        0x0 libx.a(tcpidle.o)
 .bss           0x001378cc        0x4 libx.a(tcpiss.o)
 .bss           0x001378d0        0x0 libx.a(tcpkilltimers.o)
 .bss           0x001378d0        0x0 libx.a(tcplastack.o)
 .bss           0x001378d0        0x0 libx.a(tcplisten.o)
 .bss           0x001378d0        0x0 libx.a(tcpostate.o)
 .bss           0x001378d0        0x0 libx.a(tcppersist.o)
 .bss           0x001378d0        0x0 libx.a(tcprexmt.o)
 .bss           0x001378d0        0x0 libx.a(tcprtt.o)
 .bss           0x001378d0        0x0 libx.a(tcprwindow.o)
 .bss           0x001378d0        0x0 libx.a(tcpsend.o)
 .bss           0x001378d0        0x0 libx.a(tcpsndlen.o)
 .bss           0x001378d0        0x0 libx.a(tcpswindow.o)
 .bss           0x001378d0        0x0 libx.a(tcpwinit.o)
 .bss           0x001378d0        0x0 libx.a(tfcoalesce.o)
 .bss           0x001378d0        0x0 libx.a(tfinsert.o)
 .bss           0x001378d0        0x0 libx.a(ttynew.o)
 .bss           0x001378d0        0x0 libx.a(udpnxtp.o)
 .bss           0x001378d0        0x0 libx.a(udpsend.o)
 .bss           0x001378d0        0x0 libx.a(ospf_hin.o)
 .bss           0x001378d0        0x0 libx.a(ospfcheck.o)
 .bss           0x001378d0        0x0 libx.a(if_elect.o)
 .bss           0x001378d0        0x0 libx.a(ospfhello.o)
 .bss           0x001378d0        0x0 libx.a(ospfifinit.o)
 .bss           0x001378d0        0x0 libx.a(ospfinit.o)
 .bss           0x001378d0        0x0 libx.a(nb_add.o)
 .bss           0x001378d0        0x0 libx.a(nb_switch.o)
 .bss           0x001378d0        0x0 libx.a(nb_reform.o)
 .bss           0x001378d0        0x0 libx.a(nb_aok.o)
 .bss           0x001378d0        0x0 libx.a(dd_queue.o)
 .bss           0x001378d0        0x0 libx.a(dd_xmit.o)
 .bss           0x001378d0        0x0 libx.a(lss_build.o)
 .bss           0x001378d0        0x0 libx.a(ospfddtmpl.o)
 .bss           0x001378d0        0x0 libx.a(nb_clearl.o)
 .bss           0x001378d0        0x0 libx.a(nb_mismatch.o)
 .bss           0x001378d0        0x0 libx.a(if_elect1.o)
 .bss           0x001378d0        0x0 libx.a(db_init.o)
 .bss           0x001378d0        0x0 libx.a(db_resync.o)
 .bss           0x001378d0        0x0 libx.a(arp_in.o)
 .bss           0x001378d0        0x0 libx.a(arpadd.o)
 .bss           0x001378d0        0x4 libx.a(arpalloc.o)
 .bss           0x001378d4        0x0 libx.a(arpdq.o)
 .bss           0x001378d4        0x0 libx.a(arpfind.o)
 .bss           0x001378d4        0x0 libx.a(arpqsend.o)
 .bss           0x001378d4        0x0 libx.a(arpsend.o)
 .bss           0x001378d4        0x4 libx.a(kbmiin.o)
 .bss           0x001378d8        0x4 libx.a(kbscan.o)
 .bss           0x001378dc        0x0 libx.a(dgalloc.o)
 .bss           0x001378dc        0x0 libx.a(icerrok.o)
 .bss           0x001378dc        0x4 libx.a(hgadd.o)
 .bss           0x001378e0        0x0 libx.a(hgarpadd.o)
 .bss           0x001378e0        0x0 libx.a(ip_in.o)
 .bss           0x001378e0        0x0 libx.a(ipdbc.o)
 .bss           0x001378e0        0x0 libx.a(ipfadd.o)
 .bss           0x001378e0        0x0 libx.a(ipfhcopy.o)
 .bss           0x001378e0        0x0 libx.a(ipfjoin.o)
 .bss           0x001378e0        0x0 libx.a(ipfsend.o)
 .bss           0x001378e0        0x4 libx.a(ipgetp.o)
 .bss           0x001378e4        0x0 libx.a(iph2net.o)
 .bss           0x001378e4        0x0 libx.a(ipnet2h.o)
 .bss           0x001378e4        0x0 libx.a(isbrc.o)
 .bss           0x001378e4        0x0 libx.a(ripadd.o)
 .bss           0x001378e4        0x0 libx.a(ripcheck.o)
 .bss           0x001378e4        0x0 libx.a(ripifset.o)
 .bss           0x001378e4        0x0 libx.a(ripmetric.o)
 .bss           0x001378e4        0x0 libx.a(ripok.o)
 .bss           0x001378e4        0x0 libx.a(ripstart.o)
 .bss           0x001378e4        0x0 libx.a(local_out.o)
 .bss           0x001378e4        0x0 libx.a(rfalloc.o)
 .bss           0x001378e4        0x0 libx.a(rfio.o)
 .bss           0x001378e4        0x0 libx.a(a1rwlen.o)
 .bss           0x001378e4        0x0 libx.a(a1rwoid.o)
 .bss           0x001378e4        0x0 libx.a(a1rwval.o)
 .bss           0x001378e4        0x0 libx.a(sae_get.o)
 .bss           0x001378e4        0x0 libx.a(sae_getf.o)
 .bss           0x001378e4        0x0 libx.a(sae_getn.o)
 .bss           0x001378e4        0x0 libx.a(sae_match.o)
 .bss           0x001378e4        0x0 libx.a(sae_set.o)
 .bss           0x001378e4        0x0 libx.a(sat_get.o)
 .bss           0x001378e4        0x0 libx.a(sat_getf.o)
 .bss           0x001378e4        0x0 libx.a(sat_getn.o)
 .bss           0x001378e4        0x0 libx.a(sat_match.o)
 .bss           0x001378e4        0x0 libx.a(sat_set.o)
 .bss           0x001378e4        0x0 libx.a(sif_get.o)
 .bss           0x001378e4        0x0 libx.a(sif_getf.o)
 .bss           0x001378e4        0x0 libx.a(sif_getn.o)
 .bss           0x001378e4        0x0 libx.a(sif_match.o)
 .bss           0x001378e4        0x0 libx.a(sif_set.o)
 .bss           0x001378e4        0x0 libx.a(snleaf.o)
 .bss           0x001378e4        0x0 libx.a(snoip.o)
 .bss           0x001378e4        0x0 libx.a(srt_findn.o)
 .bss           0x001378e4        0x0 libx.a(stc_findn.o)
 .bss           0x001378e4        0x0 libx.a(receive.o)
 .bss           0x001378e4        0x0 libx.a(tcp_in.o)
 .bss           0x001378e4        0x0 libx.a(tcprmss.o)
 .bss           0x001378e4        0x0 libx.a(ttyalloc.o)
 .bss           0x001378e4        0x0 libx.a(udph2net.o)
 .bss           0x001378e4        0x0 libx.a(ospf_hsend.o)
 .bss           0x001378e4        0x0 libx.a(ospf_in.o)
 .bss           0x001378e4        0x0 libx.a(ospfhtmpl.o)
 .bss           0x001378e4        0x0 libx.a(db_nlink.o)
 .bss           0x001378e4        0x0 libx.a(icmp_in.o)
 .bss           0x001378e4        0x0 libx.a(icredirect.o)
 .bss           0x001378e4        0x0 libx.a(igmp_in.o)
 .bss           0x001378e4        0x0 libx.a(igmp_settimers.o)
 .bss           0x001378e4        0x0 libx.a(ipdstopts.o)
 .bss           0x001378e4        0x0 libx.a(ipfcons.o)
 .bss           0x001378e4        0x0 libx.a(a1rwint.o)
 .bss           0x001378e4        0x0 libx.a(sae_findn.o)
 .bss           0x001378e4        0x0 libx.a(sat_findn.o)
 .bss           0x001378e4        0x0 libx.a(db_update.o)
 .bss           0x001378e4        0x0 libx.a(db_new.o)
 *fill*         0x001378e4       0x1c 00
 .bss           0x00137900      0x204 sh.o
 .bss           0x00137b04        0x0 ../sys/arch/x86/clkint.o
 .bss           0x00137b04        0x0 ../sys/arch/x86/ctxsw.o
 .bss           0x00137b04        0x0 ../lib/libxc/libxc.a(atoi.o)
 .bss           0x00137b04        0x0 ../lib/libxc/libxc.a(ctype_.o)
 .bss           0x00137b04        0x0 ../lib/libxc/libxc.a(doprnt.o)
 .bss           0x00137b04        0x0 ../lib/libxc/libxc.a(memcmp.o)
 .bss           0x00137b04        0x0 ../lib/libxc/libxc.a(memset.o)
 .bss           0x00137b04        0x0 ../lib/libxc/libxc.a(fprintf.o)
 .bss           0x00137b04        0x0 ../lib/libxc/libxc.a(index.o)
 .bss           0x00137b04        0x0 ../lib/libxc/libxc.a(printf.o)
 .bss           0x00137b04        0x8 ../lib/libxc/libxc.a(qsort.o)
 .bss           0x00137b0c        0x0 ../lib/libxc/libxc.a(rindex.o)
 .bss           0x00137b0c        0x0 ../lib/libxc/libxc.a(sprintf.o)
 .bss           0x00137b0c        0x0 ../lib/libxc/libxc.a(strcat.o)
 .bss           0x00137b0c        0x0 ../lib/libxc/libxc.a(strcmp.o)
 .bss           0x00137b0c        0x0 ../lib/libxc/libxc.a(strcpy.o)
 .bss           0x00137b0c        0x0 ../lib/libxc/libxc.a(strlen.o)
 .bss           0x00137b0c        0x0 ../lib/libxc/libxc.a(strncat.o)
 .bss           0x00137b0c        0x0 ../lib/libxc/libxc.a(strncmp.o)
 .bss           0x00137b0c        0x0 ../lib/libxc/libxc.a(strncpy.o)
 .bss           0x00137b0c        0x0 libx.a(arpprint.o)
 .bss           0x00137b0c        0x0 libx.a(hgleave.o)
 .bss           0x00137b0c        0x0 libx.a(name2ip.o)
 .bss           0x00137b0c        0x0 libx.a(unmount.o)
 .bss           0x00137b0c        0x0 libx.a(snclient.o)
 .bss           0x00137b0c        0x0 libx.a(snerr.o)
 .bss           0x00137b0c        0x0 libx.a(snprint.o)
 .bss           0x00137b0c        0x0 libx.a(getc.o)
 .bss           0x00137b0c        0x0 libx.a(putc.o)
 .bss           0x00137b0c        0x0 libx.a(remove.o)
 .bss           0x00137b0c        0x0 libx.a(rename.o)
 .bss           0x00137b0c        0x0 libx.a(setdev.o)
 .bss           0x00137b0c        0x0 libx.a(setnok.o)
 .bss           0x00137b0c        0x0 libx.a(wakeup.o)
 .bss           0x00137b0c        0x0 libx.a(getuid.o)
 .bss           0x00137b0c        0x0 libx.a(tqdump.o)
 .bss           0x00137b0c        0x0 libx.a(hgarpdel.o)
 *(COMMON)
 *fill*         0x00137b0c       0x14 00
 COMMON         0x00137b20     0x4d50 ../sys/initialize.o
                0x00137b20                sem
                0x00137b24                numproc
                0x00137b28                currpid
                0x00137b2c                ptid
                0x00137b40                proctab
                0x001399c0                semaph
                0x0013a640                nextsem
                0x0013a644                nextqueue
                0x0013a648                pid2
                0x0013a64c                lastpid
                0x0013a650                nextproc
                0x0013a654                maxaddr
                0x0013a660                vers
                0x0013a6e0                intmap
                0x0013a9e0                tty
                0x0013b300                rdytail
                0x0013b304                pid1
                0x0013b308                rdyhead
                0x0013b320                q
                0x0013c868                memlist
 *fill*         0x0013c870       0x10 00
 COMMON         0x0013c880      0x198 libx.a(netstart.o)
                0x0013c880                nif
                0x0013ca08                Net
 *fill*         0x0013ca18        0x8 00
 COMMON         0x0013ca20      0x5bc libx.a(sninit.o)
                0x0013ca20                snmpInBadCommunityUses
                0x0013ca24                snmpInGetNexts
                0x0013ca28                TcpEstabResets
                0x0013ca2c                snmpOutGenErrs
                0x0013ca30                IcmpInEchos
                0x0013ca34                IcmpInMsgs
                0x0013ca38                snmpInTooBigs
                0x0013ca3c                IcmpInTimeExcds
                0x0013ca40                IpOutRequests
                0x0013ca44                IpReasmFails
                0x0013ca60                SysDescr
                0x0013cb60                IcmpOutEchoReps
                0x0013cb64                IcmpInSrcQuenchs
                0x0013cb68                snmpOutNoSuchNames
                0x0013cb6c                snmpInGetRequests
                0x0013cb70                IcmpInEchoReps
                0x0013cb74                UdpInErrors
                0x0013cb78                TcpCurrEstab
                0x0013cb7c                IfNumber
                0x0013cb80                IpReasmTimeout
                0x0013cb84                TcpAttemptFails
                0x0013cb88                TcpRtoMax
                0x0013cb8c                IpFragCreates
                0x0013cb90                snmpOutBadValues
                0x0013cb94                IcmpInDestUnreachs
                0x0013cb98                snmpOutGetNexts
                0x0013cb9c                IcmpOutAddrMaskReps
                0x0013cba0                snmpOutGetRequests
                0x0013cba4                UdpOutDatagrams
                0x0013cba8                TcpRetransSegs
                0x0013cbc0                SysName
                0x0013ccc0                snmpInPkts
                0x0013ccc4                TcpInSegs
                0x0013ccc8                snmpOutPkts
                0x0013cccc                IcmpOutMsgs
                0x0013ccd0                IcmpOutAddrMasks
                0x0013ccd4                IpFragOKs
                0x0013ccd8                snmpInTotalSetVars
                0x0013ccdc                snmpInBadCommunityNames
                0x0013cce0                IcmpOutEchos
                0x0013cce4                IcmpOutSrcQuenchs
                0x0013cce8                snmpInASNParseErrs
                0x0013ccec                IpOutNoRoutes
                0x0013ccf0                snmpEnableAuthenTraps
                0x0013ccf4                IcmpInAddrMasks
                0x0013ccf8                IcmpInErrors
                0x0013ccfc                SysServices
                0x0013cd00                snmpOutTooBigs
                0x0013cd04                IcmpOutErrors
                0x0013cd08                snmpOutTraps
                0x0013cd0c                IpRoutingDiscards
                0x0013cd10                TcpPassiveOpens
                0x0013cd14                SysUpTime
                0x0013cd18                snmpInReadOnlys
                0x0013cd1c                IcmpInTimestampReps
                0x0013cd20                snmpInNoSuchNames
                0x0013cd24                IpReasmReqds
                0x0013cd28                TcpOutRsts
                0x0013cd2c                IpInReceives
                0x0013cd30                IcmpOutTimeExcds
                0x0013cd34                UdpNoPorts
                0x0013cd38                IpForwDatagrams
                0x0013cd40                SysContact
                0x0013ce40                TcpRtoAlgorithm
                0x0013ce44                TcpRtoMin
                0x0013ce48                snmpInBadValues
                0x0013ce4c                TcpActiveOpens
                0x0013ce60                SysLocation
                0x0013cf60                IpInHdrErrors
                0x0013cf64                IcmpInAddrMaskReps
                0x0013cf68                IcmpOutRedirects
                0x0013cf6c                IpFragFails
                0x0013cf70                UdpInDatagrams
                0x0013cf74                IpForwarding
                0x0013cf78                snmpInGetResponses
                0x0013cf7c                snmpInGenErrs
                0x0013cf80                IcmpInRedirects
                0x0013cf84                IpReasmOKs
                0x0013cf88                TcpOutSegs
                0x0013cf8c                IcmpOutTimestampReps
                0x0013cf90                snmpInTotalReqVars
                0x0013cf94                IcmpInTimestamps
                0x0013cf98                IpInAddrErrors
                0x0013cf9c                IcmpOutDestUnreachs
                0x0013cfa0                snmpOutSetRequests
                0x0013cfa4                IpInDiscards
                0x0013cfa8                TcpMaxConn
                0x0013cfac                snmpInSetRequests
                0x0013cfb0                IpInDelivers
                0x0013cfb4                IcmpInParmProbs
                0x0013cfb8                snmpInBadVersions
                0x0013cfbc                TcpInErrs
                0x0013cfc0                IcmpOutParmProbs
                0x0013cfc4                IpOutDiscards
                0x0013cfc8                snmpOutGetResponses
                0x0013cfcc                snmpInTraps
                0x0013cfd0                IpDefaultTTL
                0x0013cfd4                IcmpOutTimestamps
                0x0013cfd8                IpInUnknownProtos
 COMMON         0x0013cfdc       0x30 libx.a(clkinit.o)
                0x0013cfdc                clockq
                0x0013cfe0                sltop
                0x0013cfe4                count6
                0x0013cfe8                defclk
                0x0013cfec                preempt
                0x0013cff0                ctr100
                0x0013cff4                slnempty
                0x0013cff8                clktime
                0x0013cffc                clmutex
                0x0013d000                count10
                0x0013d004                clkdiff
                0x0013d008                clkruns
 COMMON         0x0013d00c        0x2 libx.a(evec.o)
                0x0013d00c                girmask
 *fill*         0x0013d00e       0x12 00
 COMMON         0x0013d020       0x58 libx.a(mark.o)
                0x0013d020                marks
                0x0013d070                nmarks
                0x0013d074                mkmutex
 *fill*         0x0013d078        0x8 00
 COMMON         0x0013d080      0x3bc libx.a(naminit.o)
                0x0013d080                Nam
 COMMON         0x0013d43c        0x4 libx.a(resched.o)
                0x0013d43c                currSP
 COMMON         0x0013d440        0xc libx.a(screate.o)
                0x0013d440                sema_stat
 COMMON         0x0013d44c        0x4 libx.a(i386.o)
                0x0013d44c                initsp
 *fill*         0x0013d450       0x10 00
 COMMON         0x0013d460      0xc40 libx.a(tcpinit.o)
                0x0013d460                tcbtab
 COMMON         0x0013e0a0       0x10 libx.a(tcpinp.o)
                0x0013e0a0                tcps_tmutex
                0x0013e0a4                tcps_iport
                0x0013e0a8                tcps_oport
                0x0013e0ac                tcps_lqsize
 COMMON         0x0013e0b0        0xc libx.a(tcptimer.o)
                0x0013e0b0                tqmutex
                0x0013e0b4                tqhead
                0x0013e0b8                tqpid
 *fill*         0x0013e0bc        0x4 00
 COMMON         0x0013e0c0      0x920 libx.a(ttyinit.o)
                0x0013e0c0                ttytab
 COMMON         0x0013e9e0        0x4 libx.a(udp_in.o)
                0x0013e9e0                udpmutex
 *fill*         0x0013e9e4       0x1c 00
 COMMON         0x0013ea00       0xc0 libx.a(upalloc.o)
                0x0013ea00                upqs
 COMMON         0x0013eac0        0x4 libx.a(ospf.o)
                0x0013eac0                ospf_iport
 *fill*         0x0013eac4       0x1c 00
 COMMON         0x0013eae0       0x3c libx.a(ue_init.o)
                0x0013eae0                ue
 *fill*         0x0013eb1c        0x4 00
 COMMON         0x0013eb20      0x72c libx.a(arpinit.o)
                0x0013eb20                rarppid
                0x0013eb40                arptable
                0x0013f248                rarpsem
 *fill*         0x0013f24c       0x14 00
 COMMON         0x0013f260       0x28 libx.a(cominit.o)
                0x0013f260                comtab
 *fill*         0x0013f288       0x18 00
 COMMON         0x0013f2a0      0x248 libx.a(kbminit.o)
                0x0013f2a0                kbmtty
 *fill*         0x0013f4e8       0x18 00
 COMMON         0x0013f500      0x260 libx.a(dginit.o)
                0x0013f500                dgmutex
                0x0013f520                dgtab
 COMMON         0x0013f760       0xfc libx.a(hginit.o)
                0x0013f760                hgtable
                0x0013f850                HostGroup
 COMMON         0x0013f85c        0x4 libx.a(hgrand.o)
                0x0013f85c                hgseed
 COMMON         0x0013f860        0xc libx.a(ipproc.o)
                0x0013f860                bsdbrc
                0x0013f864                ippid
                0x0013f868                gateway
 *fill*         0x0013f86c       0x14 00
 COMMON         0x0013f880       0xe8 libx.a(ipreass.o)
                0x0013f880                ipfmutex
                0x0013f8a0                ipfqt
 *fill*         0x0013f968       0x18 00
 COMMON         0x0013f980      0x810 libx.a(rtinit.o)
                0x0013f980                rttable
                0x00140180                Route
 COMMON         0x00140190        0x4 libx.a(ripin.o)
                0x00140190                riplock
 *fill*         0x00140194        0xc 00
 COMMON         0x001401a0      0xe1c libx.a(rwho.o)
                0x001401a0                Rwho
 *fill*         0x00140fbc        0x4 00
 COMMON         0x00140fc0      0x198 libx.a(rfinit.o)
                0x00140fc0                Rf
 *fill*         0x00141158        0x8 00
 COMMON         0x00141160     0x1fcc libx.a(mksnmp.o)
                0x00141160                snmpbuff
 *fill*         0x0014312c       0x14 00
 COMMON         0x00143140      0x194 libx.a(snhash.o)
                0x00143140                snhtab
 *fill*         0x001432d4        0xc 00
 COMMON         0x001432e0      0xafc libx.a(pinit.o)
                0x001432e0                ports
                0x00143dd0                ptmark
                0x00143dd4                ptnextp
                0x00143dd8                ptfree
 *fill*         0x00143ddc        0x4 00
 COMMON         0x00143de0       0x6c libx.a(poolinit.o)
                0x00143de0                bptab
                0x00143e44                bpmark
                0x00143e48                nbpools
 *fill*         0x00143e4c       0x14 00
 COMMON         0x00143e60     0x10f8 libx.a(ospfifinit.o)
                0x00143e60                ospf_if
 *fill*         0x00144f58        0x8 00
 COMMON         0x00144f60       0x28 libx.a(ospfinit.o)
                0x00144f60                ospf_ar
                0x00144f84                ospf_lspool
 *fill*         0x00144f88       0x18 00
 COMMON         0x00144fa0     0x1a18 sh.o
                0x00144fa0                next_completion
                0x00144fc0                Shl
                0x00145110                num_completions
                0x00145120                completions
                0x00146120                str2compl
                0x00146520                s2clen
                0x00146540                buf
                0x00146940                str
                0x001469b8                . = ALIGN (0x4)
                0x001469b8                . = ALIGN (0x4)
                0x001469b8                _end = .
                0x001469b8                PROVIDE (end, .)

.stab           0x00000000    0x707ac
 *(.stab)
 .stab          0x00000000     0x10a4 ../sys/initialize.o
 .stab          0x000010a4      0x48c user.o
                                0xaf8 (size before relaxing)
 .stab          0x00001530      0x3f0 libx.a(getutim.o)
                                0xa98 (size before relaxing)
 .stab          0x00001920      0x81c libx.a(netstart.o)
                                0xef4 (size before relaxing)
 .stab          0x0000213c      0x3fc libx.a(setmask.o)
                                0xaa4 (size before relaxing)
 .stab          0x00002538      0x384 libx.a(slowtimer.o)
                                0xa5c (size before relaxing)
 .stab          0x000028bc      0x810 libx.a(sninit.o)
                                0xf18 (size before relaxing)
 .stab          0x000030cc      0x48c libx.a(clkinit.o)
                                0x540 (size before relaxing)
 .stab          0x00003558      0x1d4 libx.a(close.o)
                                0x27c (size before relaxing)
 .stab          0x0000372c      0x120 libx.a(conf.o)
                                0x144 (size before relaxing)
 .stab          0x0000384c      0x264 libx.a(control.o)
                                0x30c (size before relaxing)
 .stab          0x00003ab0      0x840 libx.a(create.o)
                                0x984 (size before relaxing)
 .stab          0x000042f0      0x960 libx.a(evec.o)
                                0xac8 (size before relaxing)
 .stab          0x00004c50      0x2e8 libx.a(getstk.o)
                                0x384 (size before relaxing)
 .stab          0x00004f38      0x1d4 libx.a(gettime.o)
                                0x270 (size before relaxing)
 .stab          0x0000510c      0xaec libx.a(gpq.o)
                                0xb88 (size before relaxing)
 .stab          0x00005bf8      0x1d4 libx.a(init.o)
                                0x27c (size before relaxing)
 .stab          0x00005dcc      0x168 libx.a(ioerr.o)
                                0x1ec (size before relaxing)
 .stab          0x00005f34      0x180 libx.a(ionull.o)
                                0x204 (size before relaxing)
 .stab          0x000060b4      0x228 libx.a(kprintf.o)
                                0x2e8 (size before relaxing)
 .stab          0x000062dc      0x1a4 libx.a(kputc.o)
                                0x24c (size before relaxing)
 .stab          0x00006480      0x27c libx.a(mark.o)
                                0x300 (size before relaxing)
 .stab          0x000066fc      0x24c libx.a(naminit.o)
                                0x2d0 (size before relaxing)
 .stab          0x00006948      0x228 libx.a(namopen.o)
                                0x2d0 (size before relaxing)
 .stab          0x00006b70      0x228 libx.a(newqueue.o)
                                0x2c4 (size before relaxing)
 .stab          0x00006d98      0x21c libx.a(open.o)
                                0x2c4 (size before relaxing)
 .stab          0x00006fb4      0x240 libx.a(panic.o)
                                0x318 (size before relaxing)
 .stab          0x000071f4      0x1ec libx.a(read.o)
                                0x294 (size before relaxing)
 .stab          0x000073e0      0x288 libx.a(recvtim.o)
                                0x33c (size before relaxing)
 .stab          0x00007668      0x360 libx.a(resched.o)
                                0x414 (size before relaxing)
 .stab          0x000079c8      0x21c libx.a(resume.o)
                                0x2b8 (size before relaxing)
 .stab          0x00007be4      0x33c libx.a(screate.o)
                                0x414 (size before relaxing)
 .stab          0x00007f20      0x288 libx.a(sdelete.o)
                                0x360 (size before relaxing)
 .stab          0x000081a8      0x228 libx.a(signal.o)
                                0x300 (size before relaxing)
 .stab          0x000083d0      0x24c libx.a(sleep.o)
                                0x300 (size before relaxing)
 .stab          0x0000861c      0x234 libx.a(sleep10.o)
                                0x2e8 (size before relaxing)
 .stab          0x00008850      0x174 libx.a(userret.o)
                                0x1f8 (size before relaxing)
 .stab          0x000089c4      0x258 libx.a(wait.o)
                                0x330 (size before relaxing)
 .stab          0x00008c1c      0x1ec libx.a(write.o)
                                0x294 (size before relaxing)
 .stab          0x00008e08      0x180 libx.a(noclose.o)
                                0x204 (size before relaxing)
 .stab          0x00008f88      0x1a4 libx.a(nocntl.o)
                                0x228 (size before relaxing)
 .stab          0x0000912c      0x180 libx.a(nogetc.o)
                                0x204 (size before relaxing)
 .stab          0x000092ac      0x198 libx.a(noopen.o)
                                0x21c (size before relaxing)
 .stab          0x00009444      0x198 libx.a(noputc.o)
                                0x21c (size before relaxing)
 .stab          0x000095dc      0x198 libx.a(noread.o)
                                0x21c (size before relaxing)
 .stab          0x00009774      0x18c libx.a(noseek.o)
                                0x210 (size before relaxing)
 .stab          0x00009900      0x198 libx.a(nowrite.o)
                                0x21c (size before relaxing)
 .stab          0x00009a98      0x18c libx.a(noiint.o)
                                0x210 (size before relaxing)
 .stab          0x00009c24      0x174 libx.a(nooint.o)
                                0x1f8 (size before relaxing)
 .stab          0x00009d98      0x504 libx.a(i386.o)
                                0x540 (size before relaxing)
 .stab          0x0000a29c      0x3fc libx.a(tcpclose.o)
                                0xaa4 (size before relaxing)
 .stab          0x0000a698      0x420 libx.a(tcpcntl.o)
                                0xac8 (size before relaxing)
 .stab          0x0000aab8      0x33c libx.a(tcpgetc.o)
                                0x9fc (size before relaxing)
 .stab          0x0000adf4      0x354 libx.a(tcpinit.o)
                                0x9fc (size before relaxing)
 .stab          0x0000b148      0x324 libx.a(tcplq.o)
                                0x9f0 (size before relaxing)
 .stab          0x0000b46c      0x354 libx.a(tcpmcntl.o)
                                0x9fc (size before relaxing)
 .stab          0x0000b7c0      0x3e4 libx.a(tcpmopen.o)
                                0xaa4 (size before relaxing)
 .stab          0x0000bba4      0x2e8 libx.a(tcpputc.o)
                                0x9a8 (size before relaxing)
 .stab          0x0000be8c      0x450 libx.a(tcpread.o)
                                0xb10 (size before relaxing)
 .stab          0x0000c2dc      0x36c libx.a(tcpserver.o)
                                0xa38 (size before relaxing)
 .stab          0x0000c648      0x378 libx.a(tcpstat.o)
                                0xa20 (size before relaxing)
 .stab          0x0000c9c0      0x318 libx.a(tcpuopt.o)
                                0x9c0 (size before relaxing)
 .stab          0x0000ccd8      0x444 libx.a(tcpwr.o)
                                0xb04 (size before relaxing)
 .stab          0x0000d11c      0x2dc libx.a(tcpwrite.o)
                                0x984 (size before relaxing)
 .stab          0x0000d3f8      0x444 libx.a(tcpinp.o)
                                0xb10 (size before relaxing)
 .stab          0x0000d83c      0x348 libx.a(tcpkick.o)
                                0xa14 (size before relaxing)
 .stab          0x0000db84      0x30c libx.a(tcpnet2h.o)
                                0x9b4 (size before relaxing)
 .stab          0x0000de90      0x438 libx.a(tcpok.o)
                                0xae0 (size before relaxing)
 .stab          0x0000e2c8      0x408 libx.a(tcpopts.o)
                                0xab0 (size before relaxing)
 .stab          0x0000e6d0      0x36c libx.a(tcpout.o)
                                0xa38 (size before relaxing)
 .stab          0x0000ea3c      0x498 libx.a(tcpreset.o)
                                0xb40 (size before relaxing)
 .stab          0x0000eed4      0x3a8 libx.a(tcpsmss.o)
                                0xa50 (size before relaxing)
 .stab          0x0000f27c      0x2a0 libx.a(tcpswitch.o)
                                0x948 (size before relaxing)
 .stab          0x0000f51c      0x3cc libx.a(tcpsync.o)
                                0xa8c (size before relaxing)
 .stab          0x0000f8e8      0x4d4 libx.a(tcpsynrcvd.o)
                                0xba0 (size before relaxing)
 .stab          0x0000fdbc      0x42c libx.a(tcpsynsent.o)
                                0xad4 (size before relaxing)
 .stab          0x000101e8      0x378 libx.a(tcptimewait.o)
                                0xa20 (size before relaxing)
 .stab          0x00010560      0x30c libx.a(tcpwait.o)
                                0x9b4 (size before relaxing)
 .stab          0x0001086c      0x384 libx.a(tcpwakeup.o)
                                0xa2c (size before relaxing)
 .stab          0x00010bf0      0x498 libx.a(tcpxmit.o)
                                0xb40 (size before relaxing)
 .stab          0x00011088      0x444 libx.a(tcptimer.o)
                                0xb40 (size before relaxing)
 .stab          0x000114cc      0x3d8 libx.a(tmclear.o)
                                0xa98 (size before relaxing)
 .stab          0x000118a4      0x384 libx.a(tmleft.o)
                                0xa2c (size before relaxing)
 .stab          0x00011c28      0x474 libx.a(tmset.o)
                                0xb4c (size before relaxing)
 .stab          0x0001209c      0x384 libx.a(ttycntl.o)
                                0x42c (size before relaxing)
 .stab          0x00012420      0x1f8 libx.a(ttygetc.o)
                                0x2a0 (size before relaxing)
 .stab          0x00012618      0x954 libx.a(ttyiin.o)
                                0x9fc (size before relaxing)
 .stab          0x00012f6c      0x198 libx.a(ttyinit.o)
                                0x240 (size before relaxing)
 .stab          0x00013104      0x288 libx.a(ttyopen.o)
                                0x330 (size before relaxing)
 .stab          0x0001338c      0x1a4 libx.a(ttyputc.o)
                                0x24c (size before relaxing)
 .stab          0x00013530      0x2dc libx.a(ttyread.o)
                                0x384 (size before relaxing)
 .stab          0x0001380c      0x2ac libx.a(ttywrite.o)
                                0x354 (size before relaxing)
 .stab          0x00013ab8      0x18c libx.a(ttyoin.o)
                                0x234 (size before relaxing)
 .stab          0x00013c44      0x48c libx.a(udp_in.o)
                                0xb70 (size before relaxing)
 .stab          0x000140d0      0x3fc libx.a(udpcksum.o)
                                0xaa4 (size before relaxing)
 .stab          0x000144cc      0x2dc libx.a(udpnet2h.o)
                                0x984 (size before relaxing)
 .stab          0x000147a8      0x39c libx.a(upalloc.o)
                                0xa80 (size before relaxing)
 .stab          0x00014b44      0x498 libx.a(ospf.o)
                                0xc78 (size before relaxing)
 .stab          0x00014fdc      0x318 libx.a(ospfnet2h.o)
                                0xabc (size before relaxing)
 .stab          0x000152f4      0x4bc libx.a(ospftimer.o)
                                0xc60 (size before relaxing)
 .stab          0x000157b0      0x414 libx.a(ospf_ddin.o)
                                0xbb8 (size before relaxing)
 .stab          0x00015bc4      0x324 libx.a(nb_rexmt.o)
                                0xac8 (size before relaxing)
 .stab          0x00015ee8      0x318 libx.a(nb_makel.o)
                                0xabc (size before relaxing)
 .stab          0x00016200      0x444 libx.a(ddi_exstart.o)
                                0xbe8 (size before relaxing)
 .stab          0x00016644      0x498 libx.a(ddi_exchng.o)
                                0xc3c (size before relaxing)
 .stab          0x00016adc      0x528 libx.a(lsr_in.o)
                                0xccc (size before relaxing)
 .stab          0x00017004      0x360 libx.a(db_lookup.o)
                                0xb04 (size before relaxing)
 .stab          0x00017364      0x3cc libx.a(ddi_full.o)
                                0xb70 (size before relaxing)
 .stab          0x00017730      0x3a8 libx.a(lsa_add.o)
                                0xb4c (size before relaxing)
 .stab          0x00017ad8      0x39c libx.a(lsa_send.o)
                                0xb40 (size before relaxing)
 .stab          0x00017e74      0x3f0 libx.a(ospflstmpl.o)
                                0xb94 (size before relaxing)
 .stab          0x00018264      0x3e4 libx.a(lsu_in.o)
                                0xb88 (size before relaxing)
 .stab          0x00018648      0x3cc libx.a(lsack_in.o)
                                0xb70 (size before relaxing)
 .stab          0x00018a14      0x42c libx.a(lsr_queue.o)
                                0xbd0 (size before relaxing)
 .stab          0x00018e40      0x3d8 libx.a(lsr_add.o)
                                0xb7c (size before relaxing)
 .stab          0x00019218      0x474 libx.a(lsr_xmit.o)
                                0xc18 (size before relaxing)
 .stab          0x0001968c      0x3cc libx.a(ospflsrtmpl.o)
                                0xb70 (size before relaxing)
 .stab          0x00019a58      0x300 libx.a(lsr_check.o)
                                0xaa4 (size before relaxing)
 .stab          0x00019d58      0x534 libx.a(ue_intr.o)
                                0xbdc (size before relaxing)
 .stab          0x0001a28c      0x3f0 libx.a(ue_write.o)
                                0xa98 (size before relaxing)
 .stab          0x0001a67c      0xda4 libx.a(ue_init.o)
                               0x1494 (size before relaxing)
 .stab          0x0001b420      0x168 libx.a(ue_cntl.o)
                                0x1d4 (size before relaxing)
 .stab          0x0001b588      0x618 libx.a(ue_demux.o)
                                0xcd8 (size before relaxing)
 .stab          0x0001bba0      0x474 libx.a(ue_wstrt.o)
                                0xb34 (size before relaxing)
 .stab          0x0001c014      0x534 libx.a(conio.o)
                                0x540 (size before relaxing)
 .stab          0x0001c548      0x33c libx.a(arpinit.o)
                                0x9fc (size before relaxing)
 .stab          0x0001c884      0x39c libx.a(arptimer.o)
                                0xa44 (size before relaxing)
 .stab          0x0001cc20      0x1bc libx.a(comcntl.o)
                                0x240 (size before relaxing)
 .stab          0x0001cddc      0x204 libx.a(comgetc.o)
                                0x2ac (size before relaxing)
 .stab          0x0001cfe0      0x2d0 libx.a(cominit.o)
                                0x39c (size before relaxing)
 .stab          0x0001d2b0      0x54c libx.a(comoutput.o)
                                0x630 (size before relaxing)
 .stab          0x0001d7fc      0x27c libx.a(comintr.o)
                                0x360 (size before relaxing)
 .stab          0x0001da78      0x1a4 libx.a(kbmcntl.o)
                                0x228 (size before relaxing)
 .stab          0x0001dc1c      0x204 libx.a(kbmgetc.o)
                                0x2ac (size before relaxing)
 .stab          0x0001de20      0x1a4 libx.a(kbminit.o)
                                0x270 (size before relaxing)
 .stab          0x0001dfc4      0x4a4 libx.a(kbmoutput.o)
                                0x570 (size before relaxing)
 .stab          0x0001e468      0x378 libx.a(dgclose.o)
                                0xa5c (size before relaxing)
 .stab          0x0001e7e0      0x390 libx.a(dgcntl.o)
                                0xa5c (size before relaxing)
 .stab          0x0001eb70      0x330 libx.a(dginit.o)
                                0x9d8 (size before relaxing)
 .stab          0x0001eea0      0x318 libx.a(dgmcntl.o)
                                0x9c0 (size before relaxing)
 .stab          0x0001f1b8      0x498 libx.a(dgmopen.o)
                                0xb40 (size before relaxing)
 .stab          0x0001f650      0x4a4 libx.a(dgread.o)
                                0xb88 (size before relaxing)
 .stab          0x0001faf4      0x444 libx.a(dgwrite.o)
                                0xaec (size before relaxing)
 .stab          0x0001ff38      0x4c8 libx.a(icmp.o)
                                0xb70 (size before relaxing)
 .stab          0x00020400      0x4a4 libx.a(icsetbuf.o)
                                0xb4c (size before relaxing)
 .stab          0x000208a4      0x414 libx.a(icsetdata.o)
                                0xabc (size before relaxing)
 .stab          0x00020cb8      0x330 libx.a(icsetsrc.o)
                                0x9d8 (size before relaxing)
 .stab          0x00020fe8      0x3a8 libx.a(hginit.o)
                                0xa68 (size before relaxing)
 .stab          0x00021390      0x3fc libx.a(hgjoin.o)
                                0xad4 (size before relaxing)
 .stab          0x0002178c      0x3c0 libx.a(igmp.o)
                                0xa98 (size before relaxing)
 .stab          0x00021b4c      0x354 libx.a(hglookup.o)
                                0xa2c (size before relaxing)
 .stab          0x00021ea0      0x330 libx.a(igmp_update.o)
                                0xa2c (size before relaxing)
 .stab          0x000221d0      0x33c libx.a(hgrand.o)
                                0xa14 (size before relaxing)
 .stab          0x0002250c      0x300 libx.a(ipfinit.o)
                                0x9a8 (size before relaxing)
 .stab          0x0002280c      0x3fc libx.a(ipftimer.o)
                                0xaa4 (size before relaxing)
 .stab          0x00022c08      0x558 libx.a(ipproc.o)
                                0xc00 (size before relaxing)
 .stab          0x00023160      0x534 libx.a(ipputp.o)
                                0xbdc (size before relaxing)
 .stab          0x00023694      0x4f8 libx.a(ipreass.o)
                                0xba0 (size before relaxing)
 .stab          0x00023b8c      0x3b4 libx.a(ipredirect.o)
                                0xa5c (size before relaxing)
 .stab          0x00023f40      0x450 libx.a(ipsend.o)
                                0xb10 (size before relaxing)
 .stab          0x00024390      0x60c libx.a(rtadd.o)
                                0xccc (size before relaxing)
 .stab          0x0002499c      0x420 libx.a(rtdel.o)
                                0xac8 (size before relaxing)
 .stab          0x00024dbc      0x300 libx.a(rtfree.o)
                                0x9a8 (size before relaxing)
 .stab          0x000250bc      0x3d8 libx.a(rtget.o)
                                0xa80 (size before relaxing)
 .stab          0x00025494      0x360 libx.a(rthash.o)
                                0xa08 (size before relaxing)
 .stab          0x000257f4      0x33c libx.a(rtinit.o)
                                0x9e4 (size before relaxing)
 .stab          0x00025b30      0x3c0 libx.a(rtnew.o)
                                0xa68 (size before relaxing)
 .stab          0x00025ef0      0x4a4 libx.a(rttimer.o)
                                0xb64 (size before relaxing)
 .stab          0x00026394      0x414 libx.a(echod.o)
                                0xad4 (size before relaxing)
 .stab          0x000267a8      0x450 libx.a(fingerd.o)
                                0xb10 (size before relaxing)
 .stab          0x00026bf8      0x5e8 libx.a(lfing.o)
                                0xcc0 (size before relaxing)
 .stab          0x000271e0      0x3cc libx.a(ripin.o)
                                0xa8c (size before relaxing)
 .stab          0x000275ac      0x348 libx.a(ripout.o)
                                0xa08 (size before relaxing)
 .stab          0x000278f4      0x414 libx.a(riprecv.o)
                                0xabc (size before relaxing)
 .stab          0x00027d08      0x450 libx.a(riprepl.o)
                                0xaf8 (size before relaxing)
 .stab          0x00028158      0x408 libx.a(ripsend.o)
                                0xab0 (size before relaxing)
 .stab          0x00028560      0x324 libx.a(rwho.o)
                                0x9e4 (size before relaxing)
 .stab          0x00028884      0x63c libx.a(rwhod.o)
                                0xd38 (size before relaxing)
 .stab          0x00028ec0      0x444 libx.a(rwhoind.o)
                                0xb40 (size before relaxing)
 .stab          0x00029304      0x5ac libx.a(snmpd.o)
                                0xccc (size before relaxing)
 .stab          0x000298b0      0x324 libx.a(udpecho.o)
                                0x9cc (size before relaxing)
 .stab          0x00029bd4      0x3b4 libx.a(dnparse.o)
                                0xa5c (size before relaxing)
 .stab          0x00029f88      0x354 libx.a(dot2ip.o)
                                0x9fc (size before relaxing)
 .stab          0x0002a2dc      0x354 libx.a(getiaddr.o)
                                0x9fc (size before relaxing)
 .stab          0x0002a630      0x408 libx.a(getname.o)
                                0xab0 (size before relaxing)
 .stab          0x0002aa38      0x648 libx.a(initgate.o)
                                0xc18 (size before relaxing)
 .stab          0x0002b080      0x3cc libx.a(inithost.o)
                                0xa74 (size before relaxing)
 .stab          0x0002b44c      0x360 libx.a(ip2dot.o)
                                0xa08 (size before relaxing)
 .stab          0x0002b7ac      0x570 libx.a(ip2name.o)
                                0xc30 (size before relaxing)
 .stab          0x0002bd1c      0x36c libx.a(netmask.o)
                                0xa14 (size before relaxing)
 .stab          0x0002c088      0x330 libx.a(netmatch.o)
                                0x9d8 (size before relaxing)
 .stab          0x0002c3b8      0x318 libx.a(netnum.o)
                                0x9c0 (size before relaxing)
 .stab          0x0002c6d0      0x4f8 libx.a(netwrite.o)
                                0xc9c (size before relaxing)
 .stab          0x0002cbc8      0x3cc libx.a(ni_in.o)
                                0xb70 (size before relaxing)
 .stab          0x0002cf94      0x468 libx.a(rarp_in.o)
                                0xb28 (size before relaxing)
 .stab          0x0002d3fc      0x5ac libx.a(rarpsend.o)
                                0xc6c (size before relaxing)
 .stab          0x0002d9a8      0x354 libx.a(ethmcast.o)
                                0x9fc (size before relaxing)
 .stab          0x0002dcfc      0x330 libx.a(mount.o)
                                0x3d8 (size before relaxing)
 .stab          0x0002e02c      0x354 libx.a(rfclose.o)
                                0x9fc (size before relaxing)
 .stab          0x0002e380      0x378 libx.a(rfcntl.o)
                                0xa20 (size before relaxing)
 .stab          0x0002e6f8      0x324 libx.a(rfgetc.o)
                                0x9cc (size before relaxing)
 .stab          0x0002ea1c      0x234 libx.a(rfinit.o)
                                0x324 (size before relaxing)
 .stab          0x0002ec50      0x480 libx.a(rfmkpac.o)
                                0xb28 (size before relaxing)
 .stab          0x0002f0d0      0x468 libx.a(rfopen.o)
                                0xb10 (size before relaxing)
 .stab          0x0002f538      0x324 libx.a(rfputc.o)
                                0x9cc (size before relaxing)
 .stab          0x0002f85c      0x2dc libx.a(rfread.o)
                                0x984 (size before relaxing)
 .stab          0x0002fb38      0x204 libx.a(rfseek.o)
                                0x2f4 (size before relaxing)
 .stab          0x0002fd3c      0x3cc libx.a(rfsend.o)
                                0xa74 (size before relaxing)
 .stab          0x00030108      0x330 libx.a(rfwrite.o)
                                0x9d8 (size before relaxing)
 .stab          0x00030438      0x5d0 libx.a(mksnmp.o)
                                0xcd8 (size before relaxing)
 .stab          0x00030a08      0x444 libx.a(sna2b.o)
                                0xb4c (size before relaxing)
 .stab          0x00030e4c      0x3d8 libx.a(snb2a.o)
                                0xaf8 (size before relaxing)
 .stab          0x00031224      0x390 libx.a(snfreebl.o)
                                0xab0 (size before relaxing)
 .stab          0x000315b4      0x600 libx.a(snhash.o)
                                0xd20 (size before relaxing)
 .stab          0x00031bb4      0x2a0 libx.a(snmib.o)
                                0x9a8 (size before relaxing)
 .stab          0x00031e54      0x684 libx.a(snparse.o)
                                0xda4 (size before relaxing)
 .stab          0x000324d8      0x468 libx.a(snrslv.o)
                                0xb70 (size before relaxing)
 .stab          0x00032940      0x378 libx.a(sntable.o)
                                0xa80 (size before relaxing)
 .stab          0x00032cb8      0x528 libx.a(srt_get.o)
                                0xc30 (size before relaxing)
 .stab          0x000331e0      0x3b4 libx.a(srt_getf.o)
                                0xabc (size before relaxing)
 .stab          0x00033594      0x3cc libx.a(srt_getn.o)
                                0xad4 (size before relaxing)
 .stab          0x00033960      0x408 libx.a(srt_match.o)
                                0xb28 (size before relaxing)
 .stab          0x00033d68      0x450 libx.a(srt_set.o)
                                0xb58 (size before relaxing)
 .stab          0x000341b8      0x3c0 libx.a(stc_get.o)
                                0xac8 (size before relaxing)
 .stab          0x00034578      0x3d8 libx.a(stc_getf.o)
                                0xae0 (size before relaxing)
 .stab          0x00034950      0x3e4 libx.a(stc_getn.o)
                                0xaec (size before relaxing)
 .stab          0x00034d34      0x438 libx.a(stc_match.o)
                                0xb58 (size before relaxing)
 .stab          0x0003516c      0x390 libx.a(stc_set.o)
                                0xa98 (size before relaxing)
 .stab          0x000354fc      0x414 libx.a(snm_get.o)
                                0xb34 (size before relaxing)
 .stab          0x00035910      0x3e4 libx.a(snm_getf.o)
                                0xb04 (size before relaxing)
 .stab          0x00035cf4      0x3f0 libx.a(snm_getn.o)
                                0xaf8 (size before relaxing)
 .stab          0x000360e4      0x438 libx.a(snm_match.o)
                                0xb58 (size before relaxing)
 .stab          0x0003651c      0x474 libx.a(snm_set.o)
                                0xb7c (size before relaxing)
 .stab          0x00036990      0x3a8 libx.a(sud_get.o)
                                0xab0 (size before relaxing)
 .stab          0x00036d38      0x3cc libx.a(sud_getf.o)
                                0xad4 (size before relaxing)
 .stab          0x00037104      0x3f0 libx.a(sud_getn.o)
                                0xaf8 (size before relaxing)
 .stab          0x000374f4      0x3e4 libx.a(sud_match.o)
                                0xb04 (size before relaxing)
 .stab          0x000378d8      0x2f4 libx.a(sud_set.o)
                                0x9fc (size before relaxing)
 .stab          0x00037bcc      0x354 libx.a(sud_findn.o)
                                0xa5c (size before relaxing)
 .stab          0x00037f20      0x438 libx.a(snm_findn.o)
                                0xb40 (size before relaxing)
 .stab          0x00038358      0x1e0 libx.a(blkcopy.o)
                                0x24c (size before relaxing)
 .stab          0x00038538      0x270 libx.a(ckmode.o)
                                0x2f4 (size before relaxing)
 .stab          0x000387a8      0x258 libx.a(freebuf.o)
                                0x30c (size before relaxing)
 .stab          0x00038a00      0x2e8 libx.a(freemem.o)
                                0x384 (size before relaxing)
 .stab          0x00038ce8      0x3cc libx.a(getbuf.o)
                                0x480 (size before relaxing)
 .stab          0x000390b4      0x264 libx.a(getitem.o)
                                0x300 (size before relaxing)
 .stab          0x00039318      0x2c4 libx.a(getmem.o)
                                0x360 (size before relaxing)
 .stab          0x000395dc      0x180 libx.a(getpid.o)
                                0x21c (size before relaxing)
 .stab          0x0003975c      0x234 libx.a(insert.o)
                                0x2d0 (size before relaxing)
 .stab          0x00039990      0x24c libx.a(insertd.o)
                                0x2e8 (size before relaxing)
 .stab          0x00039bdc      0x300 libx.a(kill.o)
                                0x3fc (size before relaxing)
 .stab          0x00039edc      0x3f0 libx.a(stacktrace.o)
                                0x4a4 (size before relaxing)
 .stab          0x0003a2cc      0x2b8 libx.a(mkpool.o)
                                0x36c (size before relaxing)
 .stab          0x0003a584      0x228 libx.a(nammap.o)
                                0x2d0 (size before relaxing)
 .stab          0x0003a7ac      0x2a0 libx.a(namrepl.o)
                                0x348 (size before relaxing)
 .stab          0x0003aa4c      0x240 libx.a(pcount.o)
                                0x300 (size before relaxing)
 .stab          0x0003ac8c      0x2ac libx.a(pcreate.o)
                                0x36c (size before relaxing)
 .stab          0x0003af38      0x21c libx.a(pdelete.o)
                                0x2dc (size before relaxing)
 .stab          0x0003b154      0x27c libx.a(pinit.o)
                                0x33c (size before relaxing)
 .stab          0x0003b3d0      0x210 libx.a(poolinit.o)
                                0x2c4 (size before relaxing)
 .stab          0x0003b5e0      0x2b8 libx.a(preceive.o)
                                0x378 (size before relaxing)
 .stab          0x0003b898      0x21c libx.a(preset.o)
                                0x2dc (size before relaxing)
 .stab          0x0003bab4      0x2dc libx.a(psend.o)
                                0x39c (size before relaxing)
 .stab          0x0003bd90      0x27c libx.a(ptclear.o)
                                0x33c (size before relaxing)
 .stab          0x0003c00c      0x2b8 libx.a(queue.o)
                                0x354 (size before relaxing)
 .stab          0x0003c2c4      0x21c libx.a(ready.o)
                                0x2d0 (size before relaxing)
 .stab          0x0003c4e0      0x1f8 libx.a(recvclr.o)
                                0x294 (size before relaxing)
 .stab          0x0003c6d8      0x1a4 libx.a(scount.o)
                                0x24c (size before relaxing)
 .stab          0x0003c87c      0x258 libx.a(send.o)
                                0x2f4 (size before relaxing)
 .stab          0x0003cad4      0x27c libx.a(sreset.o)
                                0x354 (size before relaxing)
 .stab          0x0003cd50      0x24c libx.a(suspend.o)
                                0x2e8 (size before relaxing)
 .stab          0x0003cf9c      0x288 libx.a(unsleep.o)
                                0x33c (size before relaxing)
 .stab          0x0003d224      0x168 libx.a(xdone.o)
                                0x1d4 (size before relaxing)
 .stab          0x0003d38c      0x408 libx.a(syslog.o)
                                0xac8 (size before relaxing)
 .stab          0x0003d794      0x1e0 libx.a(getuser.o)
                                0x27c (size before relaxing)
 .stab          0x0003d974      0x354 libx.a(tcballoc.o)
                                0x9fc (size before relaxing)
 .stab          0x0003dcc8      0x39c libx.a(tcbdealloc.o)
                                0xa80 (size before relaxing)
 .stab          0x0003e064      0x3fc libx.a(tcpbind.o)
                                0xaa4 (size before relaxing)
 .stab          0x0003e460      0x444 libx.a(tcpcon.o)
                                0xaec (size before relaxing)
 .stab          0x0003e8a4      0x42c libx.a(tcpgetdata.o)
                                0xad4 (size before relaxing)
 .stab          0x0003ecd0      0x378 libx.a(tcpgetspace.o)
                                0xa38 (size before relaxing)
 .stab          0x0003f048      0x390 libx.a(tcpnxtp.o)
                                0xa38 (size before relaxing)
 .stab          0x0003f3d8      0x300 libx.a(tcpabort.o)
                                0x9a8 (size before relaxing)
 .stab          0x0003f6d8      0x4c8 libx.a(tcpacked.o)
                                0xb70 (size before relaxing)
 .stab          0x0003fba0      0x468 libx.a(tcpackit.o)
                                0xb10 (size before relaxing)
 .stab          0x00040008      0x3fc libx.a(tcpcksum.o)
                                0xaa4 (size before relaxing)
 .stab          0x00040404      0x2dc libx.a(tcpclosed.o)
                                0x984 (size before relaxing)
 .stab          0x000406e0      0x39c libx.a(tcpclosewait.o)
                                0xa44 (size before relaxing)
 .stab          0x00040a7c      0x390 libx.a(tcpclosing.o)
                                0xa38 (size before relaxing)
 .stab          0x00040e0c      0x528 libx.a(tcpdata.o)
                                0xbd0 (size before relaxing)
 .stab          0x00041334      0x3fc libx.a(tcpdemux.o)
                                0xaa4 (size before relaxing)
 .stab          0x00041730      0x408 libx.a(tcpdodat.o)
                                0xab0 (size before relaxing)
 .stab          0x00041b38      0x3cc libx.a(tcpestablished.o)
                                0xa74 (size before relaxing)
 .stab          0x00041f04      0x3f0 libx.a(tcpfin1.o)
                                0xa98 (size before relaxing)
 .stab          0x000422f4      0x39c libx.a(tcpfin2.o)
                                0xa44 (size before relaxing)
 .stab          0x00042690      0x30c libx.a(tcph2net.o)
                                0x9b4 (size before relaxing)
 .stab          0x0004299c      0x324 libx.a(tcphowmuch.o)
                                0x9cc (size before relaxing)
 .stab          0x00042cc0      0x2e8 libx.a(tcpidle.o)
                                0x990 (size before relaxing)
 .stab          0x00042fa8      0x30c libx.a(tcpiss.o)
                                0x9b4 (size before relaxing)
 .stab          0x000432b4      0x318 libx.a(tcpkilltimers.o)
                                0x9c0 (size before relaxing)
 .stab          0x000435cc      0x378 libx.a(tcplastack.o)
                                0xa20 (size before relaxing)
 .stab          0x00043944      0x420 libx.a(tcplisten.o)
                                0xac8 (size before relaxing)
 .stab          0x00043d64      0x33c libx.a(tcpostate.o)
                                0x9e4 (size before relaxing)
 .stab          0x000440a0      0x33c libx.a(tcppersist.o)
                                0x9e4 (size before relaxing)
 .stab          0x000443dc      0x39c libx.a(tcprexmt.o)
                                0xa44 (size before relaxing)
 .stab          0x00044778      0x3a8 libx.a(tcprtt.o)
                                0xa50 (size before relaxing)
 .stab          0x00044b20      0x33c libx.a(tcprwindow.o)
                                0x9e4 (size before relaxing)
 .stab          0x00044e5c      0x678 libx.a(tcpsend.o)
                                0xd20 (size before relaxing)
 .stab          0x000454d4      0x360 libx.a(tcpsndlen.o)
                                0xa08 (size before relaxing)
 .stab          0x00045834      0x3e4 libx.a(tcpswindow.o)
                                0xa8c (size before relaxing)
 .stab          0x00045c18      0x420 libx.a(tcpwinit.o)
                                0xac8 (size before relaxing)
 .stab          0x00046038      0x4c8 libx.a(tfcoalesce.o)
                                0xb88 (size before relaxing)
 .stab          0x00046500      0x378 libx.a(tfinsert.o)
                                0xa38 (size before relaxing)
 .stab          0x00046878      0x24c libx.a(ttynew.o)
                                0x2f4 (size before relaxing)
 .stab          0x00046ac4      0x384 libx.a(udpnxtp.o)
                                0xa2c (size before relaxing)
 .stab          0x00046e48      0x4f8 libx.a(udpsend.o)
                                0xbd0 (size before relaxing)
 .stab          0x00047340      0x4a4 libx.a(ospf_hin.o)
                                0xc48 (size before relaxing)
 .stab          0x000477e4      0x3f0 libx.a(ospfcheck.o)
                                0xbb8 (size before relaxing)
 .stab          0x00047bd4      0x480 libx.a(if_elect.o)
                                0xc24 (size before relaxing)
 .stab          0x00048054      0x408 libx.a(ospfhello.o)
                                0xbac (size before relaxing)
 .stab          0x0004845c      0x468 libx.a(ospfifinit.o)
                                0xc0c (size before relaxing)
 .stab          0x000488c4      0x3a8 libx.a(ospfinit.o)
                                0xb4c (size before relaxing)
 .stab          0x00048c6c      0x468 libx.a(nb_add.o)
                                0xc0c (size before relaxing)
 .stab          0x000490d4      0x468 libx.a(nb_switch.o)
                                0xc0c (size before relaxing)
 .stab          0x0004953c      0x3c0 libx.a(nb_reform.o)
                                0xb64 (size before relaxing)
 .stab          0x000498fc      0x354 libx.a(nb_aok.o)
                                0xaf8 (size before relaxing)
 .stab          0x00049c50      0x408 libx.a(dd_queue.o)
                                0xbac (size before relaxing)
 .stab          0x0004a058      0x4b0 libx.a(dd_xmit.o)
                                0xc54 (size before relaxing)
 .stab          0x0004a508      0x540 libx.a(lss_build.o)
                                0xce4 (size before relaxing)
 .stab          0x0004aa48      0x408 libx.a(ospfddtmpl.o)
                                0xbac (size before relaxing)
 .stab          0x0004ae50      0x3a8 libx.a(nb_clearl.o)
                                0xb4c (size before relaxing)
 .stab          0x0004b1f8      0x39c libx.a(nb_mismatch.o)
                                0xb40 (size before relaxing)
 .stab          0x0004b594      0x4b0 libx.a(if_elect1.o)
                                0xc54 (size before relaxing)
 .stab          0x0004ba44      0x378 libx.a(db_init.o)
                                0xb34 (size before relaxing)
 .stab          0x0004bdbc      0x378 libx.a(db_resync.o)
                                0xb1c (size before relaxing)
 .stab          0x0004c134      0x480 libx.a(arp_in.o)
                                0xb28 (size before relaxing)
 .stab          0x0004c5b4      0x378 libx.a(arpadd.o)
                                0xa20 (size before relaxing)
 .stab          0x0004c92c      0x378 libx.a(arpalloc.o)
                                0xa38 (size before relaxing)
 .stab          0x0004cca4      0x348 libx.a(arpdq.o)
                                0x9f0 (size before relaxing)
 .stab          0x0004cfec      0x360 libx.a(arpfind.o)
                                0xa08 (size before relaxing)
 .stab          0x0004d34c      0x330 libx.a(arpqsend.o)
                                0x9d8 (size before relaxing)
 .stab          0x0004d67c      0x3f0 libx.a(arpsend.o)
                                0xa98 (size before relaxing)
 .stab          0x0004da6c      0x234 libx.a(kbmiin.o)
                                0x300 (size before relaxing)
 .stab          0x0004dca0      0x420 libx.a(kbscan.o)
                                0x48c (size before relaxing)
 .stab          0x0004e0c0      0x354 libx.a(dgalloc.o)
                                0x9fc (size before relaxing)
 .stab          0x0004e414      0x360 libx.a(icerrok.o)
                                0xa08 (size before relaxing)
 .stab          0x0004e774      0x450 libx.a(hgadd.o)
                                0xb28 (size before relaxing)
 .stab          0x0004ebc4      0x414 libx.a(hgarpadd.o)
                                0xaec (size before relaxing)
 .stab          0x0004efd8      0x348 libx.a(ip_in.o)
                                0xa08 (size before relaxing)
 .stab          0x0004f320      0x3d8 libx.a(ipdbc.o)
                                0xa80 (size before relaxing)
 .stab          0x0004f6f8      0x3c0 libx.a(ipfadd.o)
                                0xa80 (size before relaxing)
 .stab          0x0004fab8      0x438 libx.a(ipfhcopy.o)
                                0xae0 (size before relaxing)
 .stab          0x0004fef0      0x3fc libx.a(ipfjoin.o)
                                0xabc (size before relaxing)
 .stab          0x000502ec      0x408 libx.a(ipfsend.o)
                                0xab0 (size before relaxing)
 .stab          0x000506f4      0x378 libx.a(ipgetp.o)
                                0xa38 (size before relaxing)
 .stab          0x00050a6c      0x2e8 libx.a(iph2net.o)
                                0x990 (size before relaxing)
 .stab          0x00050d54      0x2e8 libx.a(ipnet2h.o)
                                0x990 (size before relaxing)
 .stab          0x0005103c      0x330 libx.a(isbrc.o)
                                0x9d8 (size before relaxing)
 .stab          0x0005136c      0x438 libx.a(ripadd.o)
                                0xae0 (size before relaxing)
 .stab          0x000517a4      0x3e4 libx.a(ripcheck.o)
                                0xa8c (size before relaxing)
 .stab          0x00051b88      0x444 libx.a(ripifset.o)
                                0xaec (size before relaxing)
 .stab          0x00051fcc      0x300 libx.a(ripmetric.o)
                                0x9a8 (size before relaxing)
 .stab          0x000522cc      0x36c libx.a(ripok.o)
                                0xa14 (size before relaxing)
 .stab          0x00052638      0x3cc libx.a(ripstart.o)
                                0xa74 (size before relaxing)
 .stab          0x00052a04      0x3fc libx.a(local_out.o)
                                0xabc (size before relaxing)
 .stab          0x00052e00      0x21c libx.a(rfalloc.o)
                                0x2e8 (size before relaxing)
 .stab          0x0005301c      0x36c libx.a(rfio.o)
                                0xa14 (size before relaxing)
 .stab          0x00053388      0x450 libx.a(a1rwlen.o)
                                0xb58 (size before relaxing)
 .stab          0x000537d8      0x51c libx.a(a1rwoid.o)
                                0xc24 (size before relaxing)
 .stab          0x00053cf4      0x4bc libx.a(a1rwval.o)
                                0xbdc (size before relaxing)
 .stab          0x000541b0      0x3f0 libx.a(sae_get.o)
                                0xaf8 (size before relaxing)
 .stab          0x000545a0      0x36c libx.a(sae_getf.o)
                                0xa74 (size before relaxing)
 .stab          0x0005490c      0x3a8 libx.a(sae_getn.o)
                                0xab0 (size before relaxing)
 .stab          0x00054cb4      0x3fc libx.a(sae_match.o)
                                0xb34 (size before relaxing)
 .stab          0x000550b0      0x2f4 libx.a(sae_set.o)
                                0x9fc (size before relaxing)
 .stab          0x000553a4      0x3d8 libx.a(sat_get.o)
                                0xaf8 (size before relaxing)
 .stab          0x0005577c      0x3e4 libx.a(sat_getf.o)
                                0xb04 (size before relaxing)
 .stab          0x00055b60      0x3f0 libx.a(sat_getn.o)
                                0xaf8 (size before relaxing)
 .stab          0x00055f50      0x438 libx.a(sat_match.o)
                                0xb58 (size before relaxing)
 .stab          0x00056388      0x42c libx.a(sat_set.o)
                                0xb34 (size before relaxing)
 .stab          0x000567b4      0x72c libx.a(sif_get.o)
                                0xe4c (size before relaxing)
 .stab          0x00056ee0      0x354 libx.a(sif_getf.o)
                                0xa5c (size before relaxing)
 .stab          0x00057234      0x3a8 libx.a(sif_getn.o)
                                0xab0 (size before relaxing)
 .stab          0x000575dc      0x3c0 libx.a(sif_match.o)
                                0xae0 (size before relaxing)
 .stab          0x0005799c      0x390 libx.a(sif_set.o)
                                0xa98 (size before relaxing)
 .stab          0x00057d2c      0x51c libx.a(snleaf.o)
                                0xc3c (size before relaxing)
 .stab          0x00058248      0x4c8 libx.a(snoip.o)
                                0xbd0 (size before relaxing)
 .stab          0x00058710      0x3a8 libx.a(srt_findn.o)
                                0xa50 (size before relaxing)
 .stab          0x00058ab8      0x438 libx.a(stc_findn.o)
                                0xb40 (size before relaxing)
 .stab          0x00058ef0      0x21c libx.a(receive.o)
                                0x2b8 (size before relaxing)
 .stab          0x0005910c      0x318 libx.a(tcp_in.o)
                                0x9e4 (size before relaxing)
 .stab          0x00059424      0x3a8 libx.a(tcprmss.o)
                                0xa50 (size before relaxing)
 .stab          0x000597cc      0x210 libx.a(ttyalloc.o)
                                0x2b8 (size before relaxing)
 .stab          0x000599dc      0x2dc libx.a(udph2net.o)
                                0x984 (size before relaxing)
 .stab          0x00059cb8      0x4c8 libx.a(ospf_hsend.o)
                                0xc6c (size before relaxing)
 .stab          0x0005a180      0x348 libx.a(ospf_in.o)
                                0xb10 (size before relaxing)
 .stab          0x0005a4c8      0x438 libx.a(ospfhtmpl.o)
                                0xbdc (size before relaxing)
 .stab          0x0005a900      0x468 libx.a(db_nlink.o)
                                0xc0c (size before relaxing)
 .stab          0x0005ad68      0x564 libx.a(icmp_in.o)
                                0xc24 (size before relaxing)
 .stab          0x0005b2cc      0x3cc libx.a(icredirect.o)
                                0xa74 (size before relaxing)
 .stab          0x0005b698      0x3f0 libx.a(igmp_in.o)
                                0xac8 (size before relaxing)
 .stab          0x0005ba88      0x378 libx.a(igmp_settimers.o)
                                0xa50 (size before relaxing)
 .stab          0x0005be00      0x390 libx.a(ipdstopts.o)
                                0xa38 (size before relaxing)
 .stab          0x0005c190      0x498 libx.a(ipfcons.o)
                                0xb40 (size before relaxing)
 .stab          0x0005c628      0x534 libx.a(a1rwint.o)
                                0xc3c (size before relaxing)
 .stab          0x0005cb5c      0x33c libx.a(sae_findn.o)
                                0x9e4 (size before relaxing)
 .stab          0x0005ce98      0x438 libx.a(sat_findn.o)
                                0xb40 (size before relaxing)
 .stab          0x0005d2d0      0x39c libx.a(db_update.o)
                                0xb40 (size before relaxing)
 .stab          0x0005d66c      0x36c libx.a(db_new.o)
                                0xb10 (size before relaxing)
 .stab          0x0005d9d8     0xc2d0 sh.o
                               0xcd2c (size before relaxing)
 .stab          0x00069ca8      0x1f8 ../lib/libxc/libxc.a(atoi.o)
                                0x204 (size before relaxing)
 .stab          0x00069ea0      0x114 ../lib/libxc/libxc.a(ctype_.o)
                                0x120 (size before relaxing)
 .stab          0x00069fb4      0xfa8 ../lib/libxc/libxc.a(doprnt.o)
                                0xfb4 (size before relaxing)
 .stab          0x0006af5c      0x228 ../lib/libxc/libxc.a(memcmp.o)
                                0x234 (size before relaxing)
 .stab          0x0006b184      0x198 ../lib/libxc/libxc.a(memset.o)
                                0x1a4 (size before relaxing)
 .stab          0x0006b31c      0x18c ../lib/libxc/libxc.a(fprintf.o)
                                0x198 (size before relaxing)
 .stab          0x0006b4a8      0x1a4 ../lib/libxc/libxc.a(index.o)
                                0x1b0 (size before relaxing)
 .stab          0x0006b64c      0x180 ../lib/libxc/libxc.a(printf.o)
                                0x18c (size before relaxing)
 .stab          0x0006b7cc      0x624 ../lib/libxc/libxc.a(qsort.o)
                                0x630 (size before relaxing)
 .stab          0x0006bdf0      0x1d4 ../lib/libxc/libxc.a(rindex.o)
                                0x1e0 (size before relaxing)
 .stab          0x0006bfc4      0x300 ../lib/libxc/libxc.a(sprintf.o)
                                0x30c (size before relaxing)
 .stab          0x0006c2c4      0x1c8 ../lib/libxc/libxc.a(strcat.o)
                                0x1d4 (size before relaxing)
 .stab          0x0006c48c      0x198 ../lib/libxc/libxc.a(strcmp.o)
                                0x1a4 (size before relaxing)
 .stab          0x0006c624      0x1b0 ../lib/libxc/libxc.a(strcpy.o)
                                0x1bc (size before relaxing)
 .stab          0x0006c7d4      0x1b0 ../lib/libxc/libxc.a(strlen.o)
                                0x1bc (size before relaxing)
 .stab          0x0006c984      0x1ec ../lib/libxc/libxc.a(strncat.o)
                                0x1f8 (size before relaxing)
 .stab          0x0006cb70      0x1a4 ../lib/libxc/libxc.a(strncmp.o)
                                0x1b0 (size before relaxing)
 .stab          0x0006cd14      0x204 ../lib/libxc/libxc.a(strncpy.o)
                                0x210 (size before relaxing)
 .stab          0x0006cf18      0x4c8 libx.a(arpprint.o)
                                0xb70 (size before relaxing)
 .stab          0x0006d3e0      0x390 libx.a(hgleave.o)
                                0xa68 (size before relaxing)
 .stab          0x0006d770      0x720 libx.a(name2ip.o)
                                0xde0 (size before relaxing)
 .stab          0x0006de90      0x288 libx.a(unmount.o)
                                0x330 (size before relaxing)
 .stab          0x0006e118      0x4bc libx.a(snclient.o)
                                0xbc4 (size before relaxing)
 .stab          0x0006e5d4      0x378 libx.a(snerr.o)
                                0xa80 (size before relaxing)
 .stab          0x0006e94c      0x738 libx.a(snprint.o)
                                0xe40 (size before relaxing)
 .stab          0x0006f084      0x1d4 libx.a(getc.o)
                                0x27c (size before relaxing)
 .stab          0x0006f258      0x1ec libx.a(putc.o)
                                0x294 (size before relaxing)
 .stab          0x0006f444      0x204 libx.a(remove.o)
                                0x2ac (size before relaxing)
 .stab          0x0006f648      0x21c libx.a(rename.o)
                                0x2c4 (size before relaxing)
 .stab          0x0006f864      0x204 libx.a(setdev.o)
                                0x2a0 (size before relaxing)
 .stab          0x0006fa68      0x21c libx.a(setnok.o)
                                0x2b8 (size before relaxing)
 .stab          0x0006fc84      0x1bc libx.a(wakeup.o)
                                0x270 (size before relaxing)
 .stab          0x0006fe40      0x1e0 libx.a(getuid.o)
                                0x27c (size before relaxing)
 .stab          0x00070020      0x408 libx.a(tqdump.o)
                                0xab0 (size before relaxing)
 .stab          0x00070428      0x384 libx.a(hgarpdel.o)
                                0xa5c (size before relaxing)

.stabstr        0x00000000    0x111eb
 *(.stabstr)
 .stabstr       0x00000000    0x111eb ../sys/initialize.o

.stab.excl
 *(.stab.excl)

.stab.exclstr
 *(.stab.exclstr)

.stab.index
 *(.stab.index)

.stab.indexstr
 *(.stab.indexstr)

.comment        0x00000000     0x2262
 *(.comment)
 .comment       0x00000000       0x12 ../sys/initialize.o
 .comment       0x00000012       0x12 user.o
 .comment       0x00000024       0x12 libx.a(getutim.o)
 .comment       0x00000036       0x12 libx.a(netstart.o)
 .comment       0x00000048       0x12 libx.a(setmask.o)
 .comment       0x0000005a       0x12 libx.a(slowtimer.o)
 .comment       0x0000006c       0x12 libx.a(sninit.o)
 .comment       0x0000007e       0x12 libx.a(clkinit.o)
 .comment       0x00000090       0x12 libx.a(close.o)
 .comment       0x000000a2       0x12 libx.a(conf.o)
 .comment       0x000000b4       0x12 libx.a(control.o)
 .comment       0x000000c6       0x12 libx.a(create.o)
 .comment       0x000000d8       0x12 libx.a(evec.o)
 .comment       0x000000ea       0x12 libx.a(getstk.o)
 .comment       0x000000fc       0x12 libx.a(gettime.o)
 .comment       0x0000010e       0x12 libx.a(gpq.o)
 .comment       0x00000120       0x12 libx.a(init.o)
 .comment       0x00000132       0x12 libx.a(ioerr.o)
 .comment       0x00000144       0x12 libx.a(ionull.o)
 .comment       0x00000156       0x12 libx.a(kprintf.o)
 .comment       0x00000168       0x12 libx.a(kputc.o)
 .comment       0x0000017a       0x12 libx.a(mark.o)
 .comment       0x0000018c       0x12 libx.a(naminit.o)
 .comment       0x0000019e       0x12 libx.a(namopen.o)
 .comment       0x000001b0       0x12 libx.a(newqueue.o)
 .comment       0x000001c2       0x12 libx.a(open.o)
 .comment       0x000001d4       0x12 libx.a(panic.o)
 .comment       0x000001e6       0x12 libx.a(read.o)
 .comment       0x000001f8       0x12 libx.a(recvtim.o)
 .comment       0x0000020a       0x12 libx.a(resched.o)
 .comment       0x0000021c       0x12 libx.a(resume.o)
 .comment       0x0000022e       0x12 libx.a(screate.o)
 .comment       0x00000240       0x12 libx.a(sdelete.o)
 .comment       0x00000252       0x12 libx.a(signal.o)
 .comment       0x00000264       0x12 libx.a(sleep.o)
 .comment       0x00000276       0x12 libx.a(sleep10.o)
 .comment       0x00000288       0x12 libx.a(userret.o)
 .comment       0x0000029a       0x12 libx.a(wait.o)
 .comment       0x000002ac       0x12 libx.a(write.o)
 .comment       0x000002be       0x12 libx.a(noclose.o)
 .comment       0x000002d0       0x12 libx.a(nocntl.o)
 .comment       0x000002e2       0x12 libx.a(nogetc.o)
 .comment       0x000002f4       0x12 libx.a(noopen.o)
 .comment       0x00000306       0x12 libx.a(noputc.o)
 .comment       0x00000318       0x12 libx.a(noread.o)
 .comment       0x0000032a       0x12 libx.a(noseek.o)
 .comment       0x0000033c       0x12 libx.a(nowrite.o)
 .comment       0x0000034e       0x12 libx.a(noiint.o)
 .comment       0x00000360       0x12 libx.a(nooint.o)
 .comment       0x00000372       0x12 libx.a(i386.o)
 .comment       0x00000384       0x12 libx.a(tcpclose.o)
 .comment       0x00000396       0x12 libx.a(tcpcntl.o)
 .comment       0x000003a8       0x12 libx.a(tcpgetc.o)
 .comment       0x000003ba       0x12 libx.a(tcpinit.o)
 .comment       0x000003cc       0x12 libx.a(tcplq.o)
 .comment       0x000003de       0x12 libx.a(tcpmcntl.o)
 .comment       0x000003f0       0x12 libx.a(tcpmopen.o)
 .comment       0x00000402       0x12 libx.a(tcpputc.o)
 .comment       0x00000414       0x12 libx.a(tcpread.o)
 .comment       0x00000426       0x12 libx.a(tcpserver.o)
 .comment       0x00000438       0x12 libx.a(tcpstat.o)
 .comment       0x0000044a       0x12 libx.a(tcpuopt.o)
 .comment       0x0000045c       0x12 libx.a(tcpwr.o)
 .comment       0x0000046e       0x12 libx.a(tcpwrite.o)
 .comment       0x00000480       0x12 libx.a(tcpinp.o)
 .comment       0x00000492       0x12 libx.a(tcpkick.o)
 .comment       0x000004a4       0x12 libx.a(tcpnet2h.o)
 .comment       0x000004b6       0x12 libx.a(tcpok.o)
 .comment       0x000004c8       0x12 libx.a(tcpopts.o)
 .comment       0x000004da       0x12 libx.a(tcpout.o)
 .comment       0x000004ec       0x12 libx.a(tcpreset.o)
 .comment       0x000004fe       0x12 libx.a(tcpsmss.o)
 .comment       0x00000510       0x12 libx.a(tcpswitch.o)
 .comment       0x00000522       0x12 libx.a(tcpsync.o)
 .comment       0x00000534       0x12 libx.a(tcpsynrcvd.o)
 .comment       0x00000546       0x12 libx.a(tcpsynsent.o)
 .comment       0x00000558       0x12 libx.a(tcptimewait.o)
 .comment       0x0000056a       0x12 libx.a(tcpwait.o)
 .comment       0x0000057c       0x12 libx.a(tcpwakeup.o)
 .comment       0x0000058e       0x12 libx.a(tcpxmit.o)
 .comment       0x000005a0       0x12 libx.a(tcptimer.o)
 .comment       0x000005b2       0x12 libx.a(tmclear.o)
 .comment       0x000005c4       0x12 libx.a(tmleft.o)
 .comment       0x000005d6       0x12 libx.a(tmset.o)
 .comment       0x000005e8       0x12 libx.a(ttycntl.o)
 .comment       0x000005fa       0x12 libx.a(ttygetc.o)
 .comment       0x0000060c       0x12 libx.a(ttyiin.o)
 .comment       0x0000061e       0x12 libx.a(ttyinit.o)
 .comment       0x00000630       0x12 libx.a(ttyopen.o)
 .comment       0x00000642       0x12 libx.a(ttyputc.o)
 .comment       0x00000654       0x12 libx.a(ttyread.o)
 .comment       0x00000666       0x12 libx.a(ttywrite.o)
 .comment       0x00000678       0x12 libx.a(ttyoin.o)
 .comment       0x0000068a       0x12 libx.a(udp_in.o)
 .comment       0x0000069c       0x12 libx.a(udpcksum.o)
 .comment       0x000006ae       0x12 libx.a(udpnet2h.o)
 .comment       0x000006c0       0x12 libx.a(upalloc.o)
 .comment       0x000006d2       0x12 libx.a(ospf.o)
 .comment       0x000006e4       0x12 libx.a(ospfnet2h.o)
 .comment       0x000006f6       0x12 libx.a(ospftimer.o)
 .comment       0x00000708       0x12 libx.a(ospf_ddin.o)
 .comment       0x0000071a       0x12 libx.a(nb_rexmt.o)
 .comment       0x0000072c       0x12 libx.a(nb_makel.o)
 .comment       0x0000073e       0x12 libx.a(ddi_exstart.o)
 .comment       0x00000750       0x12 libx.a(ddi_exchng.o)
 .comment       0x00000762       0x12 libx.a(lsr_in.o)
 .comment       0x00000774       0x12 libx.a(db_lookup.o)
 .comment       0x00000786       0x12 libx.a(ddi_full.o)
 .comment       0x00000798       0x12 libx.a(lsa_add.o)
 .comment       0x000007aa       0x12 libx.a(lsa_send.o)
 .comment       0x000007bc       0x12 libx.a(ospflstmpl.o)
 .comment       0x000007ce       0x12 libx.a(lsu_in.o)
 .comment       0x000007e0       0x12 libx.a(lsack_in.o)
 .comment       0x000007f2       0x12 libx.a(lsr_queue.o)
 .comment       0x00000804       0x12 libx.a(lsr_add.o)
 .comment       0x00000816       0x12 libx.a(lsr_xmit.o)
 .comment       0x00000828       0x12 libx.a(ospflsrtmpl.o)
 .comment       0x0000083a       0x12 libx.a(lsr_check.o)
 .comment       0x0000084c       0x12 libx.a(ue_intr.o)
 .comment       0x0000085e       0x12 libx.a(ue_write.o)
 .comment       0x00000870       0x12 libx.a(ue_init.o)
 .comment       0x00000882       0x12 libx.a(ue_cntl.o)
 .comment       0x00000894       0x12 libx.a(ue_demux.o)
 .comment       0x000008a6       0x12 libx.a(ue_wstrt.o)
 .comment       0x000008b8       0x12 libx.a(conio.o)
 .comment       0x000008ca       0x12 libx.a(arpinit.o)
 .comment       0x000008dc       0x12 libx.a(arptimer.o)
 .comment       0x000008ee       0x12 libx.a(comcntl.o)
 .comment       0x00000900       0x12 libx.a(comgetc.o)
 .comment       0x00000912       0x12 libx.a(cominit.o)
 .comment       0x00000924       0x12 libx.a(comoutput.o)
 .comment       0x00000936       0x12 libx.a(comintr.o)
 .comment       0x00000948       0x12 libx.a(kbmcntl.o)
 .comment       0x0000095a       0x12 libx.a(kbmgetc.o)
 .comment       0x0000096c       0x12 libx.a(kbminit.o)
 .comment       0x0000097e       0x12 libx.a(kbmoutput.o)
 .comment       0x00000990       0x12 libx.a(dgclose.o)
 .comment       0x000009a2       0x12 libx.a(dgcntl.o)
 .comment       0x000009b4       0x12 libx.a(dginit.o)
 .comment       0x000009c6       0x12 libx.a(dgmcntl.o)
 .comment       0x000009d8       0x12 libx.a(dgmopen.o)
 .comment       0x000009ea       0x12 libx.a(dgread.o)
 .comment       0x000009fc       0x12 libx.a(dgwrite.o)
 .comment       0x00000a0e       0x12 libx.a(icmp.o)
 .comment       0x00000a20       0x12 libx.a(icsetbuf.o)
 .comment       0x00000a32       0x12 libx.a(icsetdata.o)
 .comment       0x00000a44       0x12 libx.a(icsetsrc.o)
 .comment       0x00000a56       0x12 libx.a(hginit.o)
 .comment       0x00000a68       0x12 libx.a(hgjoin.o)
 .comment       0x00000a7a       0x12 libx.a(igmp.o)
 .comment       0x00000a8c       0x12 libx.a(hglookup.o)
 .comment       0x00000a9e       0x12 libx.a(igmp_update.o)
 .comment       0x00000ab0       0x12 libx.a(hgrand.o)
 .comment       0x00000ac2       0x12 libx.a(ipfinit.o)
 .comment       0x00000ad4       0x12 libx.a(ipftimer.o)
 .comment       0x00000ae6       0x12 libx.a(ipproc.o)
 .comment       0x00000af8       0x12 libx.a(ipputp.o)
 .comment       0x00000b0a       0x12 libx.a(ipreass.o)
 .comment       0x00000b1c       0x12 libx.a(ipredirect.o)
 .comment       0x00000b2e       0x12 libx.a(ipsend.o)
 .comment       0x00000b40       0x12 libx.a(rtadd.o)
 .comment       0x00000b52       0x12 libx.a(rtdel.o)
 .comment       0x00000b64       0x12 libx.a(rtfree.o)
 .comment       0x00000b76       0x12 libx.a(rtget.o)
 .comment       0x00000b88       0x12 libx.a(rthash.o)
 .comment       0x00000b9a       0x12 libx.a(rtinit.o)
 .comment       0x00000bac       0x12 libx.a(rtnew.o)
 .comment       0x00000bbe       0x12 libx.a(rttimer.o)
 .comment       0x00000bd0       0x12 libx.a(echod.o)
 .comment       0x00000be2       0x12 libx.a(fingerd.o)
 .comment       0x00000bf4       0x12 libx.a(lfing.o)
 .comment       0x00000c06       0x12 libx.a(ripin.o)
 .comment       0x00000c18       0x12 libx.a(ripout.o)
 .comment       0x00000c2a       0x12 libx.a(riprecv.o)
 .comment       0x00000c3c       0x12 libx.a(riprepl.o)
 .comment       0x00000c4e       0x12 libx.a(ripsend.o)
 .comment       0x00000c60       0x12 libx.a(rwho.o)
 .comment       0x00000c72       0x12 libx.a(rwhod.o)
 .comment       0x00000c84       0x12 libx.a(rwhoind.o)
 .comment       0x00000c96       0x12 libx.a(snmpd.o)
 .comment       0x00000ca8       0x12 libx.a(udpecho.o)
 .comment       0x00000cba       0x12 libx.a(dnparse.o)
 .comment       0x00000ccc       0x12 libx.a(dot2ip.o)
 .comment       0x00000cde       0x12 libx.a(getiaddr.o)
 .comment       0x00000cf0       0x12 libx.a(getname.o)
 .comment       0x00000d02       0x12 libx.a(initgate.o)
 .comment       0x00000d14       0x12 libx.a(inithost.o)
 .comment       0x00000d26       0x12 libx.a(ip2dot.o)
 .comment       0x00000d38       0x12 libx.a(ip2name.o)
 .comment       0x00000d4a       0x12 libx.a(netmask.o)
 .comment       0x00000d5c       0x12 libx.a(netmatch.o)
 .comment       0x00000d6e       0x12 libx.a(netnum.o)
 .comment       0x00000d80       0x12 libx.a(netwrite.o)
 .comment       0x00000d92       0x12 libx.a(ni_in.o)
 .comment       0x00000da4       0x12 libx.a(rarp_in.o)
 .comment       0x00000db6       0x12 libx.a(rarpsend.o)
 .comment       0x00000dc8       0x12 libx.a(ethmcast.o)
 .comment       0x00000dda       0x12 libx.a(mount.o)
 .comment       0x00000dec       0x12 libx.a(rfclose.o)
 .comment       0x00000dfe       0x12 libx.a(rfcntl.o)
 .comment       0x00000e10       0x12 libx.a(rfgetc.o)
 .comment       0x00000e22       0x12 libx.a(rfinit.o)
 .comment       0x00000e34       0x12 libx.a(rfmkpac.o)
 .comment       0x00000e46       0x12 libx.a(rfopen.o)
 .comment       0x00000e58       0x12 libx.a(rfputc.o)
 .comment       0x00000e6a       0x12 libx.a(rfread.o)
 .comment       0x00000e7c       0x12 libx.a(rfseek.o)
 .comment       0x00000e8e       0x12 libx.a(rfsend.o)
 .comment       0x00000ea0       0x12 libx.a(rfwrite.o)
 .comment       0x00000eb2       0x12 libx.a(mksnmp.o)
 .comment       0x00000ec4       0x12 libx.a(sna2b.o)
 .comment       0x00000ed6       0x12 libx.a(snb2a.o)
 .comment       0x00000ee8       0x12 libx.a(snfreebl.o)
 .comment       0x00000efa       0x12 libx.a(snhash.o)
 .comment       0x00000f0c       0x12 libx.a(snmib.o)
 .comment       0x00000f1e       0x12 libx.a(snparse.o)
 .comment       0x00000f30       0x12 libx.a(snrslv.o)
 .comment       0x00000f42       0x12 libx.a(sntable.o)
 .comment       0x00000f54       0x12 libx.a(srt_get.o)
 .comment       0x00000f66       0x12 libx.a(srt_getf.o)
 .comment       0x00000f78       0x12 libx.a(srt_getn.o)
 .comment       0x00000f8a       0x12 libx.a(srt_match.o)
 .comment       0x00000f9c       0x12 libx.a(srt_set.o)
 .comment       0x00000fae       0x12 libx.a(stc_get.o)
 .comment       0x00000fc0       0x12 libx.a(stc_getf.o)
 .comment       0x00000fd2       0x12 libx.a(stc_getn.o)
 .comment       0x00000fe4       0x12 libx.a(stc_match.o)
 .comment       0x00000ff6       0x12 libx.a(stc_set.o)
 .comment       0x00001008       0x12 libx.a(snm_get.o)
 .comment       0x0000101a       0x12 libx.a(snm_getf.o)
 .comment       0x0000102c       0x12 libx.a(snm_getn.o)
 .comment       0x0000103e       0x12 libx.a(snm_match.o)
 .comment       0x00001050       0x12 libx.a(snm_set.o)
 .comment       0x00001062       0x12 libx.a(sud_get.o)
 .comment       0x00001074       0x12 libx.a(sud_getf.o)
 .comment       0x00001086       0x12 libx.a(sud_getn.o)
 .comment       0x00001098       0x12 libx.a(sud_match.o)
 .comment       0x000010aa       0x12 libx.a(sud_set.o)
 .comment       0x000010bc       0x12 libx.a(sud_findn.o)
 .comment       0x000010ce       0x12 libx.a(snm_findn.o)
 .comment       0x000010e0       0x12 libx.a(blkcopy.o)
 .comment       0x000010f2       0x12 libx.a(ckmode.o)
 .comment       0x00001104       0x12 libx.a(freebuf.o)
 .comment       0x00001116       0x12 libx.a(freemem.o)
 .comment       0x00001128       0x12 libx.a(getbuf.o)
 .comment       0x0000113a       0x12 libx.a(getitem.o)
 .comment       0x0000114c       0x12 libx.a(getmem.o)
 .comment       0x0000115e       0x12 libx.a(getpid.o)
 .comment       0x00001170       0x12 libx.a(insert.o)
 .comment       0x00001182       0x12 libx.a(insertd.o)
 .comment       0x00001194       0x12 libx.a(kill.o)
 .comment       0x000011a6       0x12 libx.a(stacktrace.o)
 .comment       0x000011b8       0x12 libx.a(mkpool.o)
 .comment       0x000011ca       0x12 libx.a(nammap.o)
 .comment       0x000011dc       0x12 libx.a(namrepl.o)
 .comment       0x000011ee       0x12 libx.a(pcount.o)
 .comment       0x00001200       0x12 libx.a(pcreate.o)
 .comment       0x00001212       0x12 libx.a(pdelete.o)
 .comment       0x00001224       0x12 libx.a(pinit.o)
 .comment       0x00001236       0x12 libx.a(poolinit.o)
 .comment       0x00001248       0x12 libx.a(preceive.o)
 .comment       0x0000125a       0x12 libx.a(preset.o)
 .comment       0x0000126c       0x12 libx.a(psend.o)
 .comment       0x0000127e       0x12 libx.a(ptclear.o)
 .comment       0x00001290       0x12 libx.a(queue.o)
 .comment       0x000012a2       0x12 libx.a(ready.o)
 .comment       0x000012b4       0x12 libx.a(recvclr.o)
 .comment       0x000012c6       0x12 libx.a(scount.o)
 .comment       0x000012d8       0x12 libx.a(send.o)
 .comment       0x000012ea       0x12 libx.a(sreset.o)
 .comment       0x000012fc       0x12 libx.a(suspend.o)
 .comment       0x0000130e       0x12 libx.a(unsleep.o)
 .comment       0x00001320       0x12 libx.a(xdone.o)
 .comment       0x00001332       0x12 libx.a(syslog.o)
 .comment       0x00001344       0x12 libx.a(getuser.o)
 .comment       0x00001356       0x12 libx.a(tcballoc.o)
 .comment       0x00001368       0x12 libx.a(tcbdealloc.o)
 .comment       0x0000137a       0x12 libx.a(tcpbind.o)
 .comment       0x0000138c       0x12 libx.a(tcpcon.o)
 .comment       0x0000139e       0x12 libx.a(tcpgetdata.o)
 .comment       0x000013b0       0x12 libx.a(tcpgetspace.o)
 .comment       0x000013c2       0x12 libx.a(tcpnxtp.o)
 .comment       0x000013d4       0x12 libx.a(tcpabort.o)
 .comment       0x000013e6       0x12 libx.a(tcpacked.o)
 .comment       0x000013f8       0x12 libx.a(tcpackit.o)
 .comment       0x0000140a       0x12 libx.a(tcpcksum.o)
 .comment       0x0000141c       0x12 libx.a(tcpclosed.o)
 .comment       0x0000142e       0x12 libx.a(tcpclosewait.o)
 .comment       0x00001440       0x12 libx.a(tcpclosing.o)
 .comment       0x00001452       0x12 libx.a(tcpdata.o)
 .comment       0x00001464       0x12 libx.a(tcpdemux.o)
 .comment       0x00001476       0x12 libx.a(tcpdodat.o)
 .comment       0x00001488       0x12 libx.a(tcpestablished.o)
 .comment       0x0000149a       0x12 libx.a(tcpfin1.o)
 .comment       0x000014ac       0x12 libx.a(tcpfin2.o)
 .comment       0x000014be       0x12 libx.a(tcph2net.o)
 .comment       0x000014d0       0x12 libx.a(tcphowmuch.o)
 .comment       0x000014e2       0x12 libx.a(tcpidle.o)
 .comment       0x000014f4       0x12 libx.a(tcpiss.o)
 .comment       0x00001506       0x12 libx.a(tcpkilltimers.o)
 .comment       0x00001518       0x12 libx.a(tcplastack.o)
 .comment       0x0000152a       0x12 libx.a(tcplisten.o)
 .comment       0x0000153c       0x12 libx.a(tcpostate.o)
 .comment       0x0000154e       0x12 libx.a(tcppersist.o)
 .comment       0x00001560       0x12 libx.a(tcprexmt.o)
 .comment       0x00001572       0x12 libx.a(tcprtt.o)
 .comment       0x00001584       0x12 libx.a(tcprwindow.o)
 .comment       0x00001596       0x12 libx.a(tcpsend.o)
 .comment       0x000015a8       0x12 libx.a(tcpsndlen.o)
 .comment       0x000015ba       0x12 libx.a(tcpswindow.o)
 .comment       0x000015cc       0x12 libx.a(tcpwinit.o)
 .comment       0x000015de       0x12 libx.a(tfcoalesce.o)
 .comment       0x000015f0       0x12 libx.a(tfinsert.o)
 .comment       0x00001602       0x12 libx.a(ttynew.o)
 .comment       0x00001614       0x12 libx.a(udpnxtp.o)
 .comment       0x00001626       0x12 libx.a(udpsend.o)
 .comment       0x00001638       0x12 libx.a(ospf_hin.o)
 .comment       0x0000164a       0x12 libx.a(ospfcheck.o)
 .comment       0x0000165c       0x12 libx.a(if_elect.o)
 .comment       0x0000166e       0x12 libx.a(ospfhello.o)
 .comment       0x00001680       0x12 libx.a(ospfifinit.o)
 .comment       0x00001692       0x12 libx.a(ospfinit.o)
 .comment       0x000016a4       0x12 libx.a(nb_add.o)
 .comment       0x000016b6       0x12 libx.a(nb_switch.o)
 .comment       0x000016c8       0x12 libx.a(nb_reform.o)
 .comment       0x000016da       0x12 libx.a(nb_aok.o)
 .comment       0x000016ec       0x12 libx.a(dd_queue.o)
 .comment       0x000016fe       0x12 libx.a(dd_xmit.o)
 .comment       0x00001710       0x12 libx.a(lss_build.o)
 .comment       0x00001722       0x12 libx.a(ospfddtmpl.o)
 .comment       0x00001734       0x12 libx.a(nb_clearl.o)
 .comment       0x00001746       0x12 libx.a(nb_mismatch.o)
 .comment       0x00001758       0x12 libx.a(if_elect1.o)
 .comment       0x0000176a       0x12 libx.a(db_init.o)
 .comment       0x0000177c       0x12 libx.a(db_resync.o)
 .comment       0x0000178e       0x12 libx.a(arp_in.o)
 .comment       0x000017a0       0x12 libx.a(arpadd.o)
 .comment       0x000017b2       0x12 libx.a(arpalloc.o)
 .comment       0x000017c4       0x12 libx.a(arpdq.o)
 .comment       0x000017d6       0x12 libx.a(arpfind.o)
 .comment       0x000017e8       0x12 libx.a(arpqsend.o)
 .comment       0x000017fa       0x12 libx.a(arpsend.o)
 .comment       0x0000180c       0x12 libx.a(kbmiin.o)
 .comment       0x0000181e       0x12 libx.a(kbscan.o)
 .comment       0x00001830       0x12 libx.a(dgalloc.o)
 .comment       0x00001842       0x12 libx.a(icerrok.o)
 .comment       0x00001854       0x12 libx.a(hgadd.o)
 .comment       0x00001866       0x12 libx.a(hgarpadd.o)
 .comment       0x00001878       0x12 libx.a(ip_in.o)
 .comment       0x0000188a       0x12 libx.a(ipdbc.o)
 .comment       0x0000189c       0x12 libx.a(ipfadd.o)
 .comment       0x000018ae       0x12 libx.a(ipfhcopy.o)
 .comment       0x000018c0       0x12 libx.a(ipfjoin.o)
 .comment       0x000018d2       0x12 libx.a(ipfsend.o)
 .comment       0x000018e4       0x12 libx.a(ipgetp.o)
 .comment       0x000018f6       0x12 libx.a(iph2net.o)
 .comment       0x00001908       0x12 libx.a(ipnet2h.o)
 .comment       0x0000191a       0x12 libx.a(isbrc.o)
 .comment       0x0000192c       0x12 libx.a(ripadd.o)
 .comment       0x0000193e       0x12 libx.a(ripcheck.o)
 .comment       0x00001950       0x12 libx.a(ripifset.o)
 .comment       0x00001962       0x12 libx.a(ripmetric.o)
 .comment       0x00001974       0x12 libx.a(ripok.o)
 .comment       0x00001986       0x12 libx.a(ripstart.o)
 .comment       0x00001998       0x12 libx.a(local_out.o)
 .comment       0x000019aa       0x12 libx.a(rfalloc.o)
 .comment       0x000019bc       0x12 libx.a(rfio.o)
 .comment       0x000019ce       0x12 libx.a(a1rwlen.o)
 .comment       0x000019e0       0x12 libx.a(a1rwoid.o)
 .comment       0x000019f2       0x12 libx.a(a1rwval.o)
 .comment       0x00001a04       0x12 libx.a(sae_get.o)
 .comment       0x00001a16       0x12 libx.a(sae_getf.o)
 .comment       0x00001a28       0x12 libx.a(sae_getn.o)
 .comment       0x00001a3a       0x12 libx.a(sae_match.o)
 .comment       0x00001a4c       0x12 libx.a(sae_set.o)
 .comment       0x00001a5e       0x12 libx.a(sat_get.o)
 .comment       0x00001a70       0x12 libx.a(sat_getf.o)
 .comment       0x00001a82       0x12 libx.a(sat_getn.o)
 .comment       0x00001a94       0x12 libx.a(sat_match.o)
 .comment       0x00001aa6       0x12 libx.a(sat_set.o)
 .comment       0x00001ab8       0x12 libx.a(sif_get.o)
 .comment       0x00001aca       0x12 libx.a(sif_getf.o)
 .comment       0x00001adc       0x12 libx.a(sif_getn.o)
 .comment       0x00001aee       0x12 libx.a(sif_match.o)
 .comment       0x00001b00       0x12 libx.a(sif_set.o)
 .comment       0x00001b12       0x12 libx.a(snleaf.o)
 .comment       0x00001b24       0x12 libx.a(snoip.o)
 .comment       0x00001b36       0x12 libx.a(srt_findn.o)
 .comment       0x00001b48       0x12 libx.a(stc_findn.o)
 .comment       0x00001b5a       0x12 libx.a(receive.o)
 .comment       0x00001b6c       0x12 libx.a(tcp_in.o)
 .comment       0x00001b7e       0x12 libx.a(tcprmss.o)
 .comment       0x00001b90       0x12 libx.a(ttyalloc.o)
 .comment       0x00001ba2       0x12 libx.a(udph2net.o)
 .comment       0x00001bb4       0x12 libx.a(ospf_hsend.o)
 .comment       0x00001bc6       0x12 libx.a(ospf_in.o)
 .comment       0x00001bd8       0x12 libx.a(ospfhtmpl.o)
 .comment       0x00001bea       0x12 libx.a(db_nlink.o)
 .comment       0x00001bfc       0x12 libx.a(icmp_in.o)
 .comment       0x00001c0e       0x12 libx.a(icredirect.o)
 .comment       0x00001c20       0x12 libx.a(igmp_in.o)
 .comment       0x00001c32       0x12 libx.a(igmp_settimers.o)
 .comment       0x00001c44       0x12 libx.a(ipdstopts.o)
 .comment       0x00001c56       0x12 libx.a(ipfcons.o)
 .comment       0x00001c68       0x12 libx.a(a1rwint.o)
 .comment       0x00001c7a       0x12 libx.a(sae_findn.o)
 .comment       0x00001c8c       0x12 libx.a(sat_findn.o)
 .comment       0x00001c9e       0x12 libx.a(db_update.o)
 .comment       0x00001cb0       0x12 libx.a(db_new.o)
 .comment       0x00001cc2      0x32a sh.o
 .comment       0x00001fec       0x12 ../lib/libxc/libxc.a(atoi.o)
 .comment       0x00001ffe       0x12 ../lib/libxc/libxc.a(ctype_.o)
 .comment       0x00002010       0x12 ../lib/libxc/libxc.a(doprnt.o)
 .comment       0x00002022       0x12 ../lib/libxc/libxc.a(memcmp.o)
 .comment       0x00002034       0x12 ../lib/libxc/libxc.a(memset.o)
 .comment       0x00002046       0x12 ../lib/libxc/libxc.a(fprintf.o)
 .comment       0x00002058       0x12 ../lib/libxc/libxc.a(index.o)
 .comment       0x0000206a       0x12 ../lib/libxc/libxc.a(printf.o)
 .comment       0x0000207c       0x12 ../lib/libxc/libxc.a(qsort.o)
 .comment       0x0000208e       0x12 ../lib/libxc/libxc.a(rindex.o)
 .comment       0x000020a0       0x12 ../lib/libxc/libxc.a(sprintf.o)
 .comment       0x000020b2       0x12 ../lib/libxc/libxc.a(strcat.o)
 .comment       0x000020c4       0x12 ../lib/libxc/libxc.a(strcmp.o)
 .comment       0x000020d6       0x12 ../lib/libxc/libxc.a(strcpy.o)
 .comment       0x000020e8       0x12 ../lib/libxc/libxc.a(strlen.o)
 .comment       0x000020fa       0x12 ../lib/libxc/libxc.a(strncat.o)
 .comment       0x0000210c       0x12 ../lib/libxc/libxc.a(strncmp.o)
 .comment       0x0000211e       0x12 ../lib/libxc/libxc.a(strncpy.o)
 .comment       0x00002130       0x12 libx.a(arpprint.o)
 .comment       0x00002142       0x12 libx.a(hgleave.o)
 .comment       0x00002154       0x12 libx.a(name2ip.o)
 .comment       0x00002166       0x12 libx.a(unmount.o)
 .comment       0x00002178       0x12 libx.a(snclient.o)
 .comment       0x0000218a       0x12 libx.a(snerr.o)
 .comment       0x0000219c       0x12 libx.a(snprint.o)
 .comment       0x000021ae       0x12 libx.a(getc.o)
 .comment       0x000021c0       0x12 libx.a(putc.o)
 .comment       0x000021d2       0x12 libx.a(remove.o)
 .comment       0x000021e4       0x12 libx.a(rename.o)
 .comment       0x000021f6       0x12 libx.a(setdev.o)
 .comment       0x00002208       0x12 libx.a(setnok.o)
 .comment       0x0000221a       0x12 libx.a(wakeup.o)
 .comment       0x0000222c       0x12 libx.a(getuid.o)
 .comment       0x0000223e       0x12 libx.a(tqdump.o)
 .comment       0x00002250       0x12 libx.a(hgarpdel.o)

.debug
 *(.debug)

.line
 *(.line)

.debug_srcinfo
 *(.debug_srcinfo)

.debug_sfnames
 *(.debug_sfnames)

.debug_aranges
 *(.debug_aranges)

.debug_pubnames
 *(.debug_pubnames)

.debug_info
 *(.debug_info .gnu.linkonce.wi.*)

.debug_abbrev
 *(.debug_abbrev)

.debug_line
 *(.debug_line)

.debug_frame
 *(.debug_frame)

.debug_str
 *(.debug_str)

.debug_loc
 *(.debug_loc)

.debug_macinfo
 *(.debug_macinfo)

.debug_weaknames
 *(.debug_weaknames)

.debug_funcnames
 *(.debug_funcnames)

.debug_typenames
 *(.debug_typenames)

.debug_varnames
 *(.debug_varnames)

/DISCARD/
 *(.note.GNU-stack)
LOAD ../sys/com32/c32entry.o
LOAD ../sys/arch/x86/intr.o
LOAD ../sys/initialize.o
LOAD user.o
LOAD libx.a
LOAD sh.o
LOAD ../sys/arch/x86/clkint.o
LOAD ../sys/arch/x86/ctxsw.o
LOAD ../lib/libxc/libxc.a
LOAD libx.a
LOAD l:/32bitmicro/sdk-4.3.2-x86/lib/gcc/i386-none-elf/4.3.2\libgcc.a
OUTPUT(xinu elf32-i386)
