
EMAC_demo.out:     file format elf32-littlearm


Disassembly of section .text:

00000000 <_text>:
       0:	10000db8 	.word	0x10000db8
       4:	000000f5 	.word	0x000000f5
       8:	0000011d 	.word	0x0000011d
       c:	0000011f 	.word	0x0000011f
      10:	00000121 	.word	0x00000121
      14:	00000123 	.word	0x00000123
      18:	00000125 	.word	0x00000125
	...
      2c:	00000127 	.word	0x00000127
      30:	00000129 	.word	0x00000129
      34:	00000000 	.word	0x00000000
      38:	0000012b 	.word	0x0000012b
      3c:	0000012d 	.word	0x0000012d
      40:	00000144 	.word	0x00000144
      44:	0000280d 	.word	0x0000280d
      48:	00000144 	.word	0x00000144
      4c:	00000144 	.word	0x00000144
      50:	00000144 	.word	0x00000144
      54:	0144      	.short	0x0144
      56:	00          	.byte	0x00
      57:	00          	.byte	0x00
      58:	00000144 	.word	0x00000144
      5c:	00000144 	.word	0x00000144
      60:	00000144 	.word	0x00000144
      64:	00000144 	.word	0x00000144
      68:	00000144 	.word	0x00000144
      6c:	00000144 	.word	0x00000144
      70:	00000144 	.word	0x00000144
      74:	00000144 	.word	0x00000144
      78:	00000144 	.word	0x00000144
      7c:	00000144 	.word	0x00000144
      80:	0144      	.short	0x0144
      82:	0000      	.short	0x0000
      84:	00000144 	.word	0x00000144
      88:	00000144 	.word	0x00000144
      8c:	00000144 	.word	0x00000144
      90:	00000144 	.word	0x00000144
      94:	00000144 	.word	0x00000144
      98:	00000144 	.word	0x00000144
      9c:	00000144 	.word	0x00000144
      a0:	00000144 	.word	0x00000144
      a4:	00000144 	.word	0x00000144
      a8:	00000144 	.word	0x00000144
      ac:	44          	.byte	0x44
      ad:	01          	.byte	0x01
      ae:	0000      	.short	0x0000
      b0:	00000144 	.word	0x00000144
      b4:	00000144 	.word	0x00000144
      b8:	00000144 	.word	0x00000144
      bc:	00000144 	.word	0x00000144
      c0:	00000144 	.word	0x00000144

000000c4 <_evector>:
      c4:	00000000 	.word	0x00000000
      c8:	00008fa0 	.word	0x00008fa0
      cc:	00000000 	.word	0x00000000
      d0:	000000c4 	.word	0x000000c4
      d4:	10000000 	.word	0x10000000
      d8:	10000858 	.word	0x10000858
      dc:	10000858 	.word	0x10000858
      e0:	100008a0 	.word	0x100008a0
      e4:	10000c78 	.word	0x10000c78
      e8:	10000d78 	.word	0x10000d78
      ec:	10000d78 	.word	0x10000d78
      f0:	10000db8 	.word	0x10000db8

000000f4 <Reset_Handler>:
      f4:	480e      	ldr	r0, [pc, #56]	(130 <SysTick_Handler+0x4>)
      f6:	490f      	ldr	r1, [pc, #60]	(134 <SysTick_Handler+0x8>)
      f8:	f04f 0200 	mov.w	r2, #0	; 0x0
      fc:	f800 2b01 	strb.w	r2, [r0], #1
     100:	4288      	cmp	r0, r1
     102:	dbfb      	blt.n	fc <Reset_Handler+0x8>
     104:	480c      	ldr	r0, [pc, #48]	(138 <SysTick_Handler+0xc>)
     106:	490d      	ldr	r1, [pc, #52]	(13c <SysTick_Handler+0x10>)
     108:	f04f 0200 	mov.w	r2, #0	; 0x0
     10c:	f810 3b01 	ldrb.w	r3, [r0], #1
     110:	f802 3b01 	strb.w	r3, [r2], #1
     114:	4288      	cmp	r0, r1
     116:	dbf9      	blt.n	10c <__heap_size+0xc>
     118:	4809      	ldr	r0, [pc, #36]	(140 <SysTick_Handler+0x14>)
     11a:	4700      	bx	r0

0000011c <NMI_Handler>:
     11c:	e7fe      	b.n	11c <NMI_Handler>

0000011e <HardFault_Handler>:
     11e:	e7fe      	b.n	11e <HardFault_Handler>

00000120 <MemManage_Handler>:
     120:	e7fe      	b.n	120 <MemManage_Handler>

00000122 <BusFault_Handler>:
     122:	e7fe      	b.n	122 <BusFault_Handler>

00000124 <UsageFault_Handler>:
     124:	e7fe      	b.n	124 <UsageFault_Handler>

00000126 <SVC_Handler>:
     126:	e7fe      	b.n	126 <SVC_Handler>

00000128 <DebugMon_Handler>:
     128:	e7fe      	b.n	128 <DebugMon_Handler>

0000012a <PendSV_Handler>:
     12a:	e7fe      	b.n	12a <PendSV_Handler>

0000012c <SysTick_Handler>:
     12c:	e7fe      	b.n	12c <SysTick_Handler>
     12e:	0000      	.short	0x0000
     130:	10000858 	.word	0x10000858
     134:	100008a0 	.word	0x100008a0
     138:	10000000 	.word	0x10000000
     13c:	10000858 	.word	0x10000858
     140:	000000c4 	.word	0x000000c4

00000144 <ADC_IRQHandler>:
     144:	e7fe      	b.n	144 <ADC_IRQHandler>
	...

00000148 <write_PHY>:
     148:	b480      	push	{r7}
     14a:	b085      	sub	sp, #20
     14c:	af00      	add	r7, sp, #0
     14e:	6078      	str	r0, [r7, #4]
     150:	6039      	str	r1, [r7, #0]
     152:	f04f 42a0 	mov.w	r2, #1342177280	; 0x50000000
     156:	687b      	ldr	r3, [r7, #4]
     158:	f443 7380 	orr.w	r3, r3, #256	; 0x100
     15c:	6293      	str	r3, [r2, #40]
     15e:	f04f 42a0 	mov.w	r2, #1342177280	; 0x50000000
     162:	683b      	ldr	r3, [r7, #0]
     164:	62d3      	str	r3, [r2, #44]
     166:	f04f 0300 	mov.w	r3, #0	; 0x0
     16a:	60fb      	str	r3, [r7, #12]
     16c:	f04f 0300 	mov.w	r3, #0	; 0x0
     170:	60fb      	str	r3, [r7, #12]
     172:	e00a      	b.n	18a <write_PHY+0x42>
     174:	f04f 43a0 	mov.w	r3, #1342177280	; 0x50000000
     178:	6b5b      	ldr	r3, [r3, #52]
     17a:	f003 0301 	and.w	r3, r3, #1	; 0x1
     17e:	2b00      	cmp	r3, #0
     180:	d00a      	beq.n	198 <write_PHY+0x50>
     182:	68fb      	ldr	r3, [r7, #12]
     184:	f103 0301 	add.w	r3, r3, #1	; 0x1
     188:	60fb      	str	r3, [r7, #12]
     18a:	68fa      	ldr	r2, [r7, #12]
     18c:	f64f 73ff 	movw	r3, #65535	; 0xffff
     190:	f2c0 0304 	movt	r3, #4	; 0x4
     194:	429a      	cmp	r2, r3
     196:	d9ed      	bls.n	174 <write_PHY+0x2c>
     198:	f107 0714 	add.w	r7, r7, #20	; 0x14
     19c:	46bd      	mov	sp, r7
     19e:	bc80      	pop	{r7}
     1a0:	4770      	bx	lr
     1a2:	bf00      	nop

000001a4 <read_PHY>:
     1a4:	b480      	push	{r7}
     1a6:	b085      	sub	sp, #20
     1a8:	af00      	add	r7, sp, #0
     1aa:	4603      	mov	r3, r0
     1ac:	71fb      	strb	r3, [r7, #7]
     1ae:	f04f 42a0 	mov.w	r2, #1342177280	; 0x50000000
     1b2:	79fb      	ldrb	r3, [r7, #7]
     1b4:	f443 7380 	orr.w	r3, r3, #256	; 0x100
     1b8:	6293      	str	r3, [r2, #40]
     1ba:	f04f 42a0 	mov.w	r2, #1342177280	; 0x50000000
     1be:	f04f 0301 	mov.w	r3, #1	; 0x1
     1c2:	6253      	str	r3, [r2, #36]
     1c4:	f04f 0300 	mov.w	r3, #0	; 0x0
     1c8:	60fb      	str	r3, [r7, #12]
     1ca:	f04f 0300 	mov.w	r3, #0	; 0x0
     1ce:	60fb      	str	r3, [r7, #12]
     1d0:	e00a      	b.n	1e8 <read_PHY+0x44>
     1d2:	f04f 43a0 	mov.w	r3, #1342177280	; 0x50000000
     1d6:	6b5b      	ldr	r3, [r3, #52]
     1d8:	f003 0301 	and.w	r3, r3, #1	; 0x1
     1dc:	2b00      	cmp	r3, #0
     1de:	d00a      	beq.n	1f6 <read_PHY+0x52>
     1e0:	68fb      	ldr	r3, [r7, #12]
     1e2:	f103 0301 	add.w	r3, r3, #1	; 0x1
     1e6:	60fb      	str	r3, [r7, #12]
     1e8:	68fa      	ldr	r2, [r7, #12]
     1ea:	f64f 73ff 	movw	r3, #65535	; 0xffff
     1ee:	f2c0 0304 	movt	r3, #4	; 0x4
     1f2:	429a      	cmp	r2, r3
     1f4:	d9ed      	bls.n	1d2 <read_PHY+0x2e>
     1f6:	f04f 42a0 	mov.w	r2, #1342177280	; 0x50000000
     1fa:	f04f 0300 	mov.w	r3, #0	; 0x0
     1fe:	6253      	str	r3, [r2, #36]
     200:	f04f 43a0 	mov.w	r3, #1342177280	; 0x50000000
     204:	6b1b      	ldr	r3, [r3, #48]
     206:	b29b      	uxth	r3, r3
     208:	4618      	mov	r0, r3
     20a:	f107 0714 	add.w	r7, r7, #20	; 0x14
     20e:	46bd      	mov	sp, r7
     210:	bc80      	pop	{r7}
     212:	4770      	bx	lr

00000214 <rx_descr_init>:
     214:	b480      	push	{r7}
     216:	b083      	sub	sp, #12
     218:	af00      	add	r7, sp, #0
     21a:	f04f 0300 	mov.w	r3, #0	; 0x0
     21e:	607b      	str	r3, [r7, #4]
     220:	e03f      	b.n	2a2 <rx_descr_init+0x8e>
     222:	687b      	ldr	r3, [r7, #4]
     224:	f103 6380 	add.w	r3, r3, #67108864	; 0x4000000
     228:	f503 3380 	add.w	r3, r3, #65536	; 0x10000
     22c:	ea4f 03c3 	mov.w	r3, r3, lsl #3
     230:	4619      	mov	r1, r3
     232:	687a      	ldr	r2, [r7, #4]
     234:	4613      	mov	r3, r2
     236:	ea4f 0343 	mov.w	r3, r3, lsl #1
     23a:	4413      	add	r3, r2
     23c:	ea4f 2343 	mov.w	r3, r3, lsl #9
     240:	461a      	mov	r2, r3
     242:	f240 0364 	movw	r3, #100	; 0x64
     246:	f2c2 0308 	movt	r3, #8200	; 0x2008
     24a:	4413      	add	r3, r2
     24c:	600b      	str	r3, [r1, #0]
     24e:	687b      	ldr	r3, [r7, #4]
     250:	ea4f 02c3 	mov.w	r2, r3, lsl #3
     254:	f240 0304 	movw	r3, #4	; 0x4
     258:	f2c2 0308 	movt	r3, #8200	; 0x2008
     25c:	4413      	add	r3, r2
     25e:	461a      	mov	r2, r3
     260:	f240 53ff 	movw	r3, #1535	; 0x5ff
     264:	f2c8 0300 	movt	r3, #32768	; 0x8000
     268:	6013      	str	r3, [r2, #0]
     26a:	687a      	ldr	r2, [r7, #4]
     26c:	f240 0304 	movw	r3, #4	; 0x4
     270:	f2c0 4301 	movt	r3, #1025	; 0x401
     274:	4413      	add	r3, r2
     276:	ea4f 03c3 	mov.w	r3, r3, lsl #3
     27a:	461a      	mov	r2, r3
     27c:	f04f 0300 	mov.w	r3, #0	; 0x0
     280:	6013      	str	r3, [r2, #0]
     282:	687b      	ldr	r3, [r7, #4]
     284:	ea4f 02c3 	mov.w	r2, r3, lsl #3
     288:	f240 0324 	movw	r3, #36	; 0x24
     28c:	f2c2 0308 	movt	r3, #8200	; 0x2008
     290:	4413      	add	r3, r2
     292:	461a      	mov	r2, r3
     294:	f04f 0300 	mov.w	r3, #0	; 0x0
     298:	6013      	str	r3, [r2, #0]
     29a:	687b      	ldr	r3, [r7, #4]
     29c:	f103 0301 	add.w	r3, r3, #1	; 0x1
     2a0:	607b      	str	r3, [r7, #4]
     2a2:	687b      	ldr	r3, [r7, #4]
     2a4:	2b03      	cmp	r3, #3
     2a6:	d9bc      	bls.n	222 <rx_descr_init+0xe>
     2a8:	f04f 42a0 	mov.w	r2, #1342177280	; 0x50000000
     2ac:	f240 0300 	movw	r3, #0	; 0x0
     2b0:	f2c2 0308 	movt	r3, #8200	; 0x2008
     2b4:	f8c2 3108 	str.w	r3, [r2, #264]
     2b8:	f04f 42a0 	mov.w	r2, #1342177280	; 0x50000000
     2bc:	f240 0320 	movw	r3, #32	; 0x20
     2c0:	f2c2 0308 	movt	r3, #8200	; 0x2008
     2c4:	f8c2 310c 	str.w	r3, [r2, #268]
     2c8:	f04f 42a0 	mov.w	r2, #1342177280	; 0x50000000
     2cc:	f04f 0303 	mov.w	r3, #3	; 0x3
     2d0:	f8c2 3110 	str.w	r3, [r2, #272]
     2d4:	f04f 42a0 	mov.w	r2, #1342177280	; 0x50000000
     2d8:	f04f 0300 	mov.w	r3, #0	; 0x0
     2dc:	f8c2 3118 	str.w	r3, [r2, #280]
     2e0:	f107 070c 	add.w	r7, r7, #12	; 0xc
     2e4:	46bd      	mov	sp, r7
     2e6:	bc80      	pop	{r7}
     2e8:	4770      	bx	lr
     2ea:	bf00      	nop

000002ec <tx_descr_init>:
     2ec:	b480      	push	{r7}
     2ee:	b083      	sub	sp, #12
     2f0:	af00      	add	r7, sp, #0
     2f2:	f04f 0300 	mov.w	r3, #0	; 0x0
     2f6:	607b      	str	r3, [r7, #4]
     2f8:	e032      	b.n	360 <tx_descr_init+0x74>
     2fa:	687a      	ldr	r2, [r7, #4]
     2fc:	f240 0308 	movw	r3, #8	; 0x8
     300:	f2c0 4301 	movt	r3, #1025	; 0x401
     304:	4413      	add	r3, r2
     306:	ea4f 03c3 	mov.w	r3, r3, lsl #3
     30a:	4619      	mov	r1, r3
     30c:	687a      	ldr	r2, [r7, #4]
     30e:	4613      	mov	r3, r2
     310:	ea4f 0343 	mov.w	r3, r3, lsl #1
     314:	4413      	add	r3, r2
     316:	ea4f 2343 	mov.w	r3, r3, lsl #9
     31a:	461a      	mov	r2, r3
     31c:	f641 0364 	movw	r3, #6244	; 0x1864
     320:	f2c2 0308 	movt	r3, #8200	; 0x2008
     324:	4413      	add	r3, r2
     326:	600b      	str	r3, [r1, #0]
     328:	687b      	ldr	r3, [r7, #4]
     32a:	ea4f 02c3 	mov.w	r2, r3, lsl #3
     32e:	f240 0344 	movw	r3, #68	; 0x44
     332:	f2c2 0308 	movt	r3, #8200	; 0x2008
     336:	4413      	add	r3, r2
     338:	461a      	mov	r2, r3
     33a:	f04f 0300 	mov.w	r3, #0	; 0x0
     33e:	6013      	str	r3, [r2, #0]
     340:	687a      	ldr	r2, [r7, #4]
     342:	f240 0316 	movw	r3, #22	; 0x16
     346:	f6c0 0302 	movt	r3, #2050	; 0x802
     34a:	4413      	add	r3, r2
     34c:	ea4f 0383 	mov.w	r3, r3, lsl #2
     350:	461a      	mov	r2, r3
     352:	f04f 0300 	mov.w	r3, #0	; 0x0
     356:	6013      	str	r3, [r2, #0]
     358:	687b      	ldr	r3, [r7, #4]
     35a:	f103 0301 	add.w	r3, r3, #1	; 0x1
     35e:	607b      	str	r3, [r7, #4]
     360:	687b      	ldr	r3, [r7, #4]
     362:	2b02      	cmp	r3, #2
     364:	d9c9      	bls.n	2fa <tx_descr_init+0xe>
     366:	f04f 42a0 	mov.w	r2, #1342177280	; 0x50000000
     36a:	f240 0340 	movw	r3, #64	; 0x40
     36e:	f2c2 0308 	movt	r3, #8200	; 0x2008
     372:	f8c2 311c 	str.w	r3, [r2, #284]
     376:	f04f 42a0 	mov.w	r2, #1342177280	; 0x50000000
     37a:	f240 0358 	movw	r3, #88	; 0x58
     37e:	f2c2 0308 	movt	r3, #8200	; 0x2008
     382:	f8c2 3120 	str.w	r3, [r2, #288]
     386:	f04f 42a0 	mov.w	r2, #1342177280	; 0x50000000
     38a:	f04f 0302 	mov.w	r3, #2	; 0x2
     38e:	f8c2 3124 	str.w	r3, [r2, #292]
     392:	f04f 42a0 	mov.w	r2, #1342177280	; 0x50000000
     396:	f04f 0300 	mov.w	r3, #0	; 0x0
     39a:	f8c2 3128 	str.w	r3, [r2, #296]
     39e:	f107 070c 	add.w	r7, r7, #12	; 0xc
     3a2:	46bd      	mov	sp, r7
     3a4:	bc80      	pop	{r7}
     3a6:	4770      	bx	lr

000003a8 <Init_EMAC>:
     3a8:	b580      	push	{r7, lr}
     3aa:	b084      	sub	sp, #16
     3ac:	af00      	add	r7, sp, #0
     3ae:	f24c 0200 	movw	r2, #49152	; 0xc000
     3b2:	f2c4 020f 	movt	r2, #16399	; 0x400f
     3b6:	f24c 0300 	movw	r3, #49152	; 0xc000
     3ba:	f2c4 030f 	movt	r3, #16399	; 0x400f
     3be:	f8d3 30c4 	ldr.w	r3, [r3, #196]
     3c2:	f043 4380 	orr.w	r3, r3, #1073741824	; 0x40000000
     3c6:	f8c2 30c4 	str.w	r3, [r2, #196]
     3ca:	f04f 43a0 	mov.w	r3, #1342177280	; 0x50000000
     3ce:	f8d3 2ffc 	ldr.w	r2, [r3, #4092]
     3d2:	f242 0300 	movw	r3, #8192	; 0x2000
     3d6:	f6c3 1302 	movt	r3, #14594	; 0x3902
     3da:	429a      	cmp	r2, r3
     3dc:	d109      	bne.n	3f2 <Init_EMAC+0x4a>
     3de:	f24c 0200 	movw	r2, #49152	; 0xc000
     3e2:	f2c4 0202 	movt	r2, #16386	; 0x4002
     3e6:	f241 1305 	movw	r3, #4357	; 0x1105
     3ea:	f2c5 0315 	movt	r3, #20501	; 0x5015
     3ee:	6093      	str	r3, [r2, #8]
     3f0:	e008      	b.n	404 <Init_EMAC+0x5c>
     3f2:	f24c 0200 	movw	r2, #49152	; 0xc000
     3f6:	f2c4 0202 	movt	r2, #16386	; 0x4002
     3fa:	f240 1305 	movw	r3, #261	; 0x105
     3fe:	f2c5 0315 	movt	r3, #20501	; 0x5015
     402:	6093      	str	r3, [r2, #8]
     404:	f24c 0200 	movw	r2, #49152	; 0xc000
     408:	f2c4 0202 	movt	r2, #16386	; 0x4002
     40c:	f24c 0300 	movw	r3, #49152	; 0xc000
     410:	f2c4 0302 	movt	r3, #16386	; 0x4002
     414:	68db      	ldr	r3, [r3, #12]
     416:	f023 030f 	bic.w	r3, r3, #15	; 0xf
     41a:	f043 0305 	orr.w	r3, r3, #5	; 0x5
     41e:	60d3      	str	r3, [r2, #12]
     420:	f04f 42a0 	mov.w	r2, #1342177280	; 0x50000000
     424:	f44f 434f 	mov.w	r3, #52992	; 0xcf00
     428:	6013      	str	r3, [r2, #0]
     42a:	f04f 42a0 	mov.w	r2, #1342177280	; 0x50000000
     42e:	f04f 0338 	mov.w	r3, #56	; 0x38
     432:	f8c2 3100 	str.w	r3, [r2, #256]
     436:	f04f 0364 	mov.w	r3, #100	; 0x64
     43a:	607b      	str	r3, [r7, #4]
     43c:	e003      	b.n	446 <Init_EMAC+0x9e>
     43e:	687b      	ldr	r3, [r7, #4]
     440:	f103 33ff 	add.w	r3, r3, #4294967295	; 0xffffffff
     444:	607b      	str	r3, [r7, #4]
     446:	687b      	ldr	r3, [r7, #4]
     448:	2b00      	cmp	r3, #0
     44a:	d1f8      	bne.n	43e <Init_EMAC+0x96>
     44c:	f04f 42a0 	mov.w	r2, #1342177280	; 0x50000000
     450:	f04f 0302 	mov.w	r3, #2	; 0x2
     454:	6013      	str	r3, [r2, #0]
     456:	f04f 42a0 	mov.w	r2, #1342177280	; 0x50000000
     45a:	f04f 0330 	mov.w	r3, #48	; 0x30
     45e:	6053      	str	r3, [r2, #4]
     460:	f04f 42a0 	mov.w	r2, #1342177280	; 0x50000000
     464:	f44f 63c0 	mov.w	r3, #1536	; 0x600
     468:	6153      	str	r3, [r2, #20]
     46a:	f04f 42a0 	mov.w	r2, #1342177280	; 0x50000000
     46e:	f243 730f 	movw	r3, #14095	; 0x370f
     472:	6113      	str	r3, [r2, #16]
     474:	f04f 42a0 	mov.w	r2, #1342177280	; 0x50000000
     478:	f04f 0312 	mov.w	r3, #18	; 0x12
     47c:	60d3      	str	r3, [r2, #12]
     47e:	f04f 42a0 	mov.w	r2, #1342177280	; 0x50000000
     482:	f44f 7310 	mov.w	r3, #576	; 0x240
     486:	f8c2 3100 	str.w	r3, [r2, #256]
     48a:	f04f 42a0 	mov.w	r2, #1342177280	; 0x50000000
     48e:	f44f 6300 	mov.w	r3, #2048	; 0x800
     492:	6193      	str	r3, [r2, #24]
     494:	f04f 0364 	mov.w	r3, #100	; 0x64
     498:	607b      	str	r3, [r7, #4]
     49a:	e003      	b.n	4a4 <Init_EMAC+0xfc>
     49c:	687b      	ldr	r3, [r7, #4]
     49e:	f103 33ff 	add.w	r3, r3, #4294967295	; 0xffffffff
     4a2:	607b      	str	r3, [r7, #4]
     4a4:	687b      	ldr	r3, [r7, #4]
     4a6:	2b00      	cmp	r3, #0
     4a8:	d1f8      	bne.n	49c <Init_EMAC+0xf4>
     4aa:	f04f 43a0 	mov.w	r3, #1342177280	; 0x50000000
     4ae:	f04f 0200 	mov.w	r2, #0	; 0x0
     4b2:	619a      	str	r2, [r3, #24]
     4b4:	f04f 0000 	mov.w	r0, #0	; 0x0
     4b8:	f44f 4100 	mov.w	r1, #32768	; 0x8000
     4bc:	f7ff fe44 	bl	148 <write_PHY>
     4c0:	f04f 0300 	mov.w	r3, #0	; 0x0
     4c4:	607b      	str	r3, [r7, #4]
     4c6:	e00e      	b.n	4e6 <Init_EMAC+0x13e>
     4c8:	f04f 0000 	mov.w	r0, #0	; 0x0
     4cc:	f7ff fe6a 	bl	1a4 <read_PHY>
     4d0:	4603      	mov	r3, r0
     4d2:	603b      	str	r3, [r7, #0]
     4d4:	683b      	ldr	r3, [r7, #0]
     4d6:	f403 4300 	and.w	r3, r3, #32768	; 0x8000
     4da:	2b00      	cmp	r3, #0
     4dc:	d00a      	beq.n	4f4 <Init_EMAC+0x14c>
     4de:	687b      	ldr	r3, [r7, #4]
     4e0:	f103 0301 	add.w	r3, r3, #1	; 0x1
     4e4:	607b      	str	r3, [r7, #4]
     4e6:	687a      	ldr	r2, [r7, #4]
     4e8:	f64f 73ff 	movw	r3, #65535	; 0xffff
     4ec:	f2c0 030f 	movt	r3, #15	; 0xf
     4f0:	429a      	cmp	r2, r3
     4f2:	d9e9      	bls.n	4c8 <Init_EMAC+0x120>
     4f4:	f04f 0002 	mov.w	r0, #2	; 0x2
     4f8:	f7ff fe54 	bl	1a4 <read_PHY>
     4fc:	4603      	mov	r3, r0
     4fe:	60bb      	str	r3, [r7, #8]
     500:	f04f 0003 	mov.w	r0, #3	; 0x3
     504:	f7ff fe4e 	bl	1a4 <read_PHY>
     508:	4603      	mov	r3, r0
     50a:	60fb      	str	r3, [r7, #12]
     50c:	68bb      	ldr	r3, [r7, #8]
     50e:	ea4f 4103 	mov.w	r1, r3, lsl #16
     512:	68fa      	ldr	r2, [r7, #12]
     514:	f64f 73f0 	movw	r3, #65520	; 0xfff0
     518:	f2c0 0300 	movt	r3, #0	; 0x0
     51c:	ea02 0303 	and.w	r3, r2, r3
     520:	ea41 0203 	orr.w	r2, r1, r3
     524:	f645 4390 	movw	r3, #23696	; 0x5c90
     528:	f2c2 0300 	movt	r3, #8192	; 0x2000
     52c:	429a      	cmp	r2, r3
     52e:	d11f      	bne.n	570 <Init_EMAC+0x1c8>
     530:	f04f 0000 	mov.w	r0, #0	; 0x0
     534:	f44f 5140 	mov.w	r1, #12288	; 0x3000
     538:	f7ff fe06 	bl	148 <write_PHY>
     53c:	f04f 0300 	mov.w	r3, #0	; 0x0
     540:	607b      	str	r3, [r7, #4]
     542:	e00e      	b.n	562 <Init_EMAC+0x1ba>
     544:	f04f 0001 	mov.w	r0, #1	; 0x1
     548:	f7ff fe2c 	bl	1a4 <read_PHY>
     54c:	4603      	mov	r3, r0
     54e:	603b      	str	r3, [r7, #0]
     550:	683b      	ldr	r3, [r7, #0]
     552:	f003 0320 	and.w	r3, r3, #32	; 0x20
     556:	2b00      	cmp	r3, #0
     558:	d10a      	bne.n	570 <Init_EMAC+0x1c8>
     55a:	687b      	ldr	r3, [r7, #4]
     55c:	f103 0301 	add.w	r3, r3, #1	; 0x1
     560:	607b      	str	r3, [r7, #4]
     562:	687a      	ldr	r2, [r7, #4]
     564:	f64f 73ff 	movw	r3, #65535	; 0xffff
     568:	f2c0 030f 	movt	r3, #15	; 0xf
     56c:	429a      	cmp	r2, r3
     56e:	d9e9      	bls.n	544 <Init_EMAC+0x19c>
     570:	f04f 0300 	mov.w	r3, #0	; 0x0
     574:	607b      	str	r3, [r7, #4]
     576:	e00f      	b.n	598 <Init_EMAC+0x1f0>
     578:	f04f 0010 	mov.w	r0, #16	; 0x10
     57c:	f7ff fe12 	bl	1a4 <read_PHY>
     580:	4603      	mov	r3, r0
     582:	603b      	str	r3, [r7, #0]
     584:	683b      	ldr	r3, [r7, #0]
     586:	f003 0301 	and.w	r3, r3, #1	; 0x1
     58a:	b2db      	uxtb	r3, r3
     58c:	2b00      	cmp	r3, #0
     58e:	d108      	bne.n	5a2 <Init_EMAC+0x1fa>
     590:	687b      	ldr	r3, [r7, #4]
     592:	f103 0301 	add.w	r3, r3, #1	; 0x1
     596:	607b      	str	r3, [r7, #4]
     598:	687a      	ldr	r2, [r7, #4]
     59a:	f64f 73ff 	movw	r3, #65535	; 0xffff
     59e:	429a      	cmp	r2, r3
     5a0:	d9ea      	bls.n	578 <Init_EMAC+0x1d0>
     5a2:	683b      	ldr	r3, [r7, #0]
     5a4:	f003 0304 	and.w	r3, r3, #4	; 0x4
     5a8:	2b00      	cmp	r3, #0
     5aa:	d017      	beq.n	5dc <Init_EMAC+0x234>
     5ac:	f04f 42a0 	mov.w	r2, #1342177280	; 0x50000000
     5b0:	f04f 43a0 	mov.w	r3, #1342177280	; 0x50000000
     5b4:	685b      	ldr	r3, [r3, #4]
     5b6:	f043 0301 	orr.w	r3, r3, #1	; 0x1
     5ba:	6053      	str	r3, [r2, #4]
     5bc:	f04f 42a0 	mov.w	r2, #1342177280	; 0x50000000
     5c0:	f04f 43a0 	mov.w	r3, #1342177280	; 0x50000000
     5c4:	f8d3 3100 	ldr.w	r3, [r3, #256]
     5c8:	f443 6380 	orr.w	r3, r3, #1024	; 0x400
     5cc:	f8c2 3100 	str.w	r3, [r2, #256]
     5d0:	f04f 42a0 	mov.w	r2, #1342177280	; 0x50000000
     5d4:	f04f 0315 	mov.w	r3, #21	; 0x15
     5d8:	6093      	str	r3, [r2, #8]
     5da:	e004      	b.n	5e6 <Init_EMAC+0x23e>
     5dc:	f04f 42a0 	mov.w	r2, #1342177280	; 0x50000000
     5e0:	f04f 0312 	mov.w	r3, #18	; 0x12
     5e4:	6093      	str	r3, [r2, #8]
     5e6:	683b      	ldr	r3, [r7, #0]
     5e8:	f003 0302 	and.w	r3, r3, #2	; 0x2
     5ec:	2b00      	cmp	r3, #0
     5ee:	d005      	beq.n	5fc <Init_EMAC+0x254>
     5f0:	f04f 42a0 	mov.w	r2, #1342177280	; 0x50000000
     5f4:	f04f 0300 	mov.w	r3, #0	; 0x0
     5f8:	6193      	str	r3, [r2, #24]
     5fa:	e004      	b.n	606 <Init_EMAC+0x25e>
     5fc:	f04f 42a0 	mov.w	r2, #1342177280	; 0x50000000
     600:	f44f 7380 	mov.w	r3, #256	; 0x100
     604:	6193      	str	r3, [r2, #24]
     606:	f04f 42a0 	mov.w	r2, #1342177280	; 0x50000000
     60a:	f645 6345 	movw	r3, #24133	; 0x5e45
     60e:	6413      	str	r3, [r2, #64]
     610:	f04f 42a0 	mov.w	r2, #1342177280	; 0x50000000
     614:	f24a 236c 	movw	r3, #41580	; 0xa26c
     618:	6453      	str	r3, [r2, #68]
     61a:	f04f 42a0 	mov.w	r2, #1342177280	; 0x50000000
     61e:	f243 031e 	movw	r3, #12318	; 0x301e
     622:	6493      	str	r3, [r2, #72]
     624:	f7ff fdf6 	bl	214 <rx_descr_init>
     628:	f7ff fe60 	bl	2ec <tx_descr_init>
     62c:	f04f 42a0 	mov.w	r2, #1342177280	; 0x50000000
     630:	f04f 0322 	mov.w	r3, #34	; 0x22
     634:	f8c2 3200 	str.w	r3, [r2, #512]
     638:	f04f 42a0 	mov.w	r2, #1342177280	; 0x50000000
     63c:	f04f 0388 	mov.w	r3, #136	; 0x88
     640:	f8c2 3fe4 	str.w	r3, [r2, #4068]
     644:	f04f 42a0 	mov.w	r2, #1342177280	; 0x50000000
     648:	f64f 73ff 	movw	r3, #65535	; 0xffff
     64c:	f8c2 3fe8 	str.w	r3, [r2, #4072]
     650:	f04f 42a0 	mov.w	r2, #1342177280	; 0x50000000
     654:	f04f 43a0 	mov.w	r3, #1342177280	; 0x50000000
     658:	f8d3 3100 	ldr.w	r3, [r3, #256]
     65c:	f043 0303 	orr.w	r3, r3, #3	; 0x3
     660:	f8c2 3100 	str.w	r3, [r2, #256]
     664:	f04f 42a0 	mov.w	r2, #1342177280	; 0x50000000
     668:	f04f 43a0 	mov.w	r3, #1342177280	; 0x50000000
     66c:	681b      	ldr	r3, [r3, #0]
     66e:	f043 0301 	orr.w	r3, r3, #1	; 0x1
     672:	6013      	str	r3, [r2, #0]
     674:	f107 0710 	add.w	r7, r7, #16	; 0x10
     678:	46bd      	mov	sp, r7
     67a:	bd80      	pop	{r7, pc}

0000067c <ReadFrame_EMAC>:
     67c:	b480      	push	{r7}
     67e:	af00      	add	r7, sp, #0
     680:	f640 0358 	movw	r3, #2136	; 0x858
     684:	f2c1 0300 	movt	r3, #4096	; 0x1000
     688:	681b      	ldr	r3, [r3, #0]
     68a:	8819      	ldrh	r1, [r3, #0]
     68c:	f103 0202 	add.w	r2, r3, #2	; 0x2
     690:	f640 0358 	movw	r3, #2136	; 0x858
     694:	f2c1 0300 	movt	r3, #4096	; 0x1000
     698:	601a      	str	r2, [r3, #0]
     69a:	460b      	mov	r3, r1
     69c:	4618      	mov	r0, r3
     69e:	46bd      	mov	sp, r7
     6a0:	bc80      	pop	{r7}
     6a2:	4770      	bx	lr

000006a4 <ReadFrameBE_EMAC>:
     6a4:	b580      	push	{r7, lr}
     6a6:	b082      	sub	sp, #8
     6a8:	af00      	add	r7, sp, #0
     6aa:	f640 0358 	movw	r3, #2136	; 0x858
     6ae:	f2c1 0300 	movt	r3, #4096	; 0x1000
     6b2:	681b      	ldr	r3, [r3, #0]
     6b4:	8819      	ldrh	r1, [r3, #0]
     6b6:	f103 0202 	add.w	r2, r3, #2	; 0x2
     6ba:	f640 0358 	movw	r3, #2136	; 0x858
     6be:	f2c1 0300 	movt	r3, #4096	; 0x1000
     6c2:	601a      	str	r2, [r3, #0]
     6c4:	4608      	mov	r0, r1
     6c6:	f002 f92d 	bl	2924 <SwapBytes>
     6ca:	4603      	mov	r3, r0
     6cc:	80fb      	strh	r3, [r7, #6]
     6ce:	88fb      	ldrh	r3, [r7, #6]
     6d0:	4618      	mov	r0, r3
     6d2:	f107 0708 	add.w	r7, r7, #8	; 0x8
     6d6:	46bd      	mov	sp, r7
     6d8:	bd80      	pop	{r7, pc}
     6da:	bf00      	nop

000006dc <CopyFromFrame_EMAC>:
     6dc:	b590      	push	{r4, r7, lr}
     6de:	b085      	sub	sp, #20
     6e0:	af00      	add	r7, sp, #0
     6e2:	6078      	str	r0, [r7, #4]
     6e4:	460b      	mov	r3, r1
     6e6:	807b      	strh	r3, [r7, #2]
     6e8:	687b      	ldr	r3, [r7, #4]
     6ea:	60fb      	str	r3, [r7, #12]
     6ec:	e00c      	b.n	708 <CopyFromFrame_EMAC+0x2c>
     6ee:	f7ff ffc5 	bl	67c <ReadFrame_EMAC>
     6f2:	4603      	mov	r3, r0
     6f4:	68fa      	ldr	r2, [r7, #12]
     6f6:	8013      	strh	r3, [r2, #0]
     6f8:	68fb      	ldr	r3, [r7, #12]
     6fa:	f103 0302 	add.w	r3, r3, #2	; 0x2
     6fe:	60fb      	str	r3, [r7, #12]
     700:	887b      	ldrh	r3, [r7, #2]
     702:	f1a3 0302 	sub.w	r3, r3, #2	; 0x2
     706:	807b      	strh	r3, [r7, #2]
     708:	887b      	ldrh	r3, [r7, #2]
     70a:	2b01      	cmp	r3, #1
     70c:	d8ef      	bhi.n	6ee <CopyFromFrame_EMAC+0x12>
     70e:	887b      	ldrh	r3, [r7, #2]
     710:	2b00      	cmp	r3, #0
     712:	d005      	beq.n	720 <CopyFromFrame_EMAC+0x44>
     714:	68fc      	ldr	r4, [r7, #12]
     716:	f7ff ffb1 	bl	67c <ReadFrame_EMAC>
     71a:	4603      	mov	r3, r0
     71c:	b2db      	uxtb	r3, r3
     71e:	7023      	strb	r3, [r4, #0]
     720:	f107 0714 	add.w	r7, r7, #20	; 0x14
     724:	46bd      	mov	sp, r7
     726:	bd90      	pop	{r4, r7, pc}

00000728 <DummyReadFrame_EMAC>:
     728:	b580      	push	{r7, lr}
     72a:	b082      	sub	sp, #8
     72c:	af00      	add	r7, sp, #0
     72e:	4603      	mov	r3, r0
     730:	80fb      	strh	r3, [r7, #6]
     732:	e005      	b.n	740 <DummyReadFrame_EMAC+0x18>
     734:	f7ff ffa2 	bl	67c <ReadFrame_EMAC>
     738:	88fb      	ldrh	r3, [r7, #6]
     73a:	f1a3 0302 	sub.w	r3, r3, #2	; 0x2
     73e:	80fb      	strh	r3, [r7, #6]
     740:	88fb      	ldrh	r3, [r7, #6]
     742:	2b01      	cmp	r3, #1
     744:	d8f6      	bhi.n	734 <DummyReadFrame_EMAC+0xc>
     746:	f107 0708 	add.w	r7, r7, #8	; 0x8
     74a:	46bd      	mov	sp, r7
     74c:	bd80      	pop	{r7, pc}
     74e:	bf00      	nop

00000750 <StartReadFrame>:
     750:	b480      	push	{r7}
     752:	b085      	sub	sp, #20
     754:	af00      	add	r7, sp, #0
     756:	f04f 43a0 	mov.w	r3, #1342177280	; 0x50000000
     75a:	f8d3 3118 	ldr.w	r3, [r3, #280]
     75e:	60fb      	str	r3, [r7, #12]
     760:	68fa      	ldr	r2, [r7, #12]
     762:	f240 0304 	movw	r3, #4	; 0x4
     766:	f2c0 4301 	movt	r3, #1025	; 0x401
     76a:	4413      	add	r3, r2
     76c:	ea4f 03c3 	mov.w	r3, r3, lsl #3
     770:	681b      	ldr	r3, [r3, #0]
     772:	b29b      	uxth	r3, r3
     774:	607b      	str	r3, [r7, #4]
     776:	687a      	ldr	r2, [r7, #4]
     778:	ea4f 5342 	mov.w	r3, r2, lsl #21
     77c:	ea4f 5353 	mov.w	r3, r3, lsr #21
     780:	607b      	str	r3, [r7, #4]
     782:	687a      	ldr	r2, [r7, #4]
     784:	f1a2 0303 	sub.w	r3, r2, #3	; 0x3
     788:	817b      	strh	r3, [r7, #10]
     78a:	68fb      	ldr	r3, [r7, #12]
     78c:	f103 6380 	add.w	r3, r3, #67108864	; 0x4000000
     790:	f503 3380 	add.w	r3, r3, #65536	; 0x10000
     794:	ea4f 03c3 	mov.w	r3, r3, lsl #3
     798:	681b      	ldr	r3, [r3, #0]
     79a:	461a      	mov	r2, r3
     79c:	f640 0358 	movw	r3, #2136	; 0x858
     7a0:	f2c1 0300 	movt	r3, #4096	; 0x1000
     7a4:	601a      	str	r2, [r3, #0]
     7a6:	897b      	ldrh	r3, [r7, #10]
     7a8:	4618      	mov	r0, r3
     7aa:	f107 0714 	add.w	r7, r7, #20	; 0x14
     7ae:	46bd      	mov	sp, r7
     7b0:	bc80      	pop	{r7}
     7b2:	4770      	bx	lr

000007b4 <EndReadFrame>:
     7b4:	b480      	push	{r7}
     7b6:	b083      	sub	sp, #12
     7b8:	af00      	add	r7, sp, #0
     7ba:	f04f 43a0 	mov.w	r3, #1342177280	; 0x50000000
     7be:	f8d3 3118 	ldr.w	r3, [r3, #280]
     7c2:	607b      	str	r3, [r7, #4]
     7c4:	687b      	ldr	r3, [r7, #4]
     7c6:	f103 0301 	add.w	r3, r3, #1	; 0x1
     7ca:	607b      	str	r3, [r7, #4]
     7cc:	687b      	ldr	r3, [r7, #4]
     7ce:	2b04      	cmp	r3, #4
     7d0:	d102      	bne.n	7d8 <EndReadFrame+0x24>
     7d2:	f04f 0300 	mov.w	r3, #0	; 0x0
     7d6:	607b      	str	r3, [r7, #4]
     7d8:	f04f 42a0 	mov.w	r2, #1342177280	; 0x50000000
     7dc:	687b      	ldr	r3, [r7, #4]
     7de:	f8c2 3118 	str.w	r3, [r2, #280]
     7e2:	f107 070c 	add.w	r7, r7, #12	; 0xc
     7e6:	46bd      	mov	sp, r7
     7e8:	bc80      	pop	{r7}
     7ea:	4770      	bx	lr

000007ec <CheckFrameReceived>:
     7ec:	b480      	push	{r7}
     7ee:	b083      	sub	sp, #12
     7f0:	af00      	add	r7, sp, #0
     7f2:	f04f 43a0 	mov.w	r3, #1342177280	; 0x50000000
     7f6:	f8d3 2114 	ldr.w	r2, [r3, #276]
     7fa:	f04f 43a0 	mov.w	r3, #1342177280	; 0x50000000
     7fe:	f8d3 3118 	ldr.w	r3, [r3, #280]
     802:	429a      	cmp	r2, r3
     804:	d003      	beq.n	80e <CheckFrameReceived+0x22>
     806:	f04f 0301 	mov.w	r3, #1	; 0x1
     80a:	607b      	str	r3, [r7, #4]
     80c:	e002      	b.n	814 <CheckFrameReceived+0x28>
     80e:	f04f 0300 	mov.w	r3, #0	; 0x0
     812:	607b      	str	r3, [r7, #4]
     814:	687b      	ldr	r3, [r7, #4]
     816:	4618      	mov	r0, r3
     818:	f107 070c 	add.w	r7, r7, #12	; 0xc
     81c:	46bd      	mov	sp, r7
     81e:	bc80      	pop	{r7}
     820:	4770      	bx	lr
     822:	bf00      	nop

00000824 <RequestSend>:
     824:	b480      	push	{r7}
     826:	b085      	sub	sp, #20
     828:	af00      	add	r7, sp, #0
     82a:	4603      	mov	r3, r0
     82c:	80fb      	strh	r3, [r7, #6]
     82e:	f04f 43a0 	mov.w	r3, #1342177280	; 0x50000000
     832:	f8d3 3128 	ldr.w	r3, [r3, #296]
     836:	60fb      	str	r3, [r7, #12]
     838:	68fa      	ldr	r2, [r7, #12]
     83a:	f240 0308 	movw	r3, #8	; 0x8
     83e:	f2c0 4301 	movt	r3, #1025	; 0x401
     842:	4413      	add	r3, r2
     844:	ea4f 03c3 	mov.w	r3, r3, lsl #3
     848:	681b      	ldr	r3, [r3, #0]
     84a:	461a      	mov	r2, r3
     84c:	f640 035c 	movw	r3, #2140	; 0x85c
     850:	f2c1 0300 	movt	r3, #4096	; 0x1000
     854:	601a      	str	r2, [r3, #0]
     856:	68fb      	ldr	r3, [r7, #12]
     858:	ea4f 02c3 	mov.w	r2, r3, lsl #3
     85c:	f240 0344 	movw	r3, #68	; 0x44
     860:	f2c2 0308 	movt	r3, #8200	; 0x2008
     864:	4413      	add	r3, r2
     866:	461a      	mov	r2, r3
     868:	88fb      	ldrh	r3, [r7, #6]
     86a:	f043 4380 	orr.w	r3, r3, #1073741824	; 0x40000000
     86e:	6013      	str	r3, [r2, #0]
     870:	f107 0714 	add.w	r7, r7, #20	; 0x14
     874:	46bd      	mov	sp, r7
     876:	bc80      	pop	{r7}
     878:	4770      	bx	lr
     87a:	bf00      	nop

0000087c <Rdy4Tx>:
     87c:	b480      	push	{r7}
     87e:	af00      	add	r7, sp, #0
     880:	f04f 0301 	mov.w	r3, #1	; 0x1
     884:	4618      	mov	r0, r3
     886:	46bd      	mov	sp, r7
     888:	bc80      	pop	{r7}
     88a:	4770      	bx	lr

0000088c <WriteFrame_EMAC>:
     88c:	b480      	push	{r7}
     88e:	b083      	sub	sp, #12
     890:	af00      	add	r7, sp, #0
     892:	4603      	mov	r3, r0
     894:	80fb      	strh	r3, [r7, #6]
     896:	f640 035c 	movw	r3, #2140	; 0x85c
     89a:	f2c1 0300 	movt	r3, #4096	; 0x1000
     89e:	681a      	ldr	r2, [r3, #0]
     8a0:	88fb      	ldrh	r3, [r7, #6]
     8a2:	8013      	strh	r3, [r2, #0]
     8a4:	f102 0202 	add.w	r2, r2, #2	; 0x2
     8a8:	f640 035c 	movw	r3, #2140	; 0x85c
     8ac:	f2c1 0300 	movt	r3, #4096	; 0x1000
     8b0:	601a      	str	r2, [r3, #0]
     8b2:	f107 070c 	add.w	r7, r7, #12	; 0xc
     8b6:	46bd      	mov	sp, r7
     8b8:	bc80      	pop	{r7}
     8ba:	4770      	bx	lr

000008bc <CopyToFrame_EMAC>:
     8bc:	b580      	push	{r7, lr}
     8be:	b084      	sub	sp, #16
     8c0:	af00      	add	r7, sp, #0
     8c2:	6078      	str	r0, [r7, #4]
     8c4:	6039      	str	r1, [r7, #0]
     8c6:	687b      	ldr	r3, [r7, #4]
     8c8:	60bb      	str	r3, [r7, #8]
     8ca:	683b      	ldr	r3, [r7, #0]
     8cc:	f103 0201 	add.w	r2, r3, #1	; 0x1
     8d0:	f64f 73fe 	movw	r3, #65534	; 0xfffe
     8d4:	f2c0 0300 	movt	r3, #0	; 0x0
     8d8:	ea02 0303 	and.w	r3, r2, r3
     8dc:	603b      	str	r3, [r7, #0]
     8de:	e00c      	b.n	8fa <CopyToFrame_EMAC+0x3e>
     8e0:	68bb      	ldr	r3, [r7, #8]
     8e2:	881a      	ldrh	r2, [r3, #0]
     8e4:	68bb      	ldr	r3, [r7, #8]
     8e6:	f103 0302 	add.w	r3, r3, #2	; 0x2
     8ea:	60bb      	str	r3, [r7, #8]
     8ec:	4610      	mov	r0, r2
     8ee:	f7ff ffcd 	bl	88c <WriteFrame_EMAC>
     8f2:	683b      	ldr	r3, [r7, #0]
     8f4:	f1a3 0302 	sub.w	r3, r3, #2	; 0x2
     8f8:	603b      	str	r3, [r7, #0]
     8fa:	683b      	ldr	r3, [r7, #0]
     8fc:	2b00      	cmp	r3, #0
     8fe:	d1ef      	bne.n	8e0 <CopyToFrame_EMAC+0x24>
     900:	f04f 43a0 	mov.w	r3, #1342177280	; 0x50000000
     904:	f8d3 3128 	ldr.w	r3, [r3, #296]
     908:	60fb      	str	r3, [r7, #12]
     90a:	68fb      	ldr	r3, [r7, #12]
     90c:	f103 0301 	add.w	r3, r3, #1	; 0x1
     910:	60fb      	str	r3, [r7, #12]
     912:	68fb      	ldr	r3, [r7, #12]
     914:	2b03      	cmp	r3, #3
     916:	d102      	bne.n	91e <CopyToFrame_EMAC+0x62>
     918:	f04f 0300 	mov.w	r3, #0	; 0x0
     91c:	60fb      	str	r3, [r7, #12]
     91e:	f04f 42a0 	mov.w	r2, #1342177280	; 0x50000000
     922:	68fb      	ldr	r3, [r7, #12]
     924:	f8c2 3128 	str.w	r3, [r2, #296]
     928:	f107 0710 	add.w	r7, r7, #16	; 0x10
     92c:	46bd      	mov	sp, r7
     92e:	bd80      	pop	{r7, pc}

00000930 <main>:
     930:	b580      	push	{r7, lr}
     932:	af00      	add	r7, sp, #0
     934:	f002 f954 	bl	2be0 <SystemInit>
     938:	f000 f9f8 	bl	d2c <TCPLowLevelInit>
     93c:	f640 03aa 	movw	r3, #2218	; 0x8aa
     940:	f2c1 0300 	movt	r3, #4096	; 0x1000
     944:	f04f 0200 	mov.w	r2, #0	; 0x0
     948:	701a      	strb	r2, [r3, #0]
     94a:	f640 03c0 	movw	r3, #2240	; 0x8c0
     94e:	f2c1 0300 	movt	r3, #4096	; 0x1000
     952:	f04f 0250 	mov.w	r2, #80	; 0x50
     956:	801a      	strh	r2, [r3, #0]
     958:	f640 436d 	movw	r3, #3181	; 0xc6d
     95c:	f2c1 0300 	movt	r3, #4096	; 0x1000
     960:	781b      	ldrb	r3, [r3, #0]
     962:	f003 0301 	and.w	r3, r3, #1	; 0x1
     966:	2b00      	cmp	r3, #0
     968:	d101      	bne.n	96e <main+0x3e>
     96a:	f000 fa77 	bl	e5c <TCPPassiveOpen>
     96e:	f000 fbbd 	bl	10ec <DoNetworkStuff>
     972:	f000 f801 	bl	978 <HTTPServer>
     976:	e7ef      	b.n	958 <main+0x28>

00000978 <HTTPServer>:
     978:	b580      	push	{r7, lr}
     97a:	af00      	add	r7, sp, #0
     97c:	f640 436d 	movw	r3, #3181	; 0xc6d
     980:	f2c1 0300 	movt	r3, #4096	; 0x1000
     984:	781b      	ldrb	r3, [r3, #0]
     986:	f003 0302 	and.w	r3, r3, #2	; 0x2
     98a:	2b00      	cmp	r3, #0
     98c:	f000 80d7 	beq.w	b3e <HTTPServer+0x1c6>
     990:	f640 436d 	movw	r3, #3181	; 0xc6d
     994:	f2c1 0300 	movt	r3, #4096	; 0x1000
     998:	781b      	ldrb	r3, [r3, #0]
     99a:	f003 0304 	and.w	r3, r3, #4	; 0x4
     99e:	2b00      	cmp	r3, #0
     9a0:	d001      	beq.n	9a6 <HTTPServer+0x2e>
     9a2:	f000 fafd 	bl	fa0 <TCPReleaseRxBuffer>
     9a6:	f640 436d 	movw	r3, #3181	; 0xc6d
     9aa:	f2c1 0300 	movt	r3, #4096	; 0x1000
     9ae:	781b      	ldrb	r3, [r3, #0]
     9b0:	f003 0308 	and.w	r3, r3, #8	; 0x8
     9b4:	2b00      	cmp	r3, #0
     9b6:	f000 80cf 	beq.w	b58 <HTTPServer+0x1e0>
     9ba:	f640 03aa 	movw	r3, #2218	; 0x8aa
     9be:	f2c1 0300 	movt	r3, #4096	; 0x1000
     9c2:	781b      	ldrb	r3, [r3, #0]
     9c4:	f003 0301 	and.w	r3, r3, #1	; 0x1
     9c8:	2b00      	cmp	r3, #0
     9ca:	d10f      	bne.n	9ec <HTTPServer+0x74>
     9cc:	f640 03a4 	movw	r3, #2212	; 0x8a4
     9d0:	f2c1 0300 	movt	r3, #4096	; 0x1000
     9d4:	f240 52df 	movw	r2, #1503	; 0x5df
     9d8:	601a      	str	r2, [r3, #0]
     9da:	f248 5234 	movw	r2, #34100	; 0x8534
     9de:	f2c0 0200 	movt	r2, #0	; 0x0
     9e2:	f640 13cc 	movw	r3, #2508	; 0x9cc
     9e6:	f2c1 0300 	movt	r3, #4096	; 0x1000
     9ea:	601a      	str	r2, [r3, #0]
     9ec:	f640 03a4 	movw	r3, #2212	; 0x8a4
     9f0:	f2c1 0300 	movt	r3, #4096	; 0x1000
     9f4:	681b      	ldr	r3, [r3, #0]
     9f6:	f5b3 7f00 	cmp.w	r3, #512	; 0x200
     9fa:	d964      	bls.n	ac6 <HTTPServer+0x14e>
     9fc:	f640 03aa 	movw	r3, #2218	; 0x8aa
     a00:	f2c1 0300 	movt	r3, #4096	; 0x1000
     a04:	781b      	ldrb	r3, [r3, #0]
     a06:	f003 0301 	and.w	r3, r3, #1	; 0x1
     a0a:	2b00      	cmp	r3, #0
     a0c:	d12c      	bne.n	a68 <HTTPServer+0xf0>
     a0e:	4853      	ldr	r0, [pc, #332]	(b5c <HTTPServer+0x1e4>)
     a10:	f248 41f8 	movw	r1, #34040	; 0x84f8
     a14:	f2c0 0100 	movt	r1, #0	; 0x0
     a18:	f04f 022c 	mov.w	r2, #44	; 0x2c
     a1c:	f002 fb00 	bl	3020 <memcpy>
     a20:	f640 13cc 	movw	r3, #2508	; 0x9cc
     a24:	f2c1 0300 	movt	r3, #4096	; 0x1000
     a28:	681b      	ldr	r3, [r3, #0]
     a2a:	484d      	ldr	r0, [pc, #308]	(b60 <HTTPServer+0x1e8>)
     a2c:	4619      	mov	r1, r3
     a2e:	f44f 72ea 	mov.w	r2, #468	; 0x1d4
     a32:	f002 faf5 	bl	3020 <memcpy>
     a36:	f640 03a4 	movw	r3, #2212	; 0x8a4
     a3a:	f2c1 0300 	movt	r3, #4096	; 0x1000
     a3e:	681b      	ldr	r3, [r3, #0]
     a40:	f5a3 72ea 	sub.w	r2, r3, #468	; 0x1d4
     a44:	f640 03a4 	movw	r3, #2212	; 0x8a4
     a48:	f2c1 0300 	movt	r3, #4096	; 0x1000
     a4c:	601a      	str	r2, [r3, #0]
     a4e:	f640 13cc 	movw	r3, #2508	; 0x9cc
     a52:	f2c1 0300 	movt	r3, #4096	; 0x1000
     a56:	681b      	ldr	r3, [r3, #0]
     a58:	f503 72ea 	add.w	r2, r3, #468	; 0x1d4
     a5c:	f640 13cc 	movw	r3, #2508	; 0x9cc
     a60:	f2c1 0300 	movt	r3, #4096	; 0x1000
     a64:	601a      	str	r2, [r3, #0]
     a66:	e022      	b.n	aae <HTTPServer+0x136>
     a68:	f640 13cc 	movw	r3, #2508	; 0x9cc
     a6c:	f2c1 0300 	movt	r3, #4096	; 0x1000
     a70:	681b      	ldr	r3, [r3, #0]
     a72:	483a      	ldr	r0, [pc, #232]	(b5c <HTTPServer+0x1e4>)
     a74:	4619      	mov	r1, r3
     a76:	f44f 7200 	mov.w	r2, #512	; 0x200
     a7a:	f002 fad1 	bl	3020 <memcpy>
     a7e:	f640 03a4 	movw	r3, #2212	; 0x8a4
     a82:	f2c1 0300 	movt	r3, #4096	; 0x1000
     a86:	681b      	ldr	r3, [r3, #0]
     a88:	f5a3 7200 	sub.w	r2, r3, #512	; 0x200
     a8c:	f640 03a4 	movw	r3, #2212	; 0x8a4
     a90:	f2c1 0300 	movt	r3, #4096	; 0x1000
     a94:	601a      	str	r2, [r3, #0]
     a96:	f640 13cc 	movw	r3, #2508	; 0x9cc
     a9a:	f2c1 0300 	movt	r3, #4096	; 0x1000
     a9e:	681b      	ldr	r3, [r3, #0]
     aa0:	f503 7200 	add.w	r2, r3, #512	; 0x200
     aa4:	f640 13cc 	movw	r3, #2508	; 0x9cc
     aa8:	f2c1 0300 	movt	r3, #4096	; 0x1000
     aac:	601a      	str	r2, [r3, #0]
     aae:	f640 03ac 	movw	r3, #2220	; 0x8ac
     ab2:	f2c1 0300 	movt	r3, #4096	; 0x1000
     ab6:	f44f 7200 	mov.w	r2, #512	; 0x200
     aba:	801a      	strh	r2, [r3, #0]
     abc:	f000 f8c6 	bl	c4c <InsertDynamicValues>
     ac0:	f000 fa80 	bl	fc4 <TCPTransmitTxBuffer>
     ac4:	e02d      	b.n	b22 <HTTPServer+0x1aa>
     ac6:	f640 03a4 	movw	r3, #2212	; 0x8a4
     aca:	f2c1 0300 	movt	r3, #4096	; 0x1000
     ace:	681b      	ldr	r3, [r3, #0]
     ad0:	2b00      	cmp	r3, #0
     ad2:	d026      	beq.n	b22 <HTTPServer+0x1aa>
     ad4:	f640 13cc 	movw	r3, #2508	; 0x9cc
     ad8:	f2c1 0300 	movt	r3, #4096	; 0x1000
     adc:	681a      	ldr	r2, [r3, #0]
     ade:	f640 03a4 	movw	r3, #2212	; 0x8a4
     ae2:	f2c1 0300 	movt	r3, #4096	; 0x1000
     ae6:	681b      	ldr	r3, [r3, #0]
     ae8:	481c      	ldr	r0, [pc, #112]	(b5c <HTTPServer+0x1e4>)
     aea:	4611      	mov	r1, r2
     aec:	461a      	mov	r2, r3
     aee:	f002 fa97 	bl	3020 <memcpy>
     af2:	f640 03a4 	movw	r3, #2212	; 0x8a4
     af6:	f2c1 0300 	movt	r3, #4096	; 0x1000
     afa:	681b      	ldr	r3, [r3, #0]
     afc:	b29a      	uxth	r2, r3
     afe:	f640 03ac 	movw	r3, #2220	; 0x8ac
     b02:	f2c1 0300 	movt	r3, #4096	; 0x1000
     b06:	801a      	strh	r2, [r3, #0]
     b08:	f000 f8a0 	bl	c4c <InsertDynamicValues>
     b0c:	f000 fa5a 	bl	fc4 <TCPTransmitTxBuffer>
     b10:	f000 fa0a 	bl	f28 <TCPClose>
     b14:	f640 03a4 	movw	r3, #2212	; 0x8a4
     b18:	f2c1 0300 	movt	r3, #4096	; 0x1000
     b1c:	f04f 0200 	mov.w	r2, #0	; 0x0
     b20:	601a      	str	r2, [r3, #0]
     b22:	f640 03aa 	movw	r3, #2218	; 0x8aa
     b26:	f2c1 0300 	movt	r3, #4096	; 0x1000
     b2a:	781b      	ldrb	r3, [r3, #0]
     b2c:	f043 0301 	orr.w	r3, r3, #1	; 0x1
     b30:	b2da      	uxtb	r2, r3
     b32:	f640 03aa 	movw	r3, #2218	; 0x8aa
     b36:	f2c1 0300 	movt	r3, #4096	; 0x1000
     b3a:	701a      	strb	r2, [r3, #0]
     b3c:	e00c      	b.n	b58 <HTTPServer+0x1e0>
     b3e:	f640 03aa 	movw	r3, #2218	; 0x8aa
     b42:	f2c1 0300 	movt	r3, #4096	; 0x1000
     b46:	781b      	ldrb	r3, [r3, #0]
     b48:	461a      	mov	r2, r3
     b4a:	f002 02fe 	and.w	r2, r2, #254	; 0xfe
     b4e:	f640 03aa 	movw	r3, #2218	; 0x8aa
     b52:	f2c1 0300 	movt	r3, #4096	; 0x1000
     b56:	701a      	strb	r2, [r3, #0]
     b58:	46bd      	mov	sp, r7
     b5a:	bd80      	pop	{r7, pc}
     b5c:	10000a68 	.word	0x10000a68
     b60:	10000a94 	.word	0x10000a94

00000b64 <GetAD7Val>:
     b64:	b480      	push	{r7}
     b66:	b083      	sub	sp, #12
     b68:	af00      	add	r7, sp, #0
     b6a:	f244 0200 	movw	r2, #16384	; 0x4000
     b6e:	f2c4 0203 	movt	r2, #16387	; 0x4003
     b72:	f243 1304 	movw	r3, #12548	; 0x3104
     b76:	f2c0 1320 	movt	r3, #288	; 0x120
     b7a:	6013      	str	r3, [r2, #0]
     b7c:	f244 0300 	movw	r3, #16384	; 0x4000
     b80:	f2c4 0303 	movt	r3, #16387	; 0x4003
     b84:	685b      	ldr	r3, [r3, #4]
     b86:	607b      	str	r3, [r7, #4]
     b88:	687b      	ldr	r3, [r7, #4]
     b8a:	2b00      	cmp	r3, #0
     b8c:	daf6      	bge.n	b7c <GetAD7Val+0x18>
     b8e:	f244 0200 	movw	r2, #16384	; 0x4000
     b92:	f2c4 0203 	movt	r2, #16387	; 0x4003
     b96:	f244 0300 	movw	r3, #16384	; 0x4000
     b9a:	f2c4 0303 	movt	r3, #16387	; 0x4003
     b9e:	681b      	ldr	r3, [r3, #0]
     ba0:	f023 7380 	bic.w	r3, r3, #16777216	; 0x1000000
     ba4:	f023 0301 	bic.w	r3, r3, #1	; 0x1
     ba8:	6013      	str	r3, [r2, #0]
     baa:	687b      	ldr	r3, [r7, #4]
     bac:	ea4f 1393 	mov.w	r3, r3, lsr #6
     bb0:	ea4f 5383 	mov.w	r3, r3, lsl #22
     bb4:	ea4f 5393 	mov.w	r3, r3, lsr #22
     bb8:	607b      	str	r3, [r7, #4]
     bba:	687a      	ldr	r2, [r7, #4]
     bbc:	f64c 43cd 	movw	r3, #52429	; 0xcccd
     bc0:	f6cc 43cc 	movt	r3, #52428	; 0xcccc
     bc4:	fba3 1302 	umull	r1, r3, r3, r2
     bc8:	ea4f 03d3 	mov.w	r3, r3, lsr #3
     bcc:	4618      	mov	r0, r3
     bce:	f107 070c 	add.w	r7, r7, #12	; 0xc
     bd2:	46bd      	mov	sp, r7
     bd4:	bc80      	pop	{r7}
     bd6:	4770      	bx	lr

00000bd8 <GetTempVal>:
     bd8:	b480      	push	{r7}
     bda:	b083      	sub	sp, #12
     bdc:	af00      	add	r7, sp, #0
     bde:	f244 0200 	movw	r2, #16384	; 0x4000
     be2:	f2c4 0203 	movt	r2, #16387	; 0x4003
     be6:	f243 1304 	movw	r3, #12548	; 0x3104
     bea:	f2c0 1320 	movt	r3, #288	; 0x120
     bee:	6013      	str	r3, [r2, #0]
     bf0:	f244 0300 	movw	r3, #16384	; 0x4000
     bf4:	f2c4 0303 	movt	r3, #16387	; 0x4003
     bf8:	685b      	ldr	r3, [r3, #4]
     bfa:	607b      	str	r3, [r7, #4]
     bfc:	687b      	ldr	r3, [r7, #4]
     bfe:	2b00      	cmp	r3, #0
     c00:	daf6      	bge.n	bf0 <GetTempVal+0x18>
     c02:	f244 0200 	movw	r2, #16384	; 0x4000
     c06:	f2c4 0203 	movt	r2, #16387	; 0x4003
     c0a:	f244 0300 	movw	r3, #16384	; 0x4000
     c0e:	f2c4 0303 	movt	r3, #16387	; 0x4003
     c12:	681b      	ldr	r3, [r3, #0]
     c14:	f023 7380 	bic.w	r3, r3, #16777216	; 0x1000000
     c18:	f023 0302 	bic.w	r3, r3, #2	; 0x2
     c1c:	6013      	str	r3, [r2, #0]
     c1e:	687b      	ldr	r3, [r7, #4]
     c20:	ea4f 1393 	mov.w	r3, r3, lsr #6
     c24:	ea4f 5383 	mov.w	r3, r3, lsl #22
     c28:	ea4f 5393 	mov.w	r3, r3, lsr #22
     c2c:	607b      	str	r3, [r7, #4]
     c2e:	687a      	ldr	r2, [r7, #4]
     c30:	f64c 43cd 	movw	r3, #52429	; 0xcccd
     c34:	f6cc 43cc 	movt	r3, #52428	; 0xcccc
     c38:	fba3 1302 	umull	r1, r3, r3, r2
     c3c:	ea4f 03d3 	mov.w	r3, r3, lsr #3
     c40:	4618      	mov	r0, r3
     c42:	f107 070c 	add.w	r7, r7, #12	; 0xc
     c46:	46bd      	mov	sp, r7
     c48:	bc80      	pop	{r7}
     c4a:	4770      	bx	lr

00000c4c <InsertDynamicValues>:
     c4c:	b580      	push	{r7, lr}
     c4e:	b086      	sub	sp, #24
     c50:	af00      	add	r7, sp, #0
     c52:	f640 03ac 	movw	r3, #2220	; 0x8ac
     c56:	f2c1 0300 	movt	r3, #4096	; 0x1000
     c5a:	881b      	ldrh	r3, [r3, #0]
     c5c:	2b03      	cmp	r3, #3
     c5e:	d95f      	bls.n	d20 <InsertDynamicValues+0xd4>
     c60:	4b31      	ldr	r3, [pc, #196]	(d28 <InsertDynamicValues+0xdc>)
     c62:	613b      	str	r3, [r7, #16]
     c64:	f04f 0300 	mov.w	r3, #0	; 0x0
     c68:	617b      	str	r3, [r7, #20]
     c6a:	e04e      	b.n	d0a <InsertDynamicValues+0xbe>
     c6c:	693b      	ldr	r3, [r7, #16]
     c6e:	781b      	ldrb	r3, [r3, #0]
     c70:	2b41      	cmp	r3, #65
     c72:	d142      	bne.n	cfa <InsertDynamicValues+0xae>
     c74:	693b      	ldr	r3, [r7, #16]
     c76:	f103 0301 	add.w	r3, r3, #1	; 0x1
     c7a:	781b      	ldrb	r3, [r3, #0]
     c7c:	2b44      	cmp	r3, #68
     c7e:	d13c      	bne.n	cfa <InsertDynamicValues+0xae>
     c80:	693b      	ldr	r3, [r7, #16]
     c82:	f103 0303 	add.w	r3, r3, #3	; 0x3
     c86:	781b      	ldrb	r3, [r3, #0]
     c88:	2b25      	cmp	r3, #37
     c8a:	d136      	bne.n	cfa <InsertDynamicValues+0xae>
     c8c:	693b      	ldr	r3, [r7, #16]
     c8e:	f103 0302 	add.w	r3, r3, #2	; 0x2
     c92:	781b      	ldrb	r3, [r3, #0]
     c94:	607b      	str	r3, [r7, #4]
     c96:	687b      	ldr	r3, [r7, #4]
     c98:	2b37      	cmp	r3, #55
     c9a:	d003      	beq.n	ca4 <InsertDynamicValues+0x58>
     c9c:	687b      	ldr	r3, [r7, #4]
     c9e:	2b41      	cmp	r3, #65
     ca0:	d016      	beq.n	cd0 <InsertDynamicValues+0x84>
     ca2:	e02a      	b.n	cfa <InsertDynamicValues+0xae>
     ca4:	f7ff ff5e 	bl	b64 <GetAD7Val>
     ca8:	4603      	mov	r3, r0
     caa:	f107 020b 	add.w	r2, r7, #11	; 0xb
     cae:	4610      	mov	r0, r2
     cb0:	f648 3114 	movw	r1, #35604	; 0x8b14
     cb4:	f2c0 0100 	movt	r1, #0	; 0x0
     cb8:	461a      	mov	r2, r3
     cba:	f002 fa9d 	bl	31f8 <sprintf>
     cbe:	f107 030b 	add.w	r3, r7, #11	; 0xb
     cc2:	6938      	ldr	r0, [r7, #16]
     cc4:	4619      	mov	r1, r3
     cc6:	f04f 0203 	mov.w	r2, #3	; 0x3
     cca:	f002 f9a9 	bl	3020 <memcpy>
     cce:	e014      	b.n	cfa <InsertDynamicValues+0xae>
     cd0:	f7ff ff82 	bl	bd8 <GetTempVal>
     cd4:	4603      	mov	r3, r0
     cd6:	f107 020b 	add.w	r2, r7, #11	; 0xb
     cda:	4610      	mov	r0, r2
     cdc:	f648 3114 	movw	r1, #35604	; 0x8b14
     ce0:	f2c0 0100 	movt	r1, #0	; 0x0
     ce4:	461a      	mov	r2, r3
     ce6:	f002 fa87 	bl	31f8 <sprintf>
     cea:	f107 030b 	add.w	r3, r7, #11	; 0xb
     cee:	6938      	ldr	r0, [r7, #16]
     cf0:	4619      	mov	r1, r3
     cf2:	f04f 0203 	mov.w	r2, #3	; 0x3
     cf6:	f002 f993 	bl	3020 <memcpy>
     cfa:	693b      	ldr	r3, [r7, #16]
     cfc:	f103 0301 	add.w	r3, r3, #1	; 0x1
     d00:	613b      	str	r3, [r7, #16]
     d02:	697b      	ldr	r3, [r7, #20]
     d04:	f103 0301 	add.w	r3, r3, #1	; 0x1
     d08:	617b      	str	r3, [r7, #20]
     d0a:	f640 03ac 	movw	r3, #2220	; 0x8ac
     d0e:	f2c1 0300 	movt	r3, #4096	; 0x1000
     d12:	881b      	ldrh	r3, [r3, #0]
     d14:	f1a3 0303 	sub.w	r3, r3, #3	; 0x3
     d18:	461a      	mov	r2, r3
     d1a:	697b      	ldr	r3, [r7, #20]
     d1c:	429a      	cmp	r2, r3
     d1e:	d8a5      	bhi.n	c6c <InsertDynamicValues+0x20>
     d20:	f107 0718 	add.w	r7, r7, #24	; 0x18
     d24:	46bd      	mov	sp, r7
     d26:	bd80      	pop	{r7, pc}
     d28:	10000a68 	.word	0x10000a68

00000d2c <TCPLowLevelInit>:
     d2c:	b580      	push	{r7, lr}
     d2e:	af00      	add	r7, sp, #0
     d30:	f244 0200 	movw	r2, #16384	; 0x4000
     d34:	f2c4 0200 	movt	r2, #16384	; 0x4000
     d38:	f64f 1340 	movw	r3, #63808	; 0xf940
     d3c:	f2c0 032f 	movt	r3, #47	; 0x2f
     d40:	6193      	str	r3, [r2, #24]
     d42:	f244 0300 	movw	r3, #16384	; 0x4000
     d46:	f2c4 0300 	movt	r3, #16384	; 0x4000
     d4a:	f04f 0203 	mov.w	r2, #3	; 0x3
     d4e:	615a      	str	r2, [r3, #20]
     d50:	f244 0300 	movw	r3, #16384	; 0x4000
     d54:	f2c4 0300 	movt	r3, #16384	; 0x4000
     d58:	f04f 0201 	mov.w	r2, #1	; 0x1
     d5c:	605a      	str	r2, [r3, #4]
     d5e:	f04f 0001 	mov.w	r0, #1	; 0x1
     d62:	f000 f85f 	bl	e24 <NVIC_EnableIRQ>
     d66:	f24c 0200 	movw	r2, #49152	; 0xc000
     d6a:	f2c4 020f 	movt	r2, #16399	; 0x400f
     d6e:	f24c 0300 	movw	r3, #49152	; 0xc000
     d72:	f2c4 030f 	movt	r3, #16399	; 0x400f
     d76:	f8d3 30c4 	ldr.w	r3, [r3, #196]
     d7a:	f443 5380 	orr.w	r3, r3, #4096	; 0x1000
     d7e:	f8c2 30c4 	str.w	r3, [r2, #196]
     d82:	f24c 0200 	movw	r2, #49152	; 0xc000
     d86:	f2c4 0202 	movt	r2, #16386	; 0x4002
     d8a:	f24c 0300 	movw	r3, #49152	; 0xc000
     d8e:	f2c4 0302 	movt	r3, #16386	; 0x4002
     d92:	681b      	ldr	r3, [r3, #0]
     d94:	f043 6370 	orr.w	r3, r3, #251658240	; 0xf000000
     d98:	6013      	str	r3, [r2, #0]
     d9a:	f24c 0200 	movw	r2, #49152	; 0xc000
     d9e:	f2c4 0202 	movt	r2, #16386	; 0x4002
     da2:	f24c 0300 	movw	r3, #49152	; 0xc000
     da6:	f2c4 0302 	movt	r3, #16386	; 0x4002
     daa:	685b      	ldr	r3, [r3, #4]
     dac:	f423 137f 	bic.w	r3, r3, #4177920	; 0x3fc000
     db0:	6053      	str	r3, [r2, #4]
     db2:	f24c 0200 	movw	r2, #49152	; 0xc000
     db6:	f2c4 0202 	movt	r2, #16386	; 0x4002
     dba:	f24c 0300 	movw	r3, #49152	; 0xc000
     dbe:	f2c4 0302 	movt	r3, #16386	; 0x4002
     dc2:	685b      	ldr	r3, [r3, #4]
     dc4:	f443 13aa 	orr.w	r3, r3, #1392640	; 0x154000
     dc8:	6053      	str	r3, [r2, #4]
     dca:	f24c 0200 	movw	r2, #49152	; 0xc000
     dce:	f2c4 0202 	movt	r2, #16386	; 0x4002
     dd2:	f24c 0300 	movw	r3, #49152	; 0xc000
     dd6:	f2c4 0302 	movt	r3, #16386	; 0x4002
     dda:	68db      	ldr	r3, [r3, #12]
     ddc:	f043 4370 	orr.w	r3, r3, #4026531840	; 0xf0000000
     de0:	60d3      	str	r3, [r2, #12]
     de2:	f7ff fae1 	bl	3a8 <Init_EMAC>
     de6:	f640 13e0 	movw	r3, #2528	; 0x9e0
     dea:	f2c1 0300 	movt	r3, #4096	; 0x1000
     dee:	f04f 0200 	mov.w	r2, #0	; 0x0
     df2:	701a      	strb	r2, [r3, #0]
     df4:	f640 13c2 	movw	r3, #2498	; 0x9c2
     df8:	f2c1 0300 	movt	r3, #4096	; 0x1000
     dfc:	f04f 0200 	mov.w	r2, #0	; 0x0
     e00:	701a      	strb	r2, [r3, #0]
     e02:	f640 03b8 	movw	r3, #2232	; 0x8b8
     e06:	f2c1 0300 	movt	r3, #4096	; 0x1000
     e0a:	f04f 0200 	mov.w	r2, #0	; 0x0
     e0e:	701a      	strb	r2, [r3, #0]
     e10:	f640 436d 	movw	r3, #3181	; 0xc6d
     e14:	f2c1 0300 	movt	r3, #4096	; 0x1000
     e18:	f04f 0200 	mov.w	r2, #0	; 0x0
     e1c:	701a      	strb	r2, [r3, #0]
     e1e:	46bd      	mov	sp, r7
     e20:	bd80      	pop	{r7, pc}
     e22:	bf00      	nop

00000e24 <NVIC_EnableIRQ>:
     e24:	b480      	push	{r7}
     e26:	b083      	sub	sp, #12
     e28:	af00      	add	r7, sp, #0
     e2a:	4603      	mov	r3, r0
     e2c:	71fb      	strb	r3, [r7, #7]
     e2e:	f24e 1100 	movw	r1, #57600	; 0xe100
     e32:	f2ce 0100 	movt	r1, #57344	; 0xe000
     e36:	f997 3007 	ldrsb.w	r3, [r7, #7]
     e3a:	ea4f 1053 	mov.w	r0, r3, lsr #5
     e3e:	79fb      	ldrb	r3, [r7, #7]
     e40:	f003 021f 	and.w	r2, r3, #31	; 0x1f
     e44:	f04f 0301 	mov.w	r3, #1	; 0x1
     e48:	fa03 f302 	lsl.w	r3, r3, r2
     e4c:	f841 3020 	str.w	r3, [r1, r0, lsl #2]
     e50:	f107 070c 	add.w	r7, r7, #12	; 0xc
     e54:	46bd      	mov	sp, r7
     e56:	bc80      	pop	{r7}
     e58:	4770      	bx	lr
     e5a:	bf00      	nop

00000e5c <TCPPassiveOpen>:
     e5c:	b480      	push	{r7}
     e5e:	af00      	add	r7, sp, #0
     e60:	f640 03b8 	movw	r3, #2232	; 0x8b8
     e64:	f2c1 0300 	movt	r3, #4096	; 0x1000
     e68:	781b      	ldrb	r3, [r3, #0]
     e6a:	2b00      	cmp	r3, #0
     e6c:	d11a      	bne.n	ea4 <TCPPassiveOpen+0x48>
     e6e:	f640 13c2 	movw	r3, #2498	; 0x9c2
     e72:	f2c1 0300 	movt	r3, #4096	; 0x1000
     e76:	781b      	ldrb	r3, [r3, #0]
     e78:	461a      	mov	r2, r3
     e7a:	f002 02fe 	and.w	r2, r2, #254	; 0xfe
     e7e:	f640 13c2 	movw	r3, #2498	; 0x9c2
     e82:	f2c1 0300 	movt	r3, #4096	; 0x1000
     e86:	701a      	strb	r2, [r3, #0]
     e88:	f640 03b8 	movw	r3, #2232	; 0x8b8
     e8c:	f2c1 0300 	movt	r3, #4096	; 0x1000
     e90:	f04f 0201 	mov.w	r2, #1	; 0x1
     e94:	701a      	strb	r2, [r3, #0]
     e96:	f640 436d 	movw	r3, #3181	; 0xc6d
     e9a:	f2c1 0300 	movt	r3, #4096	; 0x1000
     e9e:	f04f 0201 	mov.w	r2, #1	; 0x1
     ea2:	701a      	strb	r2, [r3, #0]
     ea4:	46bd      	mov	sp, r7
     ea6:	bc80      	pop	{r7}
     ea8:	4770      	bx	lr
     eaa:	bf00      	nop

00000eac <TCPActiveOpen>:
     eac:	b580      	push	{r7, lr}
     eae:	af00      	add	r7, sp, #0
     eb0:	f640 03b8 	movw	r3, #2232	; 0x8b8
     eb4:	f2c1 0300 	movt	r3, #4096	; 0x1000
     eb8:	781b      	ldrb	r3, [r3, #0]
     eba:	2b00      	cmp	r3, #0
     ebc:	d006      	beq.n	ecc <TCPActiveOpen+0x20>
     ebe:	f640 03b8 	movw	r3, #2232	; 0x8b8
     ec2:	f2c1 0300 	movt	r3, #4096	; 0x1000
     ec6:	781b      	ldrb	r3, [r3, #0]
     ec8:	2b01      	cmp	r3, #1
     eca:	d12b      	bne.n	f24 <TCPActiveOpen+0x78>
     ecc:	f640 13c2 	movw	r3, #2498	; 0x9c2
     ed0:	f2c1 0300 	movt	r3, #4096	; 0x1000
     ed4:	781b      	ldrb	r3, [r3, #0]
     ed6:	f043 0301 	orr.w	r3, r3, #1	; 0x1
     eda:	b2da      	uxtb	r2, r3
     edc:	f640 13c2 	movw	r3, #2498	; 0x9c2
     ee0:	f2c1 0300 	movt	r3, #4096	; 0x1000
     ee4:	701a      	strb	r2, [r3, #0]
     ee6:	f640 13c2 	movw	r3, #2498	; 0x9c2
     eea:	f2c1 0300 	movt	r3, #4096	; 0x1000
     eee:	781b      	ldrb	r3, [r3, #0]
     ef0:	461a      	mov	r2, r3
     ef2:	f002 02fd 	and.w	r2, r2, #253	; 0xfd
     ef6:	f640 13c2 	movw	r3, #2498	; 0x9c2
     efa:	f2c1 0300 	movt	r3, #4096	; 0x1000
     efe:	701a      	strb	r2, [r3, #0]
     f00:	f000 ff76 	bl	1df0 <PrepareARP_REQUEST>
     f04:	f640 13d4 	movw	r3, #2516	; 0x9d4
     f08:	f2c1 0300 	movt	r3, #4096	; 0x1000
     f0c:	f04f 0200 	mov.w	r2, #0	; 0x0
     f10:	701a      	strb	r2, [r3, #0]
     f12:	f001 fba5 	bl	2660 <TCPStartRetryTimer>
     f16:	f640 436d 	movw	r3, #3181	; 0xc6d
     f1a:	f2c1 0300 	movt	r3, #4096	; 0x1000
     f1e:	f04f 0201 	mov.w	r2, #1	; 0x1
     f22:	701a      	strb	r2, [r3, #0]
     f24:	46bd      	mov	sp, r7
     f26:	bd80      	pop	{r7, pc}

00000f28 <TCPClose>:
     f28:	b480      	push	{r7}
     f2a:	af00      	add	r7, sp, #0
     f2c:	f640 03b8 	movw	r3, #2232	; 0x8b8
     f30:	f2c1 0300 	movt	r3, #4096	; 0x1000
     f34:	781b      	ldrb	r3, [r3, #0]
     f36:	f103 33ff 	add.w	r3, r3, #4294967295	; 0xffffffff
     f3a:	2b03      	cmp	r3, #3
     f3c:	d82d      	bhi.n	f9a <TCPClose+0x72>
     f3e:	a201      	add	r2, pc, #4	(adr r2, f44 <TCPClose+0x1c>)
     f40:	f852 f023 	ldr.w	pc, [r2, r3, lsl #2]
     f44:	00000f55 	.word	0x00000f55
     f48:	00000f55 	.word	0x00000f55
     f4c:	00000f81 	.word	0x00000f81
     f50:	00000f81 	.word	0x00000f81
     f54:	f640 03b8 	movw	r3, #2232	; 0x8b8
     f58:	f2c1 0300 	movt	r3, #4096	; 0x1000
     f5c:	f04f 0200 	mov.w	r2, #0	; 0x0
     f60:	701a      	strb	r2, [r3, #0]
     f62:	f640 13c2 	movw	r3, #2498	; 0x9c2
     f66:	f2c1 0300 	movt	r3, #4096	; 0x1000
     f6a:	f04f 0200 	mov.w	r2, #0	; 0x0
     f6e:	701a      	strb	r2, [r3, #0]
     f70:	f640 436d 	movw	r3, #3181	; 0xc6d
     f74:	f2c1 0300 	movt	r3, #4096	; 0x1000
     f78:	f04f 0200 	mov.w	r2, #0	; 0x0
     f7c:	701a      	strb	r2, [r3, #0]
     f7e:	e00c      	b.n	f9a <TCPClose+0x72>
     f80:	f640 13c2 	movw	r3, #2498	; 0x9c2
     f84:	f2c1 0300 	movt	r3, #4096	; 0x1000
     f88:	781b      	ldrb	r3, [r3, #0]
     f8a:	f043 0310 	orr.w	r3, r3, #16	; 0x10
     f8e:	b2da      	uxtb	r2, r3
     f90:	f640 13c2 	movw	r3, #2498	; 0x9c2
     f94:	f2c1 0300 	movt	r3, #4096	; 0x1000
     f98:	701a      	strb	r2, [r3, #0]
     f9a:	46bd      	mov	sp, r7
     f9c:	bc80      	pop	{r7}
     f9e:	4770      	bx	lr

00000fa0 <TCPReleaseRxBuffer>:
     fa0:	b480      	push	{r7}
     fa2:	af00      	add	r7, sp, #0
     fa4:	f640 436d 	movw	r3, #3181	; 0xc6d
     fa8:	f2c1 0300 	movt	r3, #4096	; 0x1000
     fac:	781b      	ldrb	r3, [r3, #0]
     fae:	461a      	mov	r2, r3
     fb0:	f002 02fb 	and.w	r2, r2, #251	; 0xfb
     fb4:	f640 436d 	movw	r3, #3181	; 0xc6d
     fb8:	f2c1 0300 	movt	r3, #4096	; 0x1000
     fbc:	701a      	strb	r2, [r3, #0]
     fbe:	46bd      	mov	sp, r7
     fc0:	bc80      	pop	{r7}
     fc2:	4770      	bx	lr

00000fc4 <TCPTransmitTxBuffer>:
     fc4:	b580      	push	{r7, lr}
     fc6:	af00      	add	r7, sp, #0
     fc8:	f640 03b8 	movw	r3, #2232	; 0x8b8
     fcc:	f2c1 0300 	movt	r3, #4096	; 0x1000
     fd0:	781b      	ldrb	r3, [r3, #0]
     fd2:	2b04      	cmp	r3, #4
     fd4:	d006      	beq.n	fe4 <TCPTransmitTxBuffer+0x20>
     fd6:	f640 03b8 	movw	r3, #2232	; 0x8b8
     fda:	f2c1 0300 	movt	r3, #4096	; 0x1000
     fde:	781b      	ldrb	r3, [r3, #0]
     fe0:	2b07      	cmp	r3, #7
     fe2:	d149      	bne.n	1078 <TCPTransmitTxBuffer+0xb4>
     fe4:	f640 436d 	movw	r3, #3181	; 0xc6d
     fe8:	f2c1 0300 	movt	r3, #4096	; 0x1000
     fec:	781b      	ldrb	r3, [r3, #0]
     fee:	f003 0308 	and.w	r3, r3, #8	; 0x8
     ff2:	2b00      	cmp	r3, #0
     ff4:	d040      	beq.n	1078 <TCPTransmitTxBuffer+0xb4>
     ff6:	f640 436d 	movw	r3, #3181	; 0xc6d
     ffa:	f2c1 0300 	movt	r3, #4096	; 0x1000
     ffe:	781b      	ldrb	r3, [r3, #0]
    1000:	461a      	mov	r2, r3
    1002:	f002 02f7 	and.w	r2, r2, #247	; 0xf7
    1006:	f640 436d 	movw	r3, #3181	; 0xc6d
    100a:	f2c1 0300 	movt	r3, #4096	; 0x1000
    100e:	701a      	strb	r2, [r3, #0]
    1010:	f640 03ac 	movw	r3, #2220	; 0x8ac
    1014:	f2c1 0300 	movt	r3, #4096	; 0x1000
    1018:	881b      	ldrh	r3, [r3, #0]
    101a:	461a      	mov	r2, r3
    101c:	f640 03bc 	movw	r3, #2236	; 0x8bc
    1020:	f2c1 0300 	movt	r3, #4096	; 0x1000
    1024:	681b      	ldr	r3, [r3, #0]
    1026:	441a      	add	r2, r3
    1028:	f640 03bc 	movw	r3, #2236	; 0x8bc
    102c:	f2c1 0300 	movt	r3, #4096	; 0x1000
    1030:	601a      	str	r2, [r3, #0]
    1032:	f640 03ac 	movw	r3, #2220	; 0x8ac
    1036:	f2c1 0300 	movt	r3, #4096	; 0x1000
    103a:	881b      	ldrh	r3, [r3, #0]
    103c:	f103 0336 	add.w	r3, r3, #54	; 0x36
    1040:	b29a      	uxth	r2, r3
    1042:	f640 13e2 	movw	r3, #2530	; 0x9e2
    1046:	f2c1 0300 	movt	r3, #4096	; 0x1000
    104a:	801a      	strh	r2, [r3, #0]
    104c:	f640 13e0 	movw	r3, #2528	; 0x9e0
    1050:	f2c1 0300 	movt	r3, #4096	; 0x1000
    1054:	781b      	ldrb	r3, [r3, #0]
    1056:	f043 0301 	orr.w	r3, r3, #1	; 0x1
    105a:	b2da      	uxtb	r2, r3
    105c:	f640 13e0 	movw	r3, #2528	; 0x9e0
    1060:	f2c1 0300 	movt	r3, #4096	; 0x1000
    1064:	701a      	strb	r2, [r3, #0]
    1066:	f640 13d4 	movw	r3, #2516	; 0x9d4
    106a:	f2c1 0300 	movt	r3, #4096	; 0x1000
    106e:	f04f 0204 	mov.w	r2, #4	; 0x4
    1072:	701a      	strb	r2, [r3, #0]
    1074:	f001 faf4 	bl	2660 <TCPStartRetryTimer>
    1078:	46bd      	mov	sp, r7
    107a:	bd80      	pop	{r7, pc}

0000107c <IsBroadcast>:
    107c:	b580      	push	{r7, lr}
    107e:	b084      	sub	sp, #16
    1080:	af00      	add	r7, sp, #0
    1082:	f7ff fb65 	bl	750 <StartReadFrame>
    1086:	4603      	mov	r3, r0
    1088:	461a      	mov	r2, r3
    108a:	f640 2330 	movw	r3, #2608	; 0xa30
    108e:	f2c1 0300 	movt	r3, #4096	; 0x1000
    1092:	801a      	strh	r2, [r3, #0]
    1094:	f107 030a 	add.w	r3, r7, #10	; 0xa
    1098:	4618      	mov	r0, r3
    109a:	f04f 0106 	mov.w	r1, #6	; 0x6
    109e:	f7ff fb1d 	bl	6dc <CopyFromFrame_EMAC>
    10a2:	f640 10c4 	movw	r0, #2500	; 0x9c4
    10a6:	f2c1 0000 	movt	r0, #4096	; 0x1000
    10aa:	f04f 0106 	mov.w	r1, #6	; 0x6
    10ae:	f7ff fb15 	bl	6dc <CopyFromFrame_EMAC>
    10b2:	897a      	ldrh	r2, [r7, #10]
    10b4:	f64f 73ff 	movw	r3, #65535	; 0xffff
    10b8:	429a      	cmp	r2, r3
    10ba:	d10d      	bne.n	10d8 <IsBroadcast+0x5c>
    10bc:	89ba      	ldrh	r2, [r7, #12]
    10be:	f64f 73ff 	movw	r3, #65535	; 0xffff
    10c2:	429a      	cmp	r2, r3
    10c4:	d108      	bne.n	10d8 <IsBroadcast+0x5c>
    10c6:	89fa      	ldrh	r2, [r7, #14]
    10c8:	f64f 73ff 	movw	r3, #65535	; 0xffff
    10cc:	429a      	cmp	r2, r3
    10ce:	d103      	bne.n	10d8 <IsBroadcast+0x5c>
    10d0:	f04f 0301 	mov.w	r3, #1	; 0x1
    10d4:	607b      	str	r3, [r7, #4]
    10d6:	e002      	b.n	10de <IsBroadcast+0x62>
    10d8:	f04f 0300 	mov.w	r3, #0	; 0x0
    10dc:	607b      	str	r3, [r7, #4]
    10de:	687b      	ldr	r3, [r7, #4]
    10e0:	4618      	mov	r0, r3
    10e2:	f107 0710 	add.w	r7, r7, #16	; 0x10
    10e6:	46bd      	mov	sp, r7
    10e8:	bd80      	pop	{r7, pc}
    10ea:	bf00      	nop

000010ec <DoNetworkStuff>:
    10ec:	b580      	push	{r7, lr}
    10ee:	af00      	add	r7, sp, #0
    10f0:	f7ff fb7c 	bl	7ec <CheckFrameReceived>
    10f4:	4603      	mov	r3, r0
    10f6:	2b00      	cmp	r3, #0
    10f8:	d00b      	beq.n	1112 <DoNetworkStuff+0x26>
    10fa:	f7ff ffbf 	bl	107c <IsBroadcast>
    10fe:	4603      	mov	r3, r0
    1100:	2b00      	cmp	r3, #0
    1102:	d002      	beq.n	110a <DoNetworkStuff+0x1e>
    1104:	f000 f9d2 	bl	14ac <ProcessEthBroadcastFrame>
    1108:	e001      	b.n	110e <DoNetworkStuff+0x22>
    110a:	f000 fa1d 	bl	1548 <ProcessEthIAFrame>
    110e:	f7ff fb51 	bl	7b4 <EndReadFrame>
    1112:	f640 13c2 	movw	r3, #2498	; 0x9c2
    1116:	f2c1 0300 	movt	r3, #4096	; 0x1000
    111a:	781b      	ldrb	r3, [r3, #0]
    111c:	f003 0304 	and.w	r3, r3, #4	; 0x4
    1120:	2b00      	cmp	r3, #0
    1122:	d04f      	beq.n	11c4 <DoNetworkStuff+0xd8>
    1124:	f640 13c2 	movw	r3, #2498	; 0x9c2
    1128:	f2c1 0300 	movt	r3, #4096	; 0x1000
    112c:	781b      	ldrb	r3, [r3, #0]
    112e:	f003 0308 	and.w	r3, r3, #8	; 0x8
    1132:	2b00      	cmp	r3, #0
    1134:	d024      	beq.n	1180 <DoNetworkStuff+0x94>
    1136:	f640 03a0 	movw	r3, #2208	; 0x8a0
    113a:	f2c1 0300 	movt	r3, #4096	; 0x1000
    113e:	781b      	ldrb	r3, [r3, #0]
    1140:	2b08      	cmp	r3, #8
    1142:	d93f      	bls.n	11c4 <DoNetworkStuff+0xd8>
    1144:	f001 fae0 	bl	2708 <TCPRestartTimer>
    1148:	f640 436c 	movw	r3, #3180	; 0xc6c
    114c:	f2c1 0300 	movt	r3, #4096	; 0x1000
    1150:	781b      	ldrb	r3, [r3, #0]
    1152:	2b00      	cmp	r3, #0
    1154:	d00f      	beq.n	1176 <DoNetworkStuff+0x8a>
    1156:	f001 faf5 	bl	2744 <TCPHandleRetransmission>
    115a:	f640 436c 	movw	r3, #3180	; 0xc6c
    115e:	f2c1 0300 	movt	r3, #4096	; 0x1000
    1162:	781b      	ldrb	r3, [r3, #0]
    1164:	f103 33ff 	add.w	r3, r3, #4294967295	; 0xffffffff
    1168:	b2da      	uxtb	r2, r3
    116a:	f640 436c 	movw	r3, #3180	; 0xc6c
    116e:	f2c1 0300 	movt	r3, #4096	; 0x1000
    1172:	701a      	strb	r2, [r3, #0]
    1174:	e026      	b.n	11c4 <DoNetworkStuff+0xd8>
    1176:	f001 fad3 	bl	2720 <TCPStopTimer>
    117a:	f001 fb1b 	bl	27b4 <TCPHandleTimeout>
    117e:	e021      	b.n	11c4 <DoNetworkStuff+0xd8>
    1180:	f640 03a0 	movw	r3, #2208	; 0x8a0
    1184:	f2c1 0300 	movt	r3, #4096	; 0x1000
    1188:	781b      	ldrb	r3, [r3, #0]
    118a:	2b02      	cmp	r3, #2
    118c:	d91a      	bls.n	11c4 <DoNetworkStuff+0xd8>
    118e:	f640 03b8 	movw	r3, #2232	; 0x8b8
    1192:	f2c1 0300 	movt	r3, #4096	; 0x1000
    1196:	f04f 0200 	mov.w	r2, #0	; 0x0
    119a:	701a      	strb	r2, [r3, #0]
    119c:	f640 13c2 	movw	r3, #2498	; 0x9c2
    11a0:	f2c1 0300 	movt	r3, #4096	; 0x1000
    11a4:	f04f 0200 	mov.w	r2, #0	; 0x0
    11a8:	701a      	strb	r2, [r3, #0]
    11aa:	f640 436d 	movw	r3, #3181	; 0xc6d
    11ae:	f2c1 0300 	movt	r3, #4096	; 0x1000
    11b2:	781b      	ldrb	r3, [r3, #0]
    11b4:	461a      	mov	r2, r3
    11b6:	f002 0204 	and.w	r2, r2, #4	; 0x4
    11ba:	f640 436d 	movw	r3, #3181	; 0xc6d
    11be:	f2c1 0300 	movt	r3, #4096	; 0x1000
    11c2:	701a      	strb	r2, [r3, #0]
    11c4:	f640 03b8 	movw	r3, #2232	; 0x8b8
    11c8:	f2c1 0300 	movt	r3, #4096	; 0x1000
    11cc:	781b      	ldrb	r3, [r3, #0]
    11ce:	2b07      	cmp	r3, #7
    11d0:	f200 80f0 	bhi.w	13b4 <DoNetworkStuff+0x2c8>
    11d4:	a201      	add	r2, pc, #4	(adr r2, 11dc <DoNetworkStuff+0xf0>)
    11d6:	f852 f023 	ldr.w	pc, [r2, r3, lsl #2]
    11da:	bf00      	nop
    11dc:	000011fd 	.word	0x000011fd
    11e0:	000011fd 	.word	0x000011fd
    11e4:	000013b5 	.word	0x000013b5
    11e8:	000012cd 	.word	0x000012cd
    11ec:	000012cd 	.word	0x000012cd
    11f0:	000013b5 	.word	0x000013b5
    11f4:	000013b5 	.word	0x000013b5
    11f8:	0000134b 	.word	0x0000134b
    11fc:	f640 13c2 	movw	r3, #2498	; 0x9c2
    1200:	f2c1 0300 	movt	r3, #4096	; 0x1000
    1204:	781b      	ldrb	r3, [r3, #0]
    1206:	f003 0301 	and.w	r3, r3, #1	; 0x1
    120a:	b2db      	uxtb	r3, r3
    120c:	2b00      	cmp	r3, #0
    120e:	f000 80d1 	beq.w	13b4 <DoNetworkStuff+0x2c8>
    1212:	f640 13c2 	movw	r3, #2498	; 0x9c2
    1216:	f2c1 0300 	movt	r3, #4096	; 0x1000
    121a:	781b      	ldrb	r3, [r3, #0]
    121c:	f003 0302 	and.w	r3, r3, #2	; 0x2
    1220:	2b00      	cmp	r3, #0
    1222:	f000 80c7 	beq.w	13b4 <DoNetworkStuff+0x2c8>
    1226:	f640 13e0 	movw	r3, #2528	; 0x9e0
    122a:	f2c1 0300 	movt	r3, #4096	; 0x1000
    122e:	781b      	ldrb	r3, [r3, #0]
    1230:	f003 0302 	and.w	r3, r3, #2	; 0x2
    1234:	2b00      	cmp	r3, #0
    1236:	f040 80bd 	bne.w	13b4 <DoNetworkStuff+0x2c8>
    123a:	f640 13e4 	movw	r3, #2532	; 0x9e4
    123e:	f2c1 0300 	movt	r3, #4096	; 0x1000
    1242:	881b      	ldrh	r3, [r3, #0]
    1244:	ea4f 4203 	mov.w	r2, r3, lsl #16
    1248:	f244 0300 	movw	r3, #16384	; 0x4000
    124c:	f2c4 0300 	movt	r3, #16384	; 0x4000
    1250:	689b      	ldr	r3, [r3, #8]
    1252:	ea4f 4303 	mov.w	r3, r3, lsl #16
    1256:	ea4f 4313 	mov.w	r3, r3, lsr #16
    125a:	ea42 0203 	orr.w	r2, r2, r3
    125e:	f640 4368 	movw	r3, #3176	; 0xc68
    1262:	f2c1 0300 	movt	r3, #4096	; 0x1000
    1266:	601a      	str	r2, [r3, #0]
    1268:	f640 4368 	movw	r3, #3176	; 0xc68
    126c:	f2c1 0300 	movt	r3, #4096	; 0x1000
    1270:	681a      	ldr	r2, [r3, #0]
    1272:	f640 03bc 	movw	r3, #2236	; 0x8bc
    1276:	f2c1 0300 	movt	r3, #4096	; 0x1000
    127a:	601a      	str	r2, [r3, #0]
    127c:	f640 13dc 	movw	r3, #2524	; 0x9dc
    1280:	f2c1 0300 	movt	r3, #4096	; 0x1000
    1284:	f04f 0200 	mov.w	r2, #0	; 0x0
    1288:	601a      	str	r2, [r3, #0]
    128a:	f640 03bc 	movw	r3, #2236	; 0x8bc
    128e:	f2c1 0300 	movt	r3, #4096	; 0x1000
    1292:	681b      	ldr	r3, [r3, #0]
    1294:	f103 0201 	add.w	r2, r3, #1	; 0x1
    1298:	f640 03bc 	movw	r3, #2236	; 0x8bc
    129c:	f2c1 0300 	movt	r3, #4096	; 0x1000
    12a0:	601a      	str	r2, [r3, #0]
    12a2:	f04f 0002 	mov.w	r0, #2	; 0x2
    12a6:	f000 ff83 	bl	21b0 <PrepareTCP_FRAME>
    12aa:	f640 13d4 	movw	r3, #2516	; 0x9d4
    12ae:	f2c1 0300 	movt	r3, #4096	; 0x1000
    12b2:	f04f 0201 	mov.w	r2, #1	; 0x1
    12b6:	701a      	strb	r2, [r3, #0]
    12b8:	f001 f9d2 	bl	2660 <TCPStartRetryTimer>
    12bc:	f640 03b8 	movw	r3, #2232	; 0x8b8
    12c0:	f2c1 0300 	movt	r3, #4096	; 0x1000
    12c4:	f04f 0202 	mov.w	r2, #2	; 0x2
    12c8:	701a      	strb	r2, [r3, #0]
    12ca:	e073      	b.n	13b4 <DoNetworkStuff+0x2c8>
    12cc:	f640 13c2 	movw	r3, #2498	; 0x9c2
    12d0:	f2c1 0300 	movt	r3, #4096	; 0x1000
    12d4:	781b      	ldrb	r3, [r3, #0]
    12d6:	f003 0310 	and.w	r3, r3, #16	; 0x10
    12da:	2b00      	cmp	r3, #0
    12dc:	d06a      	beq.n	13b4 <DoNetworkStuff+0x2c8>
    12de:	f640 13e0 	movw	r3, #2528	; 0x9e0
    12e2:	f2c1 0300 	movt	r3, #4096	; 0x1000
    12e6:	781b      	ldrb	r3, [r3, #0]
    12e8:	f003 0303 	and.w	r3, r3, #3	; 0x3
    12ec:	2b00      	cmp	r3, #0
    12ee:	d161      	bne.n	13b4 <DoNetworkStuff+0x2c8>
    12f0:	f640 4368 	movw	r3, #3176	; 0xc68
    12f4:	f2c1 0300 	movt	r3, #4096	; 0x1000
    12f8:	681a      	ldr	r2, [r3, #0]
    12fa:	f640 03bc 	movw	r3, #2236	; 0x8bc
    12fe:	f2c1 0300 	movt	r3, #4096	; 0x1000
    1302:	681b      	ldr	r3, [r3, #0]
    1304:	429a      	cmp	r2, r3
    1306:	d155      	bne.n	13b4 <DoNetworkStuff+0x2c8>
    1308:	f640 03bc 	movw	r3, #2236	; 0x8bc
    130c:	f2c1 0300 	movt	r3, #4096	; 0x1000
    1310:	681b      	ldr	r3, [r3, #0]
    1312:	f103 0201 	add.w	r2, r3, #1	; 0x1
    1316:	f640 03bc 	movw	r3, #2236	; 0x8bc
    131a:	f2c1 0300 	movt	r3, #4096	; 0x1000
    131e:	601a      	str	r2, [r3, #0]
    1320:	f04f 0011 	mov.w	r0, #17	; 0x11
    1324:	f000 ff44 	bl	21b0 <PrepareTCP_FRAME>
    1328:	f640 13d4 	movw	r3, #2516	; 0x9d4
    132c:	f2c1 0300 	movt	r3, #4096	; 0x1000
    1330:	f04f 0203 	mov.w	r2, #3	; 0x3
    1334:	701a      	strb	r2, [r3, #0]
    1336:	f001 f993 	bl	2660 <TCPStartRetryTimer>
    133a:	f640 03b8 	movw	r3, #2232	; 0x8b8
    133e:	f2c1 0300 	movt	r3, #4096	; 0x1000
    1342:	f04f 0205 	mov.w	r2, #5	; 0x5
    1346:	701a      	strb	r2, [r3, #0]
    1348:	e034      	b.n	13b4 <DoNetworkStuff+0x2c8>
    134a:	f640 13e0 	movw	r3, #2528	; 0x9e0
    134e:	f2c1 0300 	movt	r3, #4096	; 0x1000
    1352:	781b      	ldrb	r3, [r3, #0]
    1354:	f003 0303 	and.w	r3, r3, #3	; 0x3
    1358:	2b00      	cmp	r3, #0
    135a:	d12b      	bne.n	13b4 <DoNetworkStuff+0x2c8>
    135c:	f640 4368 	movw	r3, #3176	; 0xc68
    1360:	f2c1 0300 	movt	r3, #4096	; 0x1000
    1364:	681a      	ldr	r2, [r3, #0]
    1366:	f640 03bc 	movw	r3, #2236	; 0x8bc
    136a:	f2c1 0300 	movt	r3, #4096	; 0x1000
    136e:	681b      	ldr	r3, [r3, #0]
    1370:	429a      	cmp	r2, r3
    1372:	d11f      	bne.n	13b4 <DoNetworkStuff+0x2c8>
    1374:	f640 03bc 	movw	r3, #2236	; 0x8bc
    1378:	f2c1 0300 	movt	r3, #4096	; 0x1000
    137c:	681b      	ldr	r3, [r3, #0]
    137e:	f103 0201 	add.w	r2, r3, #1	; 0x1
    1382:	f640 03bc 	movw	r3, #2236	; 0x8bc
    1386:	f2c1 0300 	movt	r3, #4096	; 0x1000
    138a:	601a      	str	r2, [r3, #0]
    138c:	f04f 0011 	mov.w	r0, #17	; 0x11
    1390:	f000 ff0e 	bl	21b0 <PrepareTCP_FRAME>
    1394:	f640 13d4 	movw	r3, #2516	; 0x9d4
    1398:	f2c1 0300 	movt	r3, #4096	; 0x1000
    139c:	f04f 0203 	mov.w	r2, #3	; 0x3
    13a0:	701a      	strb	r2, [r3, #0]
    13a2:	f001 f95d 	bl	2660 <TCPStartRetryTimer>
    13a6:	f640 03b8 	movw	r3, #2232	; 0x8b8
    13aa:	f2c1 0300 	movt	r3, #4096	; 0x1000
    13ae:	f04f 0209 	mov.w	r2, #9	; 0x9
    13b2:	701a      	strb	r2, [r3, #0]
    13b4:	f640 13e0 	movw	r3, #2528	; 0x9e0
    13b8:	f2c1 0300 	movt	r3, #4096	; 0x1000
    13bc:	781b      	ldrb	r3, [r3, #0]
    13be:	f003 0302 	and.w	r3, r3, #2	; 0x2
    13c2:	2b00      	cmp	r3, #0
    13c4:	d031      	beq.n	142a <DoNetworkStuff+0x33e>
    13c6:	f640 13d8 	movw	r3, #2520	; 0x9d8
    13ca:	f2c1 0300 	movt	r3, #4096	; 0x1000
    13ce:	781b      	ldrb	r3, [r3, #0]
    13d0:	4618      	mov	r0, r3
    13d2:	f7ff fa27 	bl	824 <RequestSend>
    13d6:	f7ff fa51 	bl	87c <Rdy4Tx>
    13da:	4603      	mov	r3, r0
    13dc:	2b00      	cmp	r3, #0
    13de:	d002      	beq.n	13e6 <DoNetworkStuff+0x2fa>
    13e0:	f001 fa4a 	bl	2878 <SendFrame2>
    13e4:	e014      	b.n	1410 <DoNetworkStuff+0x324>
    13e6:	f640 03b8 	movw	r3, #2232	; 0x8b8
    13ea:	f2c1 0300 	movt	r3, #4096	; 0x1000
    13ee:	f04f 0200 	mov.w	r2, #0	; 0x0
    13f2:	701a      	strb	r2, [r3, #0]
    13f4:	f640 436d 	movw	r3, #3181	; 0xc6d
    13f8:	f2c1 0300 	movt	r3, #4096	; 0x1000
    13fc:	f04f 0250 	mov.w	r2, #80	; 0x50
    1400:	701a      	strb	r2, [r3, #0]
    1402:	f640 13c2 	movw	r3, #2498	; 0x9c2
    1406:	f2c1 0300 	movt	r3, #4096	; 0x1000
    140a:	f04f 0200 	mov.w	r2, #0	; 0x0
    140e:	701a      	strb	r2, [r3, #0]
    1410:	f640 13e0 	movw	r3, #2528	; 0x9e0
    1414:	f2c1 0300 	movt	r3, #4096	; 0x1000
    1418:	781b      	ldrb	r3, [r3, #0]
    141a:	461a      	mov	r2, r3
    141c:	f002 02fd 	and.w	r2, r2, #253	; 0xfd
    1420:	f640 13e0 	movw	r3, #2528	; 0x9e0
    1424:	f2c1 0300 	movt	r3, #4096	; 0x1000
    1428:	701a      	strb	r2, [r3, #0]
    142a:	f640 13e0 	movw	r3, #2528	; 0x9e0
    142e:	f2c1 0300 	movt	r3, #4096	; 0x1000
    1432:	781b      	ldrb	r3, [r3, #0]
    1434:	f003 0301 	and.w	r3, r3, #1	; 0x1
    1438:	b2db      	uxtb	r3, r3
    143a:	2b00      	cmp	r3, #0
    143c:	d033      	beq.n	14a6 <DoNetworkStuff+0x3ba>
    143e:	f000 ffd1 	bl	23e4 <PrepareTCP_DATA_FRAME>
    1442:	f640 13e2 	movw	r3, #2530	; 0x9e2
    1446:	f2c1 0300 	movt	r3, #4096	; 0x1000
    144a:	881b      	ldrh	r3, [r3, #0]
    144c:	4618      	mov	r0, r3
    144e:	f7ff f9e9 	bl	824 <RequestSend>
    1452:	f7ff fa13 	bl	87c <Rdy4Tx>
    1456:	4603      	mov	r3, r0
    1458:	2b00      	cmp	r3, #0
    145a:	d002      	beq.n	1462 <DoNetworkStuff+0x376>
    145c:	f001 f9fc 	bl	2858 <SendFrame1>
    1460:	e014      	b.n	148c <DoNetworkStuff+0x3a0>
    1462:	f640 03b8 	movw	r3, #2232	; 0x8b8
    1466:	f2c1 0300 	movt	r3, #4096	; 0x1000
    146a:	f04f 0200 	mov.w	r2, #0	; 0x0
    146e:	701a      	strb	r2, [r3, #0]
    1470:	f640 436d 	movw	r3, #3181	; 0xc6d
    1474:	f2c1 0300 	movt	r3, #4096	; 0x1000
    1478:	f04f 0250 	mov.w	r2, #80	; 0x50
    147c:	701a      	strb	r2, [r3, #0]
    147e:	f640 13c2 	movw	r3, #2498	; 0x9c2
    1482:	f2c1 0300 	movt	r3, #4096	; 0x1000
    1486:	f04f 0200 	mov.w	r2, #0	; 0x0
    148a:	701a      	strb	r2, [r3, #0]
    148c:	f640 13e0 	movw	r3, #2528	; 0x9e0
    1490:	f2c1 0300 	movt	r3, #4096	; 0x1000
    1494:	781b      	ldrb	r3, [r3, #0]
    1496:	461a      	mov	r2, r3
    1498:	f002 02fe 	and.w	r2, r2, #254	; 0xfe
    149c:	f640 13e0 	movw	r3, #2528	; 0x9e0
    14a0:	f2c1 0300 	movt	r3, #4096	; 0x1000
    14a4:	701a      	strb	r2, [r3, #0]
    14a6:	46bd      	mov	sp, r7
    14a8:	bd80      	pop	{r7, pc}
    14aa:	bf00      	nop

000014ac <ProcessEthBroadcastFrame>:
    14ac:	b580      	push	{r7, lr}
    14ae:	b082      	sub	sp, #8
    14b0:	af00      	add	r7, sp, #0
    14b2:	f7ff f8f7 	bl	6a4 <ReadFrameBE_EMAC>
    14b6:	4603      	mov	r3, r0
    14b8:	461a      	mov	r2, r3
    14ba:	f640 0306 	movw	r3, #2054	; 0x806
    14be:	429a      	cmp	r2, r3
    14c0:	d13e      	bne.n	1540 <ProcessEthBroadcastFrame+0x94>
    14c2:	f7ff f8ef 	bl	6a4 <ReadFrameBE_EMAC>
    14c6:	4603      	mov	r3, r0
    14c8:	2b01      	cmp	r3, #1
    14ca:	d139      	bne.n	1540 <ProcessEthBroadcastFrame+0x94>
    14cc:	f7ff f8ea 	bl	6a4 <ReadFrameBE_EMAC>
    14d0:	4603      	mov	r3, r0
    14d2:	f5b3 6f00 	cmp.w	r3, #2048	; 0x800
    14d6:	d133      	bne.n	1540 <ProcessEthBroadcastFrame+0x94>
    14d8:	f7ff f8e4 	bl	6a4 <ReadFrameBE_EMAC>
    14dc:	4603      	mov	r3, r0
    14de:	461a      	mov	r2, r3
    14e0:	f240 6304 	movw	r3, #1540	; 0x604
    14e4:	429a      	cmp	r2, r3
    14e6:	d12b      	bne.n	1540 <ProcessEthBroadcastFrame+0x94>
    14e8:	f7ff f8dc 	bl	6a4 <ReadFrameBE_EMAC>
    14ec:	4603      	mov	r3, r0
    14ee:	2b01      	cmp	r3, #1
    14f0:	d126      	bne.n	1540 <ProcessEthBroadcastFrame+0x94>
    14f2:	f04f 0006 	mov.w	r0, #6	; 0x6
    14f6:	f7ff f917 	bl	728 <DummyReadFrame_EMAC>
    14fa:	f640 00ae 	movw	r0, #2222	; 0x8ae
    14fe:	f2c1 0000 	movt	r0, #4096	; 0x1000
    1502:	f04f 0104 	mov.w	r1, #4	; 0x4
    1506:	f7ff f8e9 	bl	6dc <CopyFromFrame_EMAC>
    150a:	f04f 0006 	mov.w	r0, #6	; 0x6
    150e:	f7ff f90b 	bl	728 <DummyReadFrame_EMAC>
    1512:	f107 0304 	add.w	r3, r7, #4	; 0x4
    1516:	4618      	mov	r0, r3
    1518:	f04f 0104 	mov.w	r1, #4	; 0x4
    151c:	f7ff f8de 	bl	6dc <CopyFromFrame_EMAC>
    1520:	f107 0304 	add.w	r3, r7, #4	; 0x4
    1524:	f248 5026 	movw	r0, #34086	; 0x8526
    1528:	f2c0 0000 	movt	r0, #0	; 0x0
    152c:	4619      	mov	r1, r3
    152e:	f04f 0204 	mov.w	r2, #4	; 0x4
    1532:	f001 fd49 	bl	2fc8 <memcmp>
    1536:	4603      	mov	r3, r0
    1538:	2b00      	cmp	r3, #0
    153a:	d101      	bne.n	1540 <ProcessEthBroadcastFrame+0x94>
    153c:	f000 fd06 	bl	1f4c <PrepareARP_ANSWER>
    1540:	f107 0708 	add.w	r7, r7, #8	; 0x8
    1544:	46bd      	mov	sp, r7
    1546:	bd80      	pop	{r7, pc}

00001548 <ProcessEthIAFrame>:
    1548:	b580      	push	{r7, lr}
    154a:	b084      	sub	sp, #16
    154c:	af00      	add	r7, sp, #0
    154e:	f7ff f8a9 	bl	6a4 <ReadFrameBE_EMAC>
    1552:	4603      	mov	r3, r0
    1554:	603b      	str	r3, [r7, #0]
    1556:	683a      	ldr	r2, [r7, #0]
    1558:	f5b2 6f00 	cmp.w	r2, #2048	; 0x800
    155c:	d03e      	beq.n	15dc <ProcessEthIAFrame+0x94>
    155e:	f640 0306 	movw	r3, #2054	; 0x806
    1562:	683a      	ldr	r2, [r7, #0]
    1564:	429a      	cmp	r2, r3
    1566:	f040 8086 	bne.w	1676 <ProcessEthIAFrame+0x12e>
    156a:	f640 13c2 	movw	r3, #2498	; 0x9c2
    156e:	f2c1 0300 	movt	r3, #4096	; 0x1000
    1572:	781b      	ldrb	r3, [r3, #0]
    1574:	f003 0303 	and.w	r3, r3, #3	; 0x3
    1578:	2b01      	cmp	r3, #1
    157a:	d17c      	bne.n	1676 <ProcessEthIAFrame+0x12e>
    157c:	f7ff f892 	bl	6a4 <ReadFrameBE_EMAC>
    1580:	4603      	mov	r3, r0
    1582:	2b01      	cmp	r3, #1
    1584:	d177      	bne.n	1676 <ProcessEthIAFrame+0x12e>
    1586:	f7ff f88d 	bl	6a4 <ReadFrameBE_EMAC>
    158a:	4603      	mov	r3, r0
    158c:	f5b3 6f00 	cmp.w	r3, #2048	; 0x800
    1590:	d171      	bne.n	1676 <ProcessEthIAFrame+0x12e>
    1592:	f7ff f887 	bl	6a4 <ReadFrameBE_EMAC>
    1596:	4603      	mov	r3, r0
    1598:	461a      	mov	r2, r3
    159a:	f240 6304 	movw	r3, #1540	; 0x604
    159e:	429a      	cmp	r2, r3
    15a0:	d169      	bne.n	1676 <ProcessEthIAFrame+0x12e>
    15a2:	f7ff f87f 	bl	6a4 <ReadFrameBE_EMAC>
    15a6:	4603      	mov	r3, r0
    15a8:	2b02      	cmp	r3, #2
    15aa:	d164      	bne.n	1676 <ProcessEthIAFrame+0x12e>
    15ac:	f001 f8b8 	bl	2720 <TCPStopTimer>
    15b0:	f640 00b2 	movw	r0, #2226	; 0x8b2
    15b4:	f2c1 0000 	movt	r0, #4096	; 0x1000
    15b8:	f04f 0106 	mov.w	r1, #6	; 0x6
    15bc:	f7ff f88e 	bl	6dc <CopyFromFrame_EMAC>
    15c0:	f640 13c2 	movw	r3, #2498	; 0x9c2
    15c4:	f2c1 0300 	movt	r3, #4096	; 0x1000
    15c8:	781b      	ldrb	r3, [r3, #0]
    15ca:	f043 0302 	orr.w	r3, r3, #2	; 0x2
    15ce:	b2da      	uxtb	r2, r3
    15d0:	f640 13c2 	movw	r3, #2498	; 0x9c2
    15d4:	f2c1 0300 	movt	r3, #4096	; 0x1000
    15d8:	701a      	strb	r2, [r3, #0]
    15da:	e04c      	b.n	1676 <ProcessEthIAFrame+0x12e>
    15dc:	f7ff f862 	bl	6a4 <ReadFrameBE_EMAC>
    15e0:	4603      	mov	r3, r0
    15e2:	f403 437f 	and.w	r3, r3, #65280	; 0xff00
    15e6:	f5b3 4f8a 	cmp.w	r3, #17664	; 0x4500
    15ea:	d144      	bne.n	1676 <ProcessEthIAFrame+0x12e>
    15ec:	f7ff f85a 	bl	6a4 <ReadFrameBE_EMAC>
    15f0:	4603      	mov	r3, r0
    15f2:	461a      	mov	r2, r3
    15f4:	f640 13ca 	movw	r3, #2506	; 0x9ca
    15f8:	f2c1 0300 	movt	r3, #4096	; 0x1000
    15fc:	801a      	strh	r2, [r3, #0]
    15fe:	f7ff f851 	bl	6a4 <ReadFrameBE_EMAC>
    1602:	f7ff f84f 	bl	6a4 <ReadFrameBE_EMAC>
    1606:	4603      	mov	r3, r0
    1608:	ea4f 4383 	mov.w	r3, r3, lsl #18
    160c:	ea4f 4393 	mov.w	r3, r3, lsr #18
    1610:	2b00      	cmp	r3, #0
    1612:	d130      	bne.n	1676 <ProcessEthIAFrame+0x12e>
    1614:	f7ff f846 	bl	6a4 <ReadFrameBE_EMAC>
    1618:	4603      	mov	r3, r0
    161a:	73fb      	strb	r3, [r7, #15]
    161c:	f7ff f842 	bl	6a4 <ReadFrameBE_EMAC>
    1620:	f640 00ae 	movw	r0, #2222	; 0x8ae
    1624:	f2c1 0000 	movt	r0, #4096	; 0x1000
    1628:	f04f 0104 	mov.w	r1, #4	; 0x4
    162c:	f7ff f856 	bl	6dc <CopyFromFrame_EMAC>
    1630:	f107 030a 	add.w	r3, r7, #10	; 0xa
    1634:	4618      	mov	r0, r3
    1636:	f04f 0104 	mov.w	r1, #4	; 0x4
    163a:	f7ff f84f 	bl	6dc <CopyFromFrame_EMAC>
    163e:	f107 030a 	add.w	r3, r7, #10	; 0xa
    1642:	f248 5026 	movw	r0, #34086	; 0x8526
    1646:	f2c0 0000 	movt	r0, #0	; 0x0
    164a:	4619      	mov	r1, r3
    164c:	f04f 0204 	mov.w	r2, #4	; 0x4
    1650:	f001 fcba 	bl	2fc8 <memcmp>
    1654:	4603      	mov	r3, r0
    1656:	2b00      	cmp	r3, #0
    1658:	d10d      	bne.n	1676 <ProcessEthIAFrame+0x12e>
    165a:	7bfb      	ldrb	r3, [r7, #15]
    165c:	607b      	str	r3, [r7, #4]
    165e:	687a      	ldr	r2, [r7, #4]
    1660:	2a01      	cmp	r2, #1
    1662:	d003      	beq.n	166c <ProcessEthIAFrame+0x124>
    1664:	687b      	ldr	r3, [r7, #4]
    1666:	2b06      	cmp	r3, #6
    1668:	d003      	beq.n	1672 <ProcessEthIAFrame+0x12a>
    166a:	e004      	b.n	1676 <ProcessEthIAFrame+0x12e>
    166c:	f000 f808 	bl	1680 <ProcessICMPFrame>
    1670:	e001      	b.n	1676 <ProcessEthIAFrame+0x12e>
    1672:	f000 f81b 	bl	16ac <ProcessTCPFrame>
    1676:	f107 0710 	add.w	r7, r7, #16	; 0x10
    167a:	46bd      	mov	sp, r7
    167c:	bd80      	pop	{r7, pc}
    167e:	bf00      	nop

00001680 <ProcessICMPFrame>:
    1680:	b580      	push	{r7, lr}
    1682:	b082      	sub	sp, #8
    1684:	af00      	add	r7, sp, #0
    1686:	f7ff f80d 	bl	6a4 <ReadFrameBE_EMAC>
    168a:	4603      	mov	r3, r0
    168c:	80fb      	strh	r3, [r7, #6]
    168e:	f7ff f809 	bl	6a4 <ReadFrameBE_EMAC>
    1692:	88fb      	ldrh	r3, [r7, #6]
    1694:	ea4f 2313 	mov.w	r3, r3, lsr #8
    1698:	b29b      	uxth	r3, r3
    169a:	2b08      	cmp	r3, #8
    169c:	d101      	bne.n	16a2 <ProcessICMPFrame+0x22>
    169e:	f000 fccf 	bl	2040 <PrepareICMP_ECHO_REPLY>
    16a2:	f107 0708 	add.w	r7, r7, #8	; 0x8
    16a6:	46bd      	mov	sp, r7
    16a8:	bd80      	pop	{r7, pc}
    16aa:	bf00      	nop

000016ac <ProcessTCPFrame>:
    16ac:	b580      	push	{r7, lr}
    16ae:	b088      	sub	sp, #32
    16b0:	af00      	add	r7, sp, #0
    16b2:	f7fe fff7 	bl	6a4 <ReadFrameBE_EMAC>
    16b6:	4603      	mov	r3, r0
    16b8:	81bb      	strh	r3, [r7, #12]
    16ba:	f7fe fff3 	bl	6a4 <ReadFrameBE_EMAC>
    16be:	4603      	mov	r3, r0
    16c0:	81fb      	strh	r3, [r7, #14]
    16c2:	f640 03c0 	movw	r3, #2240	; 0x8c0
    16c6:	f2c1 0300 	movt	r3, #4096	; 0x1000
    16ca:	881a      	ldrh	r2, [r3, #0]
    16cc:	89fb      	ldrh	r3, [r7, #14]
    16ce:	4293      	cmp	r3, r2
    16d0:	f040 838a 	bne.w	1de8 <ProcessTCPFrame+0x73c>
    16d4:	f7fe ffe6 	bl	6a4 <ReadFrameBE_EMAC>
    16d8:	4603      	mov	r3, r0
    16da:	ea4f 4303 	mov.w	r3, r3, lsl #16
    16de:	613b      	str	r3, [r7, #16]
    16e0:	f7fe ffe0 	bl	6a4 <ReadFrameBE_EMAC>
    16e4:	4603      	mov	r3, r0
    16e6:	461a      	mov	r2, r3
    16e8:	693b      	ldr	r3, [r7, #16]
    16ea:	ea43 0302 	orr.w	r3, r3, r2
    16ee:	613b      	str	r3, [r7, #16]
    16f0:	f7fe ffd8 	bl	6a4 <ReadFrameBE_EMAC>
    16f4:	4603      	mov	r3, r0
    16f6:	ea4f 4303 	mov.w	r3, r3, lsl #16
    16fa:	617b      	str	r3, [r7, #20]
    16fc:	f7fe ffd2 	bl	6a4 <ReadFrameBE_EMAC>
    1700:	4603      	mov	r3, r0
    1702:	461a      	mov	r2, r3
    1704:	697b      	ldr	r3, [r7, #20]
    1706:	ea43 0302 	orr.w	r3, r3, r2
    170a:	617b      	str	r3, [r7, #20]
    170c:	f7fe ffca 	bl	6a4 <ReadFrameBE_EMAC>
    1710:	4603      	mov	r3, r0
    1712:	837b      	strh	r3, [r7, #26]
    1714:	8b7b      	ldrh	r3, [r7, #26]
    1716:	f403 4370 	and.w	r3, r3, #61440	; 0xf000
    171a:	ea4f 23a3 	mov.w	r3, r3, asr #10
    171e:	777b      	strb	r3, [r7, #29]
    1720:	f640 13ca 	movw	r3, #2506	; 0x9ca
    1724:	f2c1 0300 	movt	r3, #4096	; 0x1000
    1728:	881a      	ldrh	r2, [r3, #0]
    172a:	7f7b      	ldrb	r3, [r7, #29]
    172c:	ebc3 0302 	rsb	r3, r3, r2
    1730:	b29b      	uxth	r3, r3
    1732:	f1a3 0314 	sub.w	r3, r3, #20	; 0x14
    1736:	83fb      	strh	r3, [r7, #30]
    1738:	8bfb      	ldrh	r3, [r7, #30]
    173a:	f5b3 7f80 	cmp.w	r3, #256	; 0x100
    173e:	f200 8353 	bhi.w	1de8 <ProcessTCPFrame+0x73c>
    1742:	7f7b      	ldrb	r3, [r7, #29]
    1744:	2b14      	cmp	r3, #20
    1746:	d906      	bls.n	1756 <ProcessTCPFrame+0xaa>
    1748:	7f7b      	ldrb	r3, [r7, #29]
    174a:	f1a3 0314 	sub.w	r3, r3, #20	; 0x14
    174e:	b29b      	uxth	r3, r3
    1750:	4618      	mov	r0, r3
    1752:	f7fe ffe9 	bl	728 <DummyReadFrame_EMAC>
    1756:	f640 03b8 	movw	r3, #2232	; 0x8b8
    175a:	f2c1 0300 	movt	r3, #4096	; 0x1000
    175e:	781b      	ldrb	r3, [r3, #0]
    1760:	607b      	str	r3, [r7, #4]
    1762:	687a      	ldr	r2, [r7, #4]
    1764:	2a01      	cmp	r2, #1
    1766:	d060      	beq.n	182a <ProcessTCPFrame+0x17e>
    1768:	687b      	ldr	r3, [r7, #4]
    176a:	2b02      	cmp	r3, #2
    176c:	f000 80d7 	beq.w	191e <ProcessTCPFrame+0x272>
    1770:	687a      	ldr	r2, [r7, #4]
    1772:	2a00      	cmp	r2, #0
    1774:	f040 8191 	bne.w	1a9a <ProcessTCPFrame+0x3ee>
    1778:	8b7b      	ldrh	r3, [r7, #26]
    177a:	f003 0304 	and.w	r3, r3, #4	; 0x4
    177e:	2b00      	cmp	r3, #0
    1780:	f040 8332 	bne.w	1de8 <ProcessTCPFrame+0x73c>
    1784:	f640 13d6 	movw	r3, #2518	; 0x9d6
    1788:	f2c1 0300 	movt	r3, #4096	; 0x1000
    178c:	89ba      	ldrh	r2, [r7, #12]
    178e:	801a      	strh	r2, [r3, #0]
    1790:	f640 00b2 	movw	r0, #2226	; 0x8b2
    1794:	f2c1 0000 	movt	r0, #4096	; 0x1000
    1798:	f640 11c4 	movw	r1, #2500	; 0x9c4
    179c:	f2c1 0100 	movt	r1, #4096	; 0x1000
    17a0:	f04f 0206 	mov.w	r2, #6	; 0x6
    17a4:	f001 fc3c 	bl	3020 <memcpy>
    17a8:	f640 10d0 	movw	r0, #2512	; 0x9d0
    17ac:	f2c1 0000 	movt	r0, #4096	; 0x1000
    17b0:	f640 01ae 	movw	r1, #2222	; 0x8ae
    17b4:	f2c1 0100 	movt	r1, #4096	; 0x1000
    17b8:	f04f 0204 	mov.w	r2, #4	; 0x4
    17bc:	f001 fc30 	bl	3020 <memcpy>
    17c0:	8b7b      	ldrh	r3, [r7, #26]
    17c2:	f003 0310 	and.w	r3, r3, #16	; 0x10
    17c6:	2b00      	cmp	r3, #0
    17c8:	d00a      	beq.n	17e0 <ProcessTCPFrame+0x134>
    17ca:	f640 4368 	movw	r3, #3176	; 0xc68
    17ce:	f2c1 0300 	movt	r3, #4096	; 0x1000
    17d2:	697a      	ldr	r2, [r7, #20]
    17d4:	601a      	str	r2, [r3, #0]
    17d6:	f04f 0004 	mov.w	r0, #4	; 0x4
    17da:	f000 fce9 	bl	21b0 <PrepareTCP_FRAME>
    17de:	e303      	b.n	1de8 <ProcessTCPFrame+0x73c>
    17e0:	f640 4368 	movw	r3, #3176	; 0xc68
    17e4:	f2c1 0300 	movt	r3, #4096	; 0x1000
    17e8:	f04f 0200 	mov.w	r2, #0	; 0x0
    17ec:	601a      	str	r2, [r3, #0]
    17ee:	8bfa      	ldrh	r2, [r7, #30]
    17f0:	693b      	ldr	r3, [r7, #16]
    17f2:	441a      	add	r2, r3
    17f4:	f640 13dc 	movw	r3, #2524	; 0x9dc
    17f8:	f2c1 0300 	movt	r3, #4096	; 0x1000
    17fc:	601a      	str	r2, [r3, #0]
    17fe:	8b7b      	ldrh	r3, [r7, #26]
    1800:	f003 0303 	and.w	r3, r3, #3	; 0x3
    1804:	2b00      	cmp	r3, #0
    1806:	d00b      	beq.n	1820 <ProcessTCPFrame+0x174>
    1808:	f640 13dc 	movw	r3, #2524	; 0x9dc
    180c:	f2c1 0300 	movt	r3, #4096	; 0x1000
    1810:	681b      	ldr	r3, [r3, #0]
    1812:	f103 0201 	add.w	r2, r3, #1	; 0x1
    1816:	f640 13dc 	movw	r3, #2524	; 0x9dc
    181a:	f2c1 0300 	movt	r3, #4096	; 0x1000
    181e:	601a      	str	r2, [r3, #0]
    1820:	f04f 0014 	mov.w	r0, #20	; 0x14
    1824:	f000 fcc4 	bl	21b0 <PrepareTCP_FRAME>
    1828:	e2de      	b.n	1de8 <ProcessTCPFrame+0x73c>
    182a:	8b7b      	ldrh	r3, [r7, #26]
    182c:	f003 0304 	and.w	r3, r3, #4	; 0x4
    1830:	2b00      	cmp	r3, #0
    1832:	f040 82d9 	bne.w	1de8 <ProcessTCPFrame+0x73c>
    1836:	f640 13d6 	movw	r3, #2518	; 0x9d6
    183a:	f2c1 0300 	movt	r3, #4096	; 0x1000
    183e:	89ba      	ldrh	r2, [r7, #12]
    1840:	801a      	strh	r2, [r3, #0]
    1842:	f640 00b2 	movw	r0, #2226	; 0x8b2
    1846:	f2c1 0000 	movt	r0, #4096	; 0x1000
    184a:	f640 11c4 	movw	r1, #2500	; 0x9c4
    184e:	f2c1 0100 	movt	r1, #4096	; 0x1000
    1852:	f04f 0206 	mov.w	r2, #6	; 0x6
    1856:	f001 fbe3 	bl	3020 <memcpy>
    185a:	f640 10d0 	movw	r0, #2512	; 0x9d0
    185e:	f2c1 0000 	movt	r0, #4096	; 0x1000
    1862:	f640 01ae 	movw	r1, #2222	; 0x8ae
    1866:	f2c1 0100 	movt	r1, #4096	; 0x1000
    186a:	f04f 0204 	mov.w	r2, #4	; 0x4
    186e:	f001 fbd7 	bl	3020 <memcpy>
    1872:	8b7b      	ldrh	r3, [r7, #26]
    1874:	f003 0310 	and.w	r3, r3, #16	; 0x10
    1878:	2b00      	cmp	r3, #0
    187a:	d00a      	beq.n	1892 <ProcessTCPFrame+0x1e6>
    187c:	f640 4368 	movw	r3, #3176	; 0xc68
    1880:	f2c1 0300 	movt	r3, #4096	; 0x1000
    1884:	697a      	ldr	r2, [r7, #20]
    1886:	601a      	str	r2, [r3, #0]
    1888:	f04f 0004 	mov.w	r0, #4	; 0x4
    188c:	f000 fc90 	bl	21b0 <PrepareTCP_FRAME>
    1890:	e2aa      	b.n	1de8 <ProcessTCPFrame+0x73c>
    1892:	8b7b      	ldrh	r3, [r7, #26]
    1894:	f003 0302 	and.w	r3, r3, #2	; 0x2
    1898:	2b00      	cmp	r3, #0
    189a:	f000 82a5 	beq.w	1de8 <ProcessTCPFrame+0x73c>
    189e:	693b      	ldr	r3, [r7, #16]
    18a0:	f103 0201 	add.w	r2, r3, #1	; 0x1
    18a4:	f640 13dc 	movw	r3, #2524	; 0x9dc
    18a8:	f2c1 0300 	movt	r3, #4096	; 0x1000
    18ac:	601a      	str	r2, [r3, #0]
    18ae:	f640 13e4 	movw	r3, #2532	; 0x9e4
    18b2:	f2c1 0300 	movt	r3, #4096	; 0x1000
    18b6:	881b      	ldrh	r3, [r3, #0]
    18b8:	ea4f 4203 	mov.w	r2, r3, lsl #16
    18bc:	f244 0300 	movw	r3, #16384	; 0x4000
    18c0:	f2c4 0300 	movt	r3, #16384	; 0x4000
    18c4:	689b      	ldr	r3, [r3, #8]
    18c6:	ea4f 4303 	mov.w	r3, r3, lsl #16
    18ca:	ea4f 4313 	mov.w	r3, r3, lsr #16
    18ce:	ea42 0203 	orr.w	r2, r2, r3
    18d2:	f640 4368 	movw	r3, #3176	; 0xc68
    18d6:	f2c1 0300 	movt	r3, #4096	; 0x1000
    18da:	601a      	str	r2, [r3, #0]
    18dc:	f640 4368 	movw	r3, #3176	; 0xc68
    18e0:	f2c1 0300 	movt	r3, #4096	; 0x1000
    18e4:	681b      	ldr	r3, [r3, #0]
    18e6:	f103 0201 	add.w	r2, r3, #1	; 0x1
    18ea:	f640 03bc 	movw	r3, #2236	; 0x8bc
    18ee:	f2c1 0300 	movt	r3, #4096	; 0x1000
    18f2:	601a      	str	r2, [r3, #0]
    18f4:	f04f 0012 	mov.w	r0, #18	; 0x12
    18f8:	f000 fc5a 	bl	21b0 <PrepareTCP_FRAME>
    18fc:	f640 13d4 	movw	r3, #2516	; 0x9d4
    1900:	f2c1 0300 	movt	r3, #4096	; 0x1000
    1904:	f04f 0202 	mov.w	r2, #2	; 0x2
    1908:	701a      	strb	r2, [r3, #0]
    190a:	f000 fea9 	bl	2660 <TCPStartRetryTimer>
    190e:	f640 03b8 	movw	r3, #2232	; 0x8b8
    1912:	f2c1 0300 	movt	r3, #4096	; 0x1000
    1916:	f04f 0203 	mov.w	r2, #3	; 0x3
    191a:	701a      	strb	r2, [r3, #0]
    191c:	e264      	b.n	1de8 <ProcessTCPFrame+0x73c>
    191e:	f640 10d0 	movw	r0, #2512	; 0x9d0
    1922:	f2c1 0000 	movt	r0, #4096	; 0x1000
    1926:	f640 01ae 	movw	r1, #2222	; 0x8ae
    192a:	f2c1 0100 	movt	r1, #4096	; 0x1000
    192e:	f04f 0204 	mov.w	r2, #4	; 0x4
    1932:	f001 fb49 	bl	2fc8 <memcmp>
    1936:	4603      	mov	r3, r0
    1938:	2b00      	cmp	r3, #0
    193a:	f040 8255 	bne.w	1de8 <ProcessTCPFrame+0x73c>
    193e:	f640 13d6 	movw	r3, #2518	; 0x9d6
    1942:	f2c1 0300 	movt	r3, #4096	; 0x1000
    1946:	881a      	ldrh	r2, [r3, #0]
    1948:	89bb      	ldrh	r3, [r7, #12]
    194a:	4293      	cmp	r3, r2
    194c:	f040 824c 	bne.w	1de8 <ProcessTCPFrame+0x73c>
    1950:	8b7b      	ldrh	r3, [r7, #26]
    1952:	f003 0310 	and.w	r3, r3, #16	; 0x10
    1956:	2b00      	cmp	r3, #0
    1958:	d018      	beq.n	198c <ProcessTCPFrame+0x2e0>
    195a:	f640 03bc 	movw	r3, #2236	; 0x8bc
    195e:	f2c1 0300 	movt	r3, #4096	; 0x1000
    1962:	681a      	ldr	r2, [r3, #0]
    1964:	697b      	ldr	r3, [r7, #20]
    1966:	4293      	cmp	r3, r2
    1968:	d010      	beq.n	198c <ProcessTCPFrame+0x2e0>
    196a:	8b7b      	ldrh	r3, [r7, #26]
    196c:	f003 0304 	and.w	r3, r3, #4	; 0x4
    1970:	2b00      	cmp	r3, #0
    1972:	f040 8239 	bne.w	1de8 <ProcessTCPFrame+0x73c>
    1976:	f640 4368 	movw	r3, #3176	; 0xc68
    197a:	f2c1 0300 	movt	r3, #4096	; 0x1000
    197e:	697a      	ldr	r2, [r7, #20]
    1980:	601a      	str	r2, [r3, #0]
    1982:	f04f 0004 	mov.w	r0, #4	; 0x4
    1986:	f000 fc13 	bl	21b0 <PrepareTCP_FRAME>
    198a:	e22d      	b.n	1de8 <ProcessTCPFrame+0x73c>
    198c:	8b7b      	ldrh	r3, [r7, #26]
    198e:	f003 0304 	and.w	r3, r3, #4	; 0x4
    1992:	2b00      	cmp	r3, #0
    1994:	d01b      	beq.n	19ce <ProcessTCPFrame+0x322>
    1996:	8b7b      	ldrh	r3, [r7, #26]
    1998:	f003 0310 	and.w	r3, r3, #16	; 0x10
    199c:	2b00      	cmp	r3, #0
    199e:	f000 8223 	beq.w	1de8 <ProcessTCPFrame+0x73c>
    19a2:	f640 03b8 	movw	r3, #2232	; 0x8b8
    19a6:	f2c1 0300 	movt	r3, #4096	; 0x1000
    19aa:	f04f 0200 	mov.w	r2, #0	; 0x0
    19ae:	701a      	strb	r2, [r3, #0]
    19b0:	f640 13c2 	movw	r3, #2498	; 0x9c2
    19b4:	f2c1 0300 	movt	r3, #4096	; 0x1000
    19b8:	f04f 0200 	mov.w	r2, #0	; 0x0
    19bc:	701a      	strb	r2, [r3, #0]
    19be:	f640 436d 	movw	r3, #3181	; 0xc6d
    19c2:	f2c1 0300 	movt	r3, #4096	; 0x1000
    19c6:	f04f 0230 	mov.w	r2, #48	; 0x30
    19ca:	701a      	strb	r2, [r3, #0]
    19cc:	e20c      	b.n	1de8 <ProcessTCPFrame+0x73c>
    19ce:	8b7b      	ldrh	r3, [r7, #26]
    19d0:	f003 0302 	and.w	r3, r3, #2	; 0x2
    19d4:	2b00      	cmp	r3, #0
    19d6:	f000 8207 	beq.w	1de8 <ProcessTCPFrame+0x73c>
    19da:	f640 13dc 	movw	r3, #2524	; 0x9dc
    19de:	f2c1 0300 	movt	r3, #4096	; 0x1000
    19e2:	693a      	ldr	r2, [r7, #16]
    19e4:	601a      	str	r2, [r3, #0]
    19e6:	f640 13dc 	movw	r3, #2524	; 0x9dc
    19ea:	f2c1 0300 	movt	r3, #4096	; 0x1000
    19ee:	681b      	ldr	r3, [r3, #0]
    19f0:	f103 0201 	add.w	r2, r3, #1	; 0x1
    19f4:	f640 13dc 	movw	r3, #2524	; 0x9dc
    19f8:	f2c1 0300 	movt	r3, #4096	; 0x1000
    19fc:	601a      	str	r2, [r3, #0]
    19fe:	8b7b      	ldrh	r3, [r7, #26]
    1a00:	f003 0310 	and.w	r3, r3, #16	; 0x10
    1a04:	2b00      	cmp	r3, #0
    1a06:	d031      	beq.n	1a6c <ProcessTCPFrame+0x3c0>
    1a08:	f000 fe8a 	bl	2720 <TCPStopTimer>
    1a0c:	f640 03bc 	movw	r3, #2236	; 0x8bc
    1a10:	f2c1 0300 	movt	r3, #4096	; 0x1000
    1a14:	681a      	ldr	r2, [r3, #0]
    1a16:	f640 4368 	movw	r3, #3176	; 0xc68
    1a1a:	f2c1 0300 	movt	r3, #4096	; 0x1000
    1a1e:	601a      	str	r2, [r3, #0]
    1a20:	f04f 0010 	mov.w	r0, #16	; 0x10
    1a24:	f000 fbc4 	bl	21b0 <PrepareTCP_FRAME>
    1a28:	f640 03b8 	movw	r3, #2232	; 0x8b8
    1a2c:	f2c1 0300 	movt	r3, #4096	; 0x1000
    1a30:	f04f 0204 	mov.w	r2, #4	; 0x4
    1a34:	701a      	strb	r2, [r3, #0]
    1a36:	f640 436d 	movw	r3, #3181	; 0xc6d
    1a3a:	f2c1 0300 	movt	r3, #4096	; 0x1000
    1a3e:	781b      	ldrb	r3, [r3, #0]
    1a40:	f043 0302 	orr.w	r3, r3, #2	; 0x2
    1a44:	b2da      	uxtb	r2, r3
    1a46:	f640 436d 	movw	r3, #3181	; 0xc6d
    1a4a:	f2c1 0300 	movt	r3, #4096	; 0x1000
    1a4e:	701a      	strb	r2, [r3, #0]
    1a50:	f640 436d 	movw	r3, #3181	; 0xc6d
    1a54:	f2c1 0300 	movt	r3, #4096	; 0x1000
    1a58:	781b      	ldrb	r3, [r3, #0]
    1a5a:	f043 0308 	orr.w	r3, r3, #8	; 0x8
    1a5e:	b2da      	uxtb	r2, r3
    1a60:	f640 436d 	movw	r3, #3181	; 0xc6d
    1a64:	f2c1 0300 	movt	r3, #4096	; 0x1000
    1a68:	701a      	strb	r2, [r3, #0]
    1a6a:	e1bd      	b.n	1de8 <ProcessTCPFrame+0x73c>
    1a6c:	f000 fe58 	bl	2720 <TCPStopTimer>
    1a70:	f04f 0012 	mov.w	r0, #18	; 0x12
    1a74:	f000 fb9c 	bl	21b0 <PrepareTCP_FRAME>
    1a78:	f640 13d4 	movw	r3, #2516	; 0x9d4
    1a7c:	f2c1 0300 	movt	r3, #4096	; 0x1000
    1a80:	f04f 0202 	mov.w	r2, #2	; 0x2
    1a84:	701a      	strb	r2, [r3, #0]
    1a86:	f000 fdeb 	bl	2660 <TCPStartRetryTimer>
    1a8a:	f640 03b8 	movw	r3, #2232	; 0x8b8
    1a8e:	f2c1 0300 	movt	r3, #4096	; 0x1000
    1a92:	f04f 0203 	mov.w	r2, #3	; 0x3
    1a96:	701a      	strb	r2, [r3, #0]
    1a98:	e1a6      	b.n	1de8 <ProcessTCPFrame+0x73c>
    1a9a:	f640 10d0 	movw	r0, #2512	; 0x9d0
    1a9e:	f2c1 0000 	movt	r0, #4096	; 0x1000
    1aa2:	f640 01ae 	movw	r1, #2222	; 0x8ae
    1aa6:	f2c1 0100 	movt	r1, #4096	; 0x1000
    1aaa:	f04f 0204 	mov.w	r2, #4	; 0x4
    1aae:	f001 fa8b 	bl	2fc8 <memcmp>
    1ab2:	4603      	mov	r3, r0
    1ab4:	2b00      	cmp	r3, #0
    1ab6:	f040 8197 	bne.w	1de8 <ProcessTCPFrame+0x73c>
    1aba:	f640 13d6 	movw	r3, #2518	; 0x9d6
    1abe:	f2c1 0300 	movt	r3, #4096	; 0x1000
    1ac2:	881a      	ldrh	r2, [r3, #0]
    1ac4:	89bb      	ldrh	r3, [r7, #12]
    1ac6:	4293      	cmp	r3, r2
    1ac8:	f040 818e 	bne.w	1de8 <ProcessTCPFrame+0x73c>
    1acc:	f640 13dc 	movw	r3, #2524	; 0x9dc
    1ad0:	f2c1 0300 	movt	r3, #4096	; 0x1000
    1ad4:	681a      	ldr	r2, [r3, #0]
    1ad6:	693b      	ldr	r3, [r7, #16]
    1ad8:	4293      	cmp	r3, r2
    1ada:	f040 8185 	bne.w	1de8 <ProcessTCPFrame+0x73c>
    1ade:	8b7b      	ldrh	r3, [r7, #26]
    1ae0:	f003 0304 	and.w	r3, r3, #4	; 0x4
    1ae4:	2b00      	cmp	r3, #0
    1ae6:	d015      	beq.n	1b14 <ProcessTCPFrame+0x468>
    1ae8:	f640 03b8 	movw	r3, #2232	; 0x8b8
    1aec:	f2c1 0300 	movt	r3, #4096	; 0x1000
    1af0:	f04f 0200 	mov.w	r2, #0	; 0x0
    1af4:	701a      	strb	r2, [r3, #0]
    1af6:	f640 13c2 	movw	r3, #2498	; 0x9c2
    1afa:	f2c1 0300 	movt	r3, #4096	; 0x1000
    1afe:	f04f 0200 	mov.w	r2, #0	; 0x0
    1b02:	701a      	strb	r2, [r3, #0]
    1b04:	f640 436d 	movw	r3, #3181	; 0xc6d
    1b08:	f2c1 0300 	movt	r3, #4096	; 0x1000
    1b0c:	f04f 0230 	mov.w	r2, #48	; 0x30
    1b10:	701a      	strb	r2, [r3, #0]
    1b12:	e169      	b.n	1de8 <ProcessTCPFrame+0x73c>
    1b14:	8b7b      	ldrh	r3, [r7, #26]
    1b16:	f003 0302 	and.w	r3, r3, #2	; 0x2
    1b1a:	2b00      	cmp	r3, #0
    1b1c:	d019      	beq.n	1b52 <ProcessTCPFrame+0x4a6>
    1b1e:	f04f 0004 	mov.w	r0, #4	; 0x4
    1b22:	f000 fb45 	bl	21b0 <PrepareTCP_FRAME>
    1b26:	f640 03b8 	movw	r3, #2232	; 0x8b8
    1b2a:	f2c1 0300 	movt	r3, #4096	; 0x1000
    1b2e:	f04f 0200 	mov.w	r2, #0	; 0x0
    1b32:	701a      	strb	r2, [r3, #0]
    1b34:	f640 13c2 	movw	r3, #2498	; 0x9c2
    1b38:	f2c1 0300 	movt	r3, #4096	; 0x1000
    1b3c:	f04f 0200 	mov.w	r2, #0	; 0x0
    1b40:	701a      	strb	r2, [r3, #0]
    1b42:	f640 436d 	movw	r3, #3181	; 0xc6d
    1b46:	f2c1 0300 	movt	r3, #4096	; 0x1000
    1b4a:	f04f 0240 	mov.w	r2, #64	; 0x40
    1b4e:	701a      	strb	r2, [r3, #0]
    1b50:	e14a      	b.n	1de8 <ProcessTCPFrame+0x73c>
    1b52:	8b7b      	ldrh	r3, [r7, #26]
    1b54:	f003 0310 	and.w	r3, r3, #16	; 0x10
    1b58:	2b00      	cmp	r3, #0
    1b5a:	f000 8145 	beq.w	1de8 <ProcessTCPFrame+0x73c>
    1b5e:	f640 03bc 	movw	r3, #2236	; 0x8bc
    1b62:	f2c1 0300 	movt	r3, #4096	; 0x1000
    1b66:	681a      	ldr	r2, [r3, #0]
    1b68:	697b      	ldr	r3, [r7, #20]
    1b6a:	4293      	cmp	r3, r2
    1b6c:	f040 8083 	bne.w	1c76 <ProcessTCPFrame+0x5ca>
    1b70:	f000 fdd6 	bl	2720 <TCPStopTimer>
    1b74:	f640 03bc 	movw	r3, #2236	; 0x8bc
    1b78:	f2c1 0300 	movt	r3, #4096	; 0x1000
    1b7c:	681a      	ldr	r2, [r3, #0]
    1b7e:	f640 4368 	movw	r3, #3176	; 0xc68
    1b82:	f2c1 0300 	movt	r3, #4096	; 0x1000
    1b86:	601a      	str	r2, [r3, #0]
    1b88:	f640 03b8 	movw	r3, #2232	; 0x8b8
    1b8c:	f2c1 0300 	movt	r3, #4096	; 0x1000
    1b90:	781b      	ldrb	r3, [r3, #0]
    1b92:	f1a3 0303 	sub.w	r3, r3, #3	; 0x3
    1b96:	2b07      	cmp	r3, #7
    1b98:	d859      	bhi.n	1c4e <ProcessTCPFrame+0x5a2>
    1b9a:	a201      	add	r2, pc, #4	(adr r2, 1ba0 <ProcessTCPFrame+0x4f4>)
    1b9c:	f852 f023 	ldr.w	pc, [r2, r3, lsl #2]
    1ba0:	00001bc1 	.word	0x00001bc1
    1ba4:	00001c4f 	.word	0x00001c4f
    1ba8:	00001beb 	.word	0x00001beb
    1bac:	00001c4f 	.word	0x00001c4f
    1bb0:	00001c4f 	.word	0x00001c4f
    1bb4:	00001bfb 	.word	0x00001bfb
    1bb8:	00001c0b 	.word	0x00001c0b
    1bbc:	00001c43 	.word	0x00001c43
    1bc0:	f640 03b8 	movw	r3, #2232	; 0x8b8
    1bc4:	f2c1 0300 	movt	r3, #4096	; 0x1000
    1bc8:	f04f 0204 	mov.w	r2, #4	; 0x4
    1bcc:	701a      	strb	r2, [r3, #0]
    1bce:	f640 436d 	movw	r3, #3181	; 0xc6d
    1bd2:	f2c1 0300 	movt	r3, #4096	; 0x1000
    1bd6:	781b      	ldrb	r3, [r3, #0]
    1bd8:	f043 0302 	orr.w	r3, r3, #2	; 0x2
    1bdc:	b2da      	uxtb	r2, r3
    1bde:	f640 436d 	movw	r3, #3181	; 0xc6d
    1be2:	f2c1 0300 	movt	r3, #4096	; 0x1000
    1be6:	701a      	strb	r2, [r3, #0]
    1be8:	e031      	b.n	1c4e <ProcessTCPFrame+0x5a2>
    1bea:	f640 03b8 	movw	r3, #2232	; 0x8b8
    1bee:	f2c1 0300 	movt	r3, #4096	; 0x1000
    1bf2:	f04f 0206 	mov.w	r2, #6	; 0x6
    1bf6:	701a      	strb	r2, [r3, #0]
    1bf8:	e029      	b.n	1c4e <ProcessTCPFrame+0x5a2>
    1bfa:	f640 03b8 	movw	r3, #2232	; 0x8b8
    1bfe:	f2c1 0300 	movt	r3, #4096	; 0x1000
    1c02:	f04f 020a 	mov.w	r2, #10	; 0xa
    1c06:	701a      	strb	r2, [r3, #0]
    1c08:	e021      	b.n	1c4e <ProcessTCPFrame+0x5a2>
    1c0a:	f640 03b8 	movw	r3, #2232	; 0x8b8
    1c0e:	f2c1 0300 	movt	r3, #4096	; 0x1000
    1c12:	f04f 0200 	mov.w	r2, #0	; 0x0
    1c16:	701a      	strb	r2, [r3, #0]
    1c18:	f640 13c2 	movw	r3, #2498	; 0x9c2
    1c1c:	f2c1 0300 	movt	r3, #4096	; 0x1000
    1c20:	f04f 0200 	mov.w	r2, #0	; 0x0
    1c24:	701a      	strb	r2, [r3, #0]
    1c26:	f640 436d 	movw	r3, #3181	; 0xc6d
    1c2a:	f2c1 0300 	movt	r3, #4096	; 0x1000
    1c2e:	781b      	ldrb	r3, [r3, #0]
    1c30:	461a      	mov	r2, r3
    1c32:	f002 0204 	and.w	r2, r2, #4	; 0x4
    1c36:	f640 436d 	movw	r3, #3181	; 0xc6d
    1c3a:	f2c1 0300 	movt	r3, #4096	; 0x1000
    1c3e:	701a      	strb	r2, [r3, #0]
    1c40:	e005      	b.n	1c4e <ProcessTCPFrame+0x5a2>
    1c42:	f04f 0010 	mov.w	r0, #16	; 0x10
    1c46:	f000 fab3 	bl	21b0 <PrepareTCP_FRAME>
    1c4a:	f000 fd5d 	bl	2708 <TCPRestartTimer>
    1c4e:	f640 03b8 	movw	r3, #2232	; 0x8b8
    1c52:	f2c1 0300 	movt	r3, #4096	; 0x1000
    1c56:	781b      	ldrb	r3, [r3, #0]
    1c58:	2b04      	cmp	r3, #4
    1c5a:	d10c      	bne.n	1c76 <ProcessTCPFrame+0x5ca>
    1c5c:	f640 436d 	movw	r3, #3181	; 0xc6d
    1c60:	f2c1 0300 	movt	r3, #4096	; 0x1000
    1c64:	781b      	ldrb	r3, [r3, #0]
    1c66:	f043 0308 	orr.w	r3, r3, #8	; 0x8
    1c6a:	b2da      	uxtb	r2, r3
    1c6c:	f640 436d 	movw	r3, #3181	; 0xc6d
    1c70:	f2c1 0300 	movt	r3, #4096	; 0x1000
    1c74:	701a      	strb	r2, [r3, #0]
    1c76:	f640 03b8 	movw	r3, #2232	; 0x8b8
    1c7a:	f2c1 0300 	movt	r3, #4096	; 0x1000
    1c7e:	781b      	ldrb	r3, [r3, #0]
    1c80:	2b04      	cmp	r3, #4
    1c82:	d00d      	beq.n	1ca0 <ProcessTCPFrame+0x5f4>
    1c84:	f640 03b8 	movw	r3, #2232	; 0x8b8
    1c88:	f2c1 0300 	movt	r3, #4096	; 0x1000
    1c8c:	781b      	ldrb	r3, [r3, #0]
    1c8e:	2b05      	cmp	r3, #5
    1c90:	d006      	beq.n	1ca0 <ProcessTCPFrame+0x5f4>
    1c92:	f640 03b8 	movw	r3, #2232	; 0x8b8
    1c96:	f2c1 0300 	movt	r3, #4096	; 0x1000
    1c9a:	781b      	ldrb	r3, [r3, #0]
    1c9c:	2b06      	cmp	r3, #6
    1c9e:	d13a      	bne.n	1d16 <ProcessTCPFrame+0x66a>
    1ca0:	8bfb      	ldrh	r3, [r7, #30]
    1ca2:	2b00      	cmp	r3, #0
    1ca4:	d037      	beq.n	1d16 <ProcessTCPFrame+0x66a>
    1ca6:	f640 436d 	movw	r3, #3181	; 0xc6d
    1caa:	f2c1 0300 	movt	r3, #4096	; 0x1000
    1cae:	781b      	ldrb	r3, [r3, #0]
    1cb0:	f003 0304 	and.w	r3, r3, #4	; 0x4
    1cb4:	2b00      	cmp	r3, #0
    1cb6:	d12e      	bne.n	1d16 <ProcessTCPFrame+0x66a>
    1cb8:	f04f 0006 	mov.w	r0, #6	; 0x6
    1cbc:	f7fe fd34 	bl	728 <DummyReadFrame_EMAC>
    1cc0:	8bfb      	ldrh	r3, [r7, #30]
    1cc2:	f640 00c2 	movw	r0, #2242	; 0x8c2
    1cc6:	f2c1 0000 	movt	r0, #4096	; 0x1000
    1cca:	4619      	mov	r1, r3
    1ccc:	f7fe fd06 	bl	6dc <CopyFromFrame_EMAC>
    1cd0:	f640 03a8 	movw	r3, #2216	; 0x8a8
    1cd4:	f2c1 0300 	movt	r3, #4096	; 0x1000
    1cd8:	8bfa      	ldrh	r2, [r7, #30]
    1cda:	801a      	strh	r2, [r3, #0]
    1cdc:	f640 436d 	movw	r3, #3181	; 0xc6d
    1ce0:	f2c1 0300 	movt	r3, #4096	; 0x1000
    1ce4:	781b      	ldrb	r3, [r3, #0]
    1ce6:	f043 0304 	orr.w	r3, r3, #4	; 0x4
    1cea:	b2da      	uxtb	r2, r3
    1cec:	f640 436d 	movw	r3, #3181	; 0xc6d
    1cf0:	f2c1 0300 	movt	r3, #4096	; 0x1000
    1cf4:	701a      	strb	r2, [r3, #0]
    1cf6:	8bfa      	ldrh	r2, [r7, #30]
    1cf8:	f640 13dc 	movw	r3, #2524	; 0x9dc
    1cfc:	f2c1 0300 	movt	r3, #4096	; 0x1000
    1d00:	681b      	ldr	r3, [r3, #0]
    1d02:	441a      	add	r2, r3
    1d04:	f640 13dc 	movw	r3, #2524	; 0x9dc
    1d08:	f2c1 0300 	movt	r3, #4096	; 0x1000
    1d0c:	601a      	str	r2, [r3, #0]
    1d0e:	f04f 0010 	mov.w	r0, #16	; 0x10
    1d12:	f000 fa4d 	bl	21b0 <PrepareTCP_FRAME>
    1d16:	8b7b      	ldrh	r3, [r7, #26]
    1d18:	f003 0301 	and.w	r3, r3, #1	; 0x1
    1d1c:	b2db      	uxtb	r3, r3
    1d1e:	2b00      	cmp	r3, #0
    1d20:	d062      	beq.n	1de8 <ProcessTCPFrame+0x73c>
    1d22:	f640 03b8 	movw	r3, #2232	; 0x8b8
    1d26:	f2c1 0300 	movt	r3, #4096	; 0x1000
    1d2a:	781b      	ldrb	r3, [r3, #0]
    1d2c:	f1a3 0303 	sub.w	r3, r3, #3	; 0x3
    1d30:	2b07      	cmp	r3, #7
    1d32:	d849      	bhi.n	1dc8 <ProcessTCPFrame+0x71c>
    1d34:	a201      	add	r2, pc, #4	(adr r2, 1d3c <ProcessTCPFrame+0x690>)
    1d36:	f852 f023 	ldr.w	pc, [r2, r3, lsl #2]
    1d3a:	bf00      	nop
    1d3c:	00001d5d 	.word	0x00001d5d
    1d40:	00001d5d 	.word	0x00001d5d
    1d44:	00001d6d 	.word	0x00001d6d
    1d48:	00001d97 	.word	0x00001d97
    1d4c:	00001dc9 	.word	0x00001dc9
    1d50:	00001dc9 	.word	0x00001dc9
    1d54:	00001dc9 	.word	0x00001dc9
    1d58:	00001dc5 	.word	0x00001dc5
    1d5c:	f640 03b8 	movw	r3, #2232	; 0x8b8
    1d60:	f2c1 0300 	movt	r3, #4096	; 0x1000
    1d64:	f04f 0207 	mov.w	r2, #7	; 0x7
    1d68:	701a      	strb	r2, [r3, #0]
    1d6a:	e02d      	b.n	1dc8 <ProcessTCPFrame+0x71c>
    1d6c:	f640 03b8 	movw	r3, #2232	; 0x8b8
    1d70:	f2c1 0300 	movt	r3, #4096	; 0x1000
    1d74:	f04f 0208 	mov.w	r2, #8	; 0x8
    1d78:	701a      	strb	r2, [r3, #0]
    1d7a:	f640 436d 	movw	r3, #3181	; 0xc6d
    1d7e:	f2c1 0300 	movt	r3, #4096	; 0x1000
    1d82:	781b      	ldrb	r3, [r3, #0]
    1d84:	461a      	mov	r2, r3
    1d86:	f002 02fd 	and.w	r2, r2, #253	; 0xfd
    1d8a:	f640 436d 	movw	r3, #3181	; 0xc6d
    1d8e:	f2c1 0300 	movt	r3, #4096	; 0x1000
    1d92:	701a      	strb	r2, [r3, #0]
    1d94:	e018      	b.n	1dc8 <ProcessTCPFrame+0x71c>
    1d96:	f000 fc91 	bl	26bc <TCPStartTimeWaitTimer>
    1d9a:	f640 03b8 	movw	r3, #2232	; 0x8b8
    1d9e:	f2c1 0300 	movt	r3, #4096	; 0x1000
    1da2:	f04f 020a 	mov.w	r2, #10	; 0xa
    1da6:	701a      	strb	r2, [r3, #0]
    1da8:	f640 436d 	movw	r3, #3181	; 0xc6d
    1dac:	f2c1 0300 	movt	r3, #4096	; 0x1000
    1db0:	781b      	ldrb	r3, [r3, #0]
    1db2:	461a      	mov	r2, r3
    1db4:	f002 02fd 	and.w	r2, r2, #253	; 0xfd
    1db8:	f640 436d 	movw	r3, #3181	; 0xc6d
    1dbc:	f2c1 0300 	movt	r3, #4096	; 0x1000
    1dc0:	701a      	strb	r2, [r3, #0]
    1dc2:	e001      	b.n	1dc8 <ProcessTCPFrame+0x71c>
    1dc4:	f000 fca0 	bl	2708 <TCPRestartTimer>
    1dc8:	f640 13dc 	movw	r3, #2524	; 0x9dc
    1dcc:	f2c1 0300 	movt	r3, #4096	; 0x1000
    1dd0:	681b      	ldr	r3, [r3, #0]
    1dd2:	f103 0201 	add.w	r2, r3, #1	; 0x1
    1dd6:	f640 13dc 	movw	r3, #2524	; 0x9dc
    1dda:	f2c1 0300 	movt	r3, #4096	; 0x1000
    1dde:	601a      	str	r2, [r3, #0]
    1de0:	f04f 0010 	mov.w	r0, #16	; 0x10
    1de4:	f000 f9e4 	bl	21b0 <PrepareTCP_FRAME>
    1de8:	f107 0720 	add.w	r7, r7, #32	; 0x20
    1dec:	46bd      	mov	sp, r7
    1dee:	bd80      	pop	{r7, pc}

00001df0 <PrepareARP_REQUEST>:
    1df0:	b580      	push	{r7, lr}
    1df2:	af00      	add	r7, sp, #0
    1df4:	f640 10e6 	movw	r0, #2534	; 0x9e6
    1df8:	f2c1 0000 	movt	r0, #4096	; 0x1000
    1dfc:	f04f 01ff 	mov.w	r1, #255	; 0xff
    1e00:	f04f 0206 	mov.w	r2, #6	; 0x6
    1e04:	f001 f9a8 	bl	3158 <memset>
    1e08:	4846      	ldr	r0, [pc, #280]	(1f24 <PrepareARP_REQUEST+0x134>)
    1e0a:	f648 3118 	movw	r1, #35608	; 0x8b18
    1e0e:	f2c0 0100 	movt	r1, #0	; 0x0
    1e12:	f04f 0206 	mov.w	r2, #6	; 0x6
    1e16:	f001 f903 	bl	3020 <memcpy>
    1e1a:	4a43      	ldr	r2, [pc, #268]	(1f28 <PrepareARP_REQUEST+0x138>)
    1e1c:	f44f 63c1 	mov.w	r3, #1544	; 0x608
    1e20:	8013      	strh	r3, [r2, #0]
    1e22:	4a42      	ldr	r2, [pc, #264]	(1f2c <PrepareARP_REQUEST+0x13c>)
    1e24:	f44f 7380 	mov.w	r3, #256	; 0x100
    1e28:	8013      	strh	r3, [r2, #0]
    1e2a:	4a41      	ldr	r2, [pc, #260]	(1f30 <PrepareARP_REQUEST+0x140>)
    1e2c:	f04f 0308 	mov.w	r3, #8	; 0x8
    1e30:	8013      	strh	r3, [r2, #0]
    1e32:	4a40      	ldr	r2, [pc, #256]	(1f34 <PrepareARP_REQUEST+0x144>)
    1e34:	f240 4306 	movw	r3, #1030	; 0x406
    1e38:	8013      	strh	r3, [r2, #0]
    1e3a:	4a3f      	ldr	r2, [pc, #252]	(1f38 <PrepareARP_REQUEST+0x148>)
    1e3c:	f44f 7380 	mov.w	r3, #256	; 0x100
    1e40:	8013      	strh	r3, [r2, #0]
    1e42:	483e      	ldr	r0, [pc, #248]	(1f3c <PrepareARP_REQUEST+0x14c>)
    1e44:	f648 3118 	movw	r1, #35608	; 0x8b18
    1e48:	f2c0 0100 	movt	r1, #0	; 0x0
    1e4c:	f04f 0206 	mov.w	r2, #6	; 0x6
    1e50:	f001 f8e6 	bl	3020 <memcpy>
    1e54:	483a      	ldr	r0, [pc, #232]	(1f40 <PrepareARP_REQUEST+0x150>)
    1e56:	f248 5126 	movw	r1, #34086	; 0x8526
    1e5a:	f2c0 0100 	movt	r1, #0	; 0x0
    1e5e:	f04f 0204 	mov.w	r2, #4	; 0x4
    1e62:	f001 f8dd 	bl	3020 <memcpy>
    1e66:	4837      	ldr	r0, [pc, #220]	(1f44 <PrepareARP_REQUEST+0x154>)
    1e68:	f04f 0100 	mov.w	r1, #0	; 0x0
    1e6c:	f04f 0206 	mov.w	r2, #6	; 0x6
    1e70:	f001 f972 	bl	3158 <memset>
    1e74:	f640 13d0 	movw	r3, #2512	; 0x9d0
    1e78:	f2c1 0300 	movt	r3, #4096	; 0x1000
    1e7c:	881a      	ldrh	r2, [r3, #0]
    1e7e:	f248 5326 	movw	r3, #34086	; 0x8526
    1e82:	f2c0 0300 	movt	r3, #0	; 0x0
    1e86:	881b      	ldrh	r3, [r3, #0]
    1e88:	ea82 0303 	eor.w	r3, r2, r3
    1e8c:	b29a      	uxth	r2, r3
    1e8e:	f248 532a 	movw	r3, #34090	; 0x852a
    1e92:	f2c0 0300 	movt	r3, #0	; 0x0
    1e96:	881b      	ldrh	r3, [r3, #0]
    1e98:	ea02 0303 	and.w	r3, r2, r3
    1e9c:	b29b      	uxth	r3, r3
    1e9e:	2b00      	cmp	r3, #0
    1ea0:	d116      	bne.n	1ed0 <PrepareARP_REQUEST+0xe0>
    1ea2:	f640 13d0 	movw	r3, #2512	; 0x9d0
    1ea6:	f2c1 0300 	movt	r3, #4096	; 0x1000
    1eaa:	885a      	ldrh	r2, [r3, #2]
    1eac:	f248 5326 	movw	r3, #34086	; 0x8526
    1eb0:	f2c0 0300 	movt	r3, #0	; 0x0
    1eb4:	885b      	ldrh	r3, [r3, #2]
    1eb6:	ea82 0303 	eor.w	r3, r2, r3
    1eba:	b29a      	uxth	r2, r3
    1ebc:	f248 532a 	movw	r3, #34090	; 0x852a
    1ec0:	f2c0 0300 	movt	r3, #0	; 0x0
    1ec4:	885b      	ldrh	r3, [r3, #2]
    1ec6:	ea02 0303 	and.w	r3, r2, r3
    1eca:	b29b      	uxth	r3, r3
    1ecc:	2b00      	cmp	r3, #0
    1ece:	d009      	beq.n	1ee4 <PrepareARP_REQUEST+0xf4>
    1ed0:	481d      	ldr	r0, [pc, #116]	(1f48 <PrepareARP_REQUEST+0x158>)
    1ed2:	f248 512e 	movw	r1, #34094	; 0x852e
    1ed6:	f2c0 0100 	movt	r1, #0	; 0x0
    1eda:	f04f 0204 	mov.w	r2, #4	; 0x4
    1ede:	f001 f89f 	bl	3020 <memcpy>
    1ee2:	e008      	b.n	1ef6 <PrepareARP_REQUEST+0x106>
    1ee4:	4818      	ldr	r0, [pc, #96]	(1f48 <PrepareARP_REQUEST+0x158>)
    1ee6:	f640 11d0 	movw	r1, #2512	; 0x9d0
    1eea:	f2c1 0100 	movt	r1, #4096	; 0x1000
    1eee:	f04f 0204 	mov.w	r2, #4	; 0x4
    1ef2:	f001 f895 	bl	3020 <memcpy>
    1ef6:	f640 13d8 	movw	r3, #2520	; 0x9d8
    1efa:	f2c1 0300 	movt	r3, #4096	; 0x1000
    1efe:	f04f 022a 	mov.w	r2, #42	; 0x2a
    1f02:	701a      	strb	r2, [r3, #0]
    1f04:	f640 13e0 	movw	r3, #2528	; 0x9e0
    1f08:	f2c1 0300 	movt	r3, #4096	; 0x1000
    1f0c:	781b      	ldrb	r3, [r3, #0]
    1f0e:	f043 0302 	orr.w	r3, r3, #2	; 0x2
    1f12:	b2da      	uxtb	r2, r3
    1f14:	f640 13e0 	movw	r3, #2528	; 0x9e0
    1f18:	f2c1 0300 	movt	r3, #4096	; 0x1000
    1f1c:	701a      	strb	r2, [r3, #0]
    1f1e:	46bd      	mov	sp, r7
    1f20:	bd80      	pop	{r7, pc}
    1f22:	bf00      	nop
    1f24:	100009ec 	.word	0x100009ec
    1f28:	100009f2 	.word	0x100009f2
    1f2c:	100009f4 	.word	0x100009f4
    1f30:	100009f6 	.word	0x100009f6
    1f34:	100009f8 	.word	0x100009f8
    1f38:	100009fa 	.word	0x100009fa
    1f3c:	100009fc 	.word	0x100009fc
    1f40:	10000a02 	.word	0x10000a02
    1f44:	10000a06 	.word	0x10000a06
    1f48:	10000a0c 	.word	0x10000a0c

00001f4c <PrepareARP_ANSWER>:
    1f4c:	b580      	push	{r7, lr}
    1f4e:	af00      	add	r7, sp, #0
    1f50:	f640 10e6 	movw	r0, #2534	; 0x9e6
    1f54:	f2c1 0000 	movt	r0, #4096	; 0x1000
    1f58:	f640 11c4 	movw	r1, #2500	; 0x9c4
    1f5c:	f2c1 0100 	movt	r1, #4096	; 0x1000
    1f60:	f04f 0206 	mov.w	r2, #6	; 0x6
    1f64:	f001 f85c 	bl	3020 <memcpy>
    1f68:	482b      	ldr	r0, [pc, #172]	(2018 <PrepareARP_ANSWER+0xcc>)
    1f6a:	f648 3118 	movw	r1, #35608	; 0x8b18
    1f6e:	f2c0 0100 	movt	r1, #0	; 0x0
    1f72:	f04f 0206 	mov.w	r2, #6	; 0x6
    1f76:	f001 f853 	bl	3020 <memcpy>
    1f7a:	4a28      	ldr	r2, [pc, #160]	(201c <PrepareARP_ANSWER+0xd0>)
    1f7c:	f44f 63c1 	mov.w	r3, #1544	; 0x608
    1f80:	8013      	strh	r3, [r2, #0]
    1f82:	4a27      	ldr	r2, [pc, #156]	(2020 <PrepareARP_ANSWER+0xd4>)
    1f84:	f44f 7380 	mov.w	r3, #256	; 0x100
    1f88:	8013      	strh	r3, [r2, #0]
    1f8a:	4a26      	ldr	r2, [pc, #152]	(2024 <PrepareARP_ANSWER+0xd8>)
    1f8c:	f04f 0308 	mov.w	r3, #8	; 0x8
    1f90:	8013      	strh	r3, [r2, #0]
    1f92:	4a25      	ldr	r2, [pc, #148]	(2028 <PrepareARP_ANSWER+0xdc>)
    1f94:	f240 4306 	movw	r3, #1030	; 0x406
    1f98:	8013      	strh	r3, [r2, #0]
    1f9a:	4a24      	ldr	r2, [pc, #144]	(202c <PrepareARP_ANSWER+0xe0>)
    1f9c:	f44f 7300 	mov.w	r3, #512	; 0x200
    1fa0:	8013      	strh	r3, [r2, #0]
    1fa2:	4823      	ldr	r0, [pc, #140]	(2030 <PrepareARP_ANSWER+0xe4>)
    1fa4:	f648 3118 	movw	r1, #35608	; 0x8b18
    1fa8:	f2c0 0100 	movt	r1, #0	; 0x0
    1fac:	f04f 0206 	mov.w	r2, #6	; 0x6
    1fb0:	f001 f836 	bl	3020 <memcpy>
    1fb4:	481f      	ldr	r0, [pc, #124]	(2034 <PrepareARP_ANSWER+0xe8>)
    1fb6:	f248 5126 	movw	r1, #34086	; 0x8526
    1fba:	f2c0 0100 	movt	r1, #0	; 0x0
    1fbe:	f04f 0204 	mov.w	r2, #4	; 0x4
    1fc2:	f001 f82d 	bl	3020 <memcpy>
    1fc6:	481c      	ldr	r0, [pc, #112]	(2038 <PrepareARP_ANSWER+0xec>)
    1fc8:	f640 11c4 	movw	r1, #2500	; 0x9c4
    1fcc:	f2c1 0100 	movt	r1, #4096	; 0x1000
    1fd0:	f04f 0206 	mov.w	r2, #6	; 0x6
    1fd4:	f001 f824 	bl	3020 <memcpy>
    1fd8:	4818      	ldr	r0, [pc, #96]	(203c <PrepareARP_ANSWER+0xf0>)
    1fda:	f640 01ae 	movw	r1, #2222	; 0x8ae
    1fde:	f2c1 0100 	movt	r1, #4096	; 0x1000
    1fe2:	f04f 0204 	mov.w	r2, #4	; 0x4
    1fe6:	f001 f81b 	bl	3020 <memcpy>
    1fea:	f640 13d8 	movw	r3, #2520	; 0x9d8
    1fee:	f2c1 0300 	movt	r3, #4096	; 0x1000
    1ff2:	f04f 022a 	mov.w	r2, #42	; 0x2a
    1ff6:	701a      	strb	r2, [r3, #0]
    1ff8:	f640 13e0 	movw	r3, #2528	; 0x9e0
    1ffc:	f2c1 0300 	movt	r3, #4096	; 0x1000
    2000:	781b      	ldrb	r3, [r3, #0]
    2002:	f043 0302 	orr.w	r3, r3, #2	; 0x2
    2006:	b2da      	uxtb	r2, r3
    2008:	f640 13e0 	movw	r3, #2528	; 0x9e0
    200c:	f2c1 0300 	movt	r3, #4096	; 0x1000
    2010:	701a      	strb	r2, [r3, #0]
    2012:	46bd      	mov	sp, r7
    2014:	bd80      	pop	{r7, pc}
    2016:	bf00      	nop
    2018:	100009ec 	.word	0x100009ec
    201c:	100009f2 	.word	0x100009f2
    2020:	100009f4 	.word	0x100009f4
    2024:	100009f6 	.word	0x100009f6
    2028:	100009f8 	.word	0x100009f8
    202c:	100009fa 	.word	0x100009fa
    2030:	100009fc 	.word	0x100009fc
    2034:	10000a02 	.word	0x10000a02
    2038:	10000a06 	.word	0x10000a06
    203c:	10000a0c 	.word	0x10000a0c

00002040 <PrepareICMP_ECHO_REPLY>:
    2040:	b590      	push	{r4, r7, lr}
    2042:	b083      	sub	sp, #12
    2044:	af00      	add	r7, sp, #0
    2046:	f640 13ca 	movw	r3, #2506	; 0x9ca
    204a:	f2c1 0300 	movt	r3, #4096	; 0x1000
    204e:	881b      	ldrh	r3, [r3, #0]
    2050:	2b3c      	cmp	r3, #60
    2052:	d903      	bls.n	205c <PrepareICMP_ECHO_REPLY+0x1c>
    2054:	f04f 0324 	mov.w	r3, #36	; 0x24
    2058:	80fb      	strh	r3, [r7, #6]
    205a:	e007      	b.n	206c <PrepareICMP_ECHO_REPLY+0x2c>
    205c:	f640 13ca 	movw	r3, #2506	; 0x9ca
    2060:	f2c1 0300 	movt	r3, #4096	; 0x1000
    2064:	881b      	ldrh	r3, [r3, #0]
    2066:	f1a3 0318 	sub.w	r3, r3, #24	; 0x18
    206a:	80fb      	strh	r3, [r7, #6]
    206c:	f640 10e6 	movw	r0, #2534	; 0x9e6
    2070:	f2c1 0000 	movt	r0, #4096	; 0x1000
    2074:	f640 11c4 	movw	r1, #2500	; 0x9c4
    2078:	f2c1 0100 	movt	r1, #4096	; 0x1000
    207c:	f04f 0206 	mov.w	r2, #6	; 0x6
    2080:	f000 ffce 	bl	3020 <memcpy>
    2084:	483d      	ldr	r0, [pc, #244]	(217c <PrepareICMP_ECHO_REPLY+0x13c>)
    2086:	f648 3118 	movw	r1, #35608	; 0x8b18
    208a:	f2c0 0100 	movt	r1, #0	; 0x0
    208e:	f04f 0206 	mov.w	r2, #6	; 0x6
    2092:	f000 ffc5 	bl	3020 <memcpy>
    2096:	4a3a      	ldr	r2, [pc, #232]	(2180 <PrepareICMP_ECHO_REPLY+0x140>)
    2098:	f04f 0308 	mov.w	r3, #8	; 0x8
    209c:	8013      	strh	r3, [r2, #0]
    209e:	4a39      	ldr	r2, [pc, #228]	(2184 <PrepareICMP_ECHO_REPLY+0x144>)
    20a0:	f04f 0345 	mov.w	r3, #69	; 0x45
    20a4:	8013      	strh	r3, [r2, #0]
    20a6:	4a38      	ldr	r2, [pc, #224]	(2188 <PrepareICMP_ECHO_REPLY+0x148>)
    20a8:	88fb      	ldrh	r3, [r7, #6]
    20aa:	f103 0318 	add.w	r3, r3, #24	; 0x18
    20ae:	b29b      	uxth	r3, r3
    20b0:	4610      	mov	r0, r2
    20b2:	4619      	mov	r1, r3
    20b4:	f000 fbf0 	bl	2898 <WriteWBE>
    20b8:	4a34      	ldr	r2, [pc, #208]	(218c <PrepareICMP_ECHO_REPLY+0x14c>)
    20ba:	f04f 0300 	mov.w	r3, #0	; 0x0
    20be:	8013      	strh	r3, [r2, #0]
    20c0:	4a33      	ldr	r2, [pc, #204]	(2190 <PrepareICMP_ECHO_REPLY+0x150>)
    20c2:	f04f 0300 	mov.w	r3, #0	; 0x0
    20c6:	8013      	strh	r3, [r2, #0]
    20c8:	4a32      	ldr	r2, [pc, #200]	(2194 <PrepareICMP_ECHO_REPLY+0x154>)
    20ca:	f44f 73a0 	mov.w	r3, #320	; 0x140
    20ce:	8013      	strh	r3, [r2, #0]
    20d0:	4a31      	ldr	r2, [pc, #196]	(2198 <PrepareICMP_ECHO_REPLY+0x158>)
    20d2:	f04f 0300 	mov.w	r3, #0	; 0x0
    20d6:	8013      	strh	r3, [r2, #0]
    20d8:	4830      	ldr	r0, [pc, #192]	(219c <PrepareICMP_ECHO_REPLY+0x15c>)
    20da:	f248 5126 	movw	r1, #34086	; 0x8526
    20de:	f2c0 0100 	movt	r1, #0	; 0x0
    20e2:	f04f 0204 	mov.w	r2, #4	; 0x4
    20e6:	f000 ff9b 	bl	3020 <memcpy>
    20ea:	482d      	ldr	r0, [pc, #180]	(21a0 <PrepareICMP_ECHO_REPLY+0x160>)
    20ec:	f640 01ae 	movw	r1, #2222	; 0x8ae
    20f0:	f2c1 0100 	movt	r1, #4096	; 0x1000
    20f4:	f04f 0204 	mov.w	r2, #4	; 0x4
    20f8:	f000 ff92 	bl	3020 <memcpy>
    20fc:	4c26      	ldr	r4, [pc, #152]	(2198 <PrepareICMP_ECHO_REPLY+0x158>)
    20fe:	4821      	ldr	r0, [pc, #132]	(2184 <PrepareICMP_ECHO_REPLY+0x144>)
    2100:	f04f 0114 	mov.w	r1, #20	; 0x14
    2104:	f04f 0200 	mov.w	r2, #0	; 0x0
    2108:	f000 fa34 	bl	2574 <CalcChecksum>
    210c:	4603      	mov	r3, r0
    210e:	8023      	strh	r3, [r4, #0]
    2110:	4a24      	ldr	r2, [pc, #144]	(21a4 <PrepareICMP_ECHO_REPLY+0x164>)
    2112:	f04f 0300 	mov.w	r3, #0	; 0x0
    2116:	8013      	strh	r3, [r2, #0]
    2118:	4a23      	ldr	r2, [pc, #140]	(21a8 <PrepareICMP_ECHO_REPLY+0x168>)
    211a:	f04f 0300 	mov.w	r3, #0	; 0x0
    211e:	8013      	strh	r3, [r2, #0]
    2120:	88fb      	ldrh	r3, [r7, #6]
    2122:	4822      	ldr	r0, [pc, #136]	(21ac <PrepareICMP_ECHO_REPLY+0x16c>)
    2124:	4619      	mov	r1, r3
    2126:	f7fe fad9 	bl	6dc <CopyFromFrame_EMAC>
    212a:	4c1f      	ldr	r4, [pc, #124]	(21a8 <PrepareICMP_ECHO_REPLY+0x168>)
    212c:	88fb      	ldrh	r3, [r7, #6]
    212e:	f103 0304 	add.w	r3, r3, #4	; 0x4
    2132:	b29b      	uxth	r3, r3
    2134:	481b      	ldr	r0, [pc, #108]	(21a4 <PrepareICMP_ECHO_REPLY+0x164>)
    2136:	4619      	mov	r1, r3
    2138:	f04f 0200 	mov.w	r2, #0	; 0x0
    213c:	f000 fa1a 	bl	2574 <CalcChecksum>
    2140:	4603      	mov	r3, r0
    2142:	8023      	strh	r3, [r4, #0]
    2144:	88fb      	ldrh	r3, [r7, #6]
    2146:	b2db      	uxtb	r3, r3
    2148:	f103 0326 	add.w	r3, r3, #38	; 0x26
    214c:	b2da      	uxtb	r2, r3
    214e:	f640 13d8 	movw	r3, #2520	; 0x9d8
    2152:	f2c1 0300 	movt	r3, #4096	; 0x1000
    2156:	701a      	strb	r2, [r3, #0]
    2158:	f640 13e0 	movw	r3, #2528	; 0x9e0
    215c:	f2c1 0300 	movt	r3, #4096	; 0x1000
    2160:	781b      	ldrb	r3, [r3, #0]
    2162:	f043 0302 	orr.w	r3, r3, #2	; 0x2
    2166:	b2da      	uxtb	r2, r3
    2168:	f640 13e0 	movw	r3, #2528	; 0x9e0
    216c:	f2c1 0300 	movt	r3, #4096	; 0x1000
    2170:	701a      	strb	r2, [r3, #0]
    2172:	f107 070c 	add.w	r7, r7, #12	; 0xc
    2176:	46bd      	mov	sp, r7
    2178:	bd90      	pop	{r4, r7, pc}
    217a:	bf00      	nop
    217c:	100009ec 	.word	0x100009ec
    2180:	100009f2 	.word	0x100009f2
    2184:	100009f4 	.word	0x100009f4
    2188:	100009f6 	.word	0x100009f6
    218c:	100009f8 	.word	0x100009f8
    2190:	100009fa 	.word	0x100009fa
    2194:	100009fc 	.word	0x100009fc
    2198:	100009fe 	.word	0x100009fe
    219c:	10000a00 	.word	0x10000a00
    21a0:	10000a04 	.word	0x10000a04
    21a4:	10000a08 	.word	0x10000a08
    21a8:	10000a0a 	.word	0x10000a0a
    21ac:	10000a0c 	.word	0x10000a0c

000021b0 <PrepareTCP_FRAME>:
    21b0:	b590      	push	{r4, r7, lr}
    21b2:	b083      	sub	sp, #12
    21b4:	af00      	add	r7, sp, #0
    21b6:	4603      	mov	r3, r0
    21b8:	80fb      	strh	r3, [r7, #6]
    21ba:	f640 10e6 	movw	r0, #2534	; 0x9e6
    21be:	f2c1 0000 	movt	r0, #4096	; 0x1000
    21c2:	f640 01b2 	movw	r1, #2226	; 0x8b2
    21c6:	f2c1 0100 	movt	r1, #4096	; 0x1000
    21ca:	f04f 0206 	mov.w	r2, #6	; 0x6
    21ce:	f000 ff27 	bl	3020 <memcpy>
    21d2:	4870      	ldr	r0, [pc, #448]	(2394 <PrepareTCP_FRAME+0x1e4>)
    21d4:	f648 3118 	movw	r1, #35608	; 0x8b18
    21d8:	f2c0 0100 	movt	r1, #0	; 0x0
    21dc:	f04f 0206 	mov.w	r2, #6	; 0x6
    21e0:	f000 ff1e 	bl	3020 <memcpy>
    21e4:	4a6c      	ldr	r2, [pc, #432]	(2398 <PrepareTCP_FRAME+0x1e8>)
    21e6:	f04f 0308 	mov.w	r3, #8	; 0x8
    21ea:	8013      	strh	r3, [r2, #0]
    21ec:	4a6b      	ldr	r2, [pc, #428]	(239c <PrepareTCP_FRAME+0x1ec>)
    21ee:	f241 0345 	movw	r3, #4165	; 0x1045
    21f2:	8013      	strh	r3, [r2, #0]
    21f4:	88fb      	ldrh	r3, [r7, #6]
    21f6:	f003 0302 	and.w	r3, r3, #2	; 0x2
    21fa:	2b00      	cmp	r3, #0
    21fc:	d004      	beq.n	2208 <PrepareTCP_FRAME+0x58>
    21fe:	4b68      	ldr	r3, [pc, #416]	(23a0 <PrepareTCP_FRAME+0x1f0>)
    2200:	f44f 5230 	mov.w	r2, #11264	; 0x2c00
    2204:	801a      	strh	r2, [r3, #0]
    2206:	e003      	b.n	2210 <PrepareTCP_FRAME+0x60>
    2208:	4b65      	ldr	r3, [pc, #404]	(23a0 <PrepareTCP_FRAME+0x1f0>)
    220a:	f44f 5220 	mov.w	r2, #10240	; 0x2800
    220e:	801a      	strh	r2, [r3, #0]
    2210:	4a64      	ldr	r2, [pc, #400]	(23a4 <PrepareTCP_FRAME+0x1f4>)
    2212:	f04f 0300 	mov.w	r3, #0	; 0x0
    2216:	8013      	strh	r3, [r2, #0]
    2218:	4a63      	ldr	r2, [pc, #396]	(23a8 <PrepareTCP_FRAME+0x1f8>)
    221a:	f04f 0300 	mov.w	r3, #0	; 0x0
    221e:	8013      	strh	r3, [r2, #0]
    2220:	4a62      	ldr	r2, [pc, #392]	(23ac <PrepareTCP_FRAME+0x1fc>)
    2222:	f44f 63c8 	mov.w	r3, #1600	; 0x640
    2226:	8013      	strh	r3, [r2, #0]
    2228:	4a61      	ldr	r2, [pc, #388]	(23b0 <PrepareTCP_FRAME+0x200>)
    222a:	f04f 0300 	mov.w	r3, #0	; 0x0
    222e:	8013      	strh	r3, [r2, #0]
    2230:	4860      	ldr	r0, [pc, #384]	(23b4 <PrepareTCP_FRAME+0x204>)
    2232:	f248 5126 	movw	r1, #34086	; 0x8526
    2236:	f2c0 0100 	movt	r1, #0	; 0x0
    223a:	f04f 0204 	mov.w	r2, #4	; 0x4
    223e:	f000 feef 	bl	3020 <memcpy>
    2242:	485d      	ldr	r0, [pc, #372]	(23b8 <PrepareTCP_FRAME+0x208>)
    2244:	f640 11d0 	movw	r1, #2512	; 0x9d0
    2248:	f2c1 0100 	movt	r1, #4096	; 0x1000
    224c:	f04f 0204 	mov.w	r2, #4	; 0x4
    2250:	f000 fee6 	bl	3020 <memcpy>
    2254:	4c56      	ldr	r4, [pc, #344]	(23b0 <PrepareTCP_FRAME+0x200>)
    2256:	4851      	ldr	r0, [pc, #324]	(239c <PrepareTCP_FRAME+0x1ec>)
    2258:	f04f 0114 	mov.w	r1, #20	; 0x14
    225c:	f04f 0200 	mov.w	r2, #0	; 0x0
    2260:	f000 f988 	bl	2574 <CalcChecksum>
    2264:	4603      	mov	r3, r0
    2266:	8023      	strh	r3, [r4, #0]
    2268:	4a54      	ldr	r2, [pc, #336]	(23bc <PrepareTCP_FRAME+0x20c>)
    226a:	f640 03c0 	movw	r3, #2240	; 0x8c0
    226e:	f2c1 0300 	movt	r3, #4096	; 0x1000
    2272:	881b      	ldrh	r3, [r3, #0]
    2274:	4610      	mov	r0, r2
    2276:	4619      	mov	r1, r3
    2278:	f000 fb0e 	bl	2898 <WriteWBE>
    227c:	4a50      	ldr	r2, [pc, #320]	(23c0 <PrepareTCP_FRAME+0x210>)
    227e:	f640 13d6 	movw	r3, #2518	; 0x9d6
    2282:	f2c1 0300 	movt	r3, #4096	; 0x1000
    2286:	881b      	ldrh	r3, [r3, #0]
    2288:	4610      	mov	r0, r2
    228a:	4619      	mov	r1, r3
    228c:	f000 fb04 	bl	2898 <WriteWBE>
    2290:	4a4c      	ldr	r2, [pc, #304]	(23c4 <PrepareTCP_FRAME+0x214>)
    2292:	f640 4368 	movw	r3, #3176	; 0xc68
    2296:	f2c1 0300 	movt	r3, #4096	; 0x1000
    229a:	681b      	ldr	r3, [r3, #0]
    229c:	4610      	mov	r0, r2
    229e:	4619      	mov	r1, r3
    22a0:	f000 fb14 	bl	28cc <WriteDWBE>
    22a4:	4a48      	ldr	r2, [pc, #288]	(23c8 <PrepareTCP_FRAME+0x218>)
    22a6:	f640 13dc 	movw	r3, #2524	; 0x9dc
    22aa:	f2c1 0300 	movt	r3, #4096	; 0x1000
    22ae:	681b      	ldr	r3, [r3, #0]
    22b0:	4610      	mov	r0, r2
    22b2:	4619      	mov	r1, r3
    22b4:	f000 fb0a 	bl	28cc <WriteDWBE>
    22b8:	4a44      	ldr	r2, [pc, #272]	(23cc <PrepareTCP_FRAME+0x21c>)
    22ba:	f04f 0301 	mov.w	r3, #1	; 0x1
    22be:	8013      	strh	r3, [r2, #0]
    22c0:	4a43      	ldr	r2, [pc, #268]	(23d0 <PrepareTCP_FRAME+0x220>)
    22c2:	f04f 0300 	mov.w	r3, #0	; 0x0
    22c6:	8013      	strh	r3, [r2, #0]
    22c8:	4a42      	ldr	r2, [pc, #264]	(23d4 <PrepareTCP_FRAME+0x224>)
    22ca:	f04f 0300 	mov.w	r3, #0	; 0x0
    22ce:	8013      	strh	r3, [r2, #0]
    22d0:	88fb      	ldrh	r3, [r7, #6]
    22d2:	f003 0302 	and.w	r3, r3, #2	; 0x2
    22d6:	2b00      	cmp	r3, #0
    22d8:	d029      	beq.n	232e <PrepareTCP_FRAME+0x17e>
    22da:	483f      	ldr	r0, [pc, #252]	(23d8 <PrepareTCP_FRAME+0x228>)
    22dc:	88fa      	ldrh	r2, [r7, #6]
    22de:	b293      	uxth	r3, r2
    22e0:	ea4f 2313 	mov.w	r3, r3, lsr #8
    22e4:	ea4f 2202 	mov.w	r2, r2, lsl #8
    22e8:	4619      	mov	r1, r3
    22ea:	4613      	mov	r3, r2
    22ec:	ea41 0303 	orr.w	r3, r1, r3
    22f0:	b29b      	uxth	r3, r3
    22f2:	f043 0360 	orr.w	r3, r3, #96	; 0x60
    22f6:	b29b      	uxth	r3, r3
    22f8:	8003      	strh	r3, [r0, #0]
    22fa:	4a38      	ldr	r2, [pc, #224]	(23dc <PrepareTCP_FRAME+0x22c>)
    22fc:	f240 4302 	movw	r3, #1026	; 0x402
    2300:	8013      	strh	r3, [r2, #0]
    2302:	4a37      	ldr	r2, [pc, #220]	(23e0 <PrepareTCP_FRAME+0x230>)
    2304:	f04f 0301 	mov.w	r3, #1	; 0x1
    2308:	8013      	strh	r3, [r2, #0]
    230a:	4c31      	ldr	r4, [pc, #196]	(23d0 <PrepareTCP_FRAME+0x220>)
    230c:	482b      	ldr	r0, [pc, #172]	(23bc <PrepareTCP_FRAME+0x20c>)
    230e:	f04f 0118 	mov.w	r1, #24	; 0x18
    2312:	f04f 0201 	mov.w	r2, #1	; 0x1
    2316:	f000 f92d 	bl	2574 <CalcChecksum>
    231a:	4603      	mov	r3, r0
    231c:	8023      	strh	r3, [r4, #0]
    231e:	f640 13d8 	movw	r3, #2520	; 0x9d8
    2322:	f2c1 0300 	movt	r3, #4096	; 0x1000
    2326:	f04f 023a 	mov.w	r2, #58	; 0x3a
    232a:	701a      	strb	r2, [r3, #0]
    232c:	e020      	b.n	2370 <PrepareTCP_FRAME+0x1c0>
    232e:	482a      	ldr	r0, [pc, #168]	(23d8 <PrepareTCP_FRAME+0x228>)
    2330:	88fa      	ldrh	r2, [r7, #6]
    2332:	b293      	uxth	r3, r2
    2334:	ea4f 2313 	mov.w	r3, r3, lsr #8
    2338:	ea4f 2202 	mov.w	r2, r2, lsl #8
    233c:	4619      	mov	r1, r3
    233e:	4613      	mov	r3, r2
    2340:	ea41 0303 	orr.w	r3, r1, r3
    2344:	b29b      	uxth	r3, r3
    2346:	f043 0350 	orr.w	r3, r3, #80	; 0x50
    234a:	b29b      	uxth	r3, r3
    234c:	8003      	strh	r3, [r0, #0]
    234e:	4c20      	ldr	r4, [pc, #128]	(23d0 <PrepareTCP_FRAME+0x220>)
    2350:	481a      	ldr	r0, [pc, #104]	(23bc <PrepareTCP_FRAME+0x20c>)
    2352:	f04f 0114 	mov.w	r1, #20	; 0x14
    2356:	f04f 0201 	mov.w	r2, #1	; 0x1
    235a:	f000 f90b 	bl	2574 <CalcChecksum>
    235e:	4603      	mov	r3, r0
    2360:	8023      	strh	r3, [r4, #0]
    2362:	f640 13d8 	movw	r3, #2520	; 0x9d8
    2366:	f2c1 0300 	movt	r3, #4096	; 0x1000
    236a:	f04f 0236 	mov.w	r2, #54	; 0x36
    236e:	701a      	strb	r2, [r3, #0]
    2370:	f640 13e0 	movw	r3, #2528	; 0x9e0
    2374:	f2c1 0300 	movt	r3, #4096	; 0x1000
    2378:	781b      	ldrb	r3, [r3, #0]
    237a:	f043 0302 	orr.w	r3, r3, #2	; 0x2
    237e:	b2da      	uxtb	r2, r3
    2380:	f640 13e0 	movw	r3, #2528	; 0x9e0
    2384:	f2c1 0300 	movt	r3, #4096	; 0x1000
    2388:	701a      	strb	r2, [r3, #0]
    238a:	f107 070c 	add.w	r7, r7, #12	; 0xc
    238e:	46bd      	mov	sp, r7
    2390:	bd90      	pop	{r4, r7, pc}
    2392:	bf00      	nop
    2394:	100009ec 	.word	0x100009ec
    2398:	100009f2 	.word	0x100009f2
    239c:	100009f4 	.word	0x100009f4
    23a0:	100009f6 	.word	0x100009f6
    23a4:	100009f8 	.word	0x100009f8
    23a8:	100009fa 	.word	0x100009fa
    23ac:	100009fc 	.word	0x100009fc
    23b0:	100009fe 	.word	0x100009fe
    23b4:	10000a00 	.word	0x10000a00
    23b8:	10000a04 	.word	0x10000a04
    23bc:	10000a08 	.word	0x10000a08
    23c0:	10000a0a 	.word	0x10000a0a
    23c4:	10000a0c 	.word	0x10000a0c
    23c8:	10000a10 	.word	0x10000a10
    23cc:	10000a16 	.word	0x10000a16
    23d0:	10000a18 	.word	0x10000a18
    23d4:	10000a1a 	.word	0x10000a1a
    23d8:	10000a14 	.word	0x10000a14
    23dc:	10000a1c 	.word	0x10000a1c
    23e0:	10000a1e 	.word	0x10000a1e

000023e4 <PrepareTCP_DATA_FRAME>:
    23e4:	b5b0      	push	{r4, r5, r7, lr}
    23e6:	af00      	add	r7, sp, #0
    23e8:	f640 2032 	movw	r0, #2610	; 0xa32
    23ec:	f2c1 0000 	movt	r0, #4096	; 0x1000
    23f0:	f640 01b2 	movw	r1, #2226	; 0x8b2
    23f4:	f2c1 0100 	movt	r1, #4096	; 0x1000
    23f8:	f04f 0206 	mov.w	r2, #6	; 0x6
    23fc:	f000 fe10 	bl	3020 <memcpy>
    2400:	484a      	ldr	r0, [pc, #296]	(252c <PrepareTCP_DATA_FRAME+0x148>)
    2402:	f648 3118 	movw	r1, #35608	; 0x8b18
    2406:	f2c0 0100 	movt	r1, #0	; 0x0
    240a:	f04f 0206 	mov.w	r2, #6	; 0x6
    240e:	f000 fe07 	bl	3020 <memcpy>
    2412:	4a47      	ldr	r2, [pc, #284]	(2530 <PrepareTCP_DATA_FRAME+0x14c>)
    2414:	f04f 0308 	mov.w	r3, #8	; 0x8
    2418:	8013      	strh	r3, [r2, #0]
    241a:	4a46      	ldr	r2, [pc, #280]	(2534 <PrepareTCP_DATA_FRAME+0x150>)
    241c:	f241 0345 	movw	r3, #4165	; 0x1045
    2420:	8013      	strh	r3, [r2, #0]
    2422:	4a45      	ldr	r2, [pc, #276]	(2538 <PrepareTCP_DATA_FRAME+0x154>)
    2424:	f640 03ac 	movw	r3, #2220	; 0x8ac
    2428:	f2c1 0300 	movt	r3, #4096	; 0x1000
    242c:	881b      	ldrh	r3, [r3, #0]
    242e:	f103 0328 	add.w	r3, r3, #40	; 0x28
    2432:	b29b      	uxth	r3, r3
    2434:	4610      	mov	r0, r2
    2436:	4619      	mov	r1, r3
    2438:	f000 fa2e 	bl	2898 <WriteWBE>
    243c:	4a3f      	ldr	r2, [pc, #252]	(253c <PrepareTCP_DATA_FRAME+0x158>)
    243e:	f04f 0300 	mov.w	r3, #0	; 0x0
    2442:	8013      	strh	r3, [r2, #0]
    2444:	4a3e      	ldr	r2, [pc, #248]	(2540 <PrepareTCP_DATA_FRAME+0x15c>)
    2446:	f04f 0300 	mov.w	r3, #0	; 0x0
    244a:	8013      	strh	r3, [r2, #0]
    244c:	4a3d      	ldr	r2, [pc, #244]	(2544 <PrepareTCP_DATA_FRAME+0x160>)
    244e:	f44f 63c8 	mov.w	r3, #1600	; 0x640
    2452:	8013      	strh	r3, [r2, #0]
    2454:	4a3c      	ldr	r2, [pc, #240]	(2548 <PrepareTCP_DATA_FRAME+0x164>)
    2456:	f04f 0300 	mov.w	r3, #0	; 0x0
    245a:	8013      	strh	r3, [r2, #0]
    245c:	483b      	ldr	r0, [pc, #236]	(254c <PrepareTCP_DATA_FRAME+0x168>)
    245e:	f248 5126 	movw	r1, #34086	; 0x8526
    2462:	f2c0 0100 	movt	r1, #0	; 0x0
    2466:	f04f 0204 	mov.w	r2, #4	; 0x4
    246a:	f000 fdd9 	bl	3020 <memcpy>
    246e:	4838      	ldr	r0, [pc, #224]	(2550 <PrepareTCP_DATA_FRAME+0x16c>)
    2470:	f640 11d0 	movw	r1, #2512	; 0x9d0
    2474:	f2c1 0100 	movt	r1, #4096	; 0x1000
    2478:	f04f 0204 	mov.w	r2, #4	; 0x4
    247c:	f000 fdd0 	bl	3020 <memcpy>
    2480:	4c31      	ldr	r4, [pc, #196]	(2548 <PrepareTCP_DATA_FRAME+0x164>)
    2482:	482c      	ldr	r0, [pc, #176]	(2534 <PrepareTCP_DATA_FRAME+0x150>)
    2484:	f04f 0114 	mov.w	r1, #20	; 0x14
    2488:	f04f 0200 	mov.w	r2, #0	; 0x0
    248c:	f000 f872 	bl	2574 <CalcChecksum>
    2490:	4603      	mov	r3, r0
    2492:	8023      	strh	r3, [r4, #0]
    2494:	4a2f      	ldr	r2, [pc, #188]	(2554 <PrepareTCP_DATA_FRAME+0x170>)
    2496:	f640 03c0 	movw	r3, #2240	; 0x8c0
    249a:	f2c1 0300 	movt	r3, #4096	; 0x1000
    249e:	881b      	ldrh	r3, [r3, #0]
    24a0:	4610      	mov	r0, r2
    24a2:	4619      	mov	r1, r3
    24a4:	f000 f9f8 	bl	2898 <WriteWBE>
    24a8:	4a2b      	ldr	r2, [pc, #172]	(2558 <PrepareTCP_DATA_FRAME+0x174>)
    24aa:	f640 13d6 	movw	r3, #2518	; 0x9d6
    24ae:	f2c1 0300 	movt	r3, #4096	; 0x1000
    24b2:	881b      	ldrh	r3, [r3, #0]
    24b4:	4610      	mov	r0, r2
    24b6:	4619      	mov	r1, r3
    24b8:	f000 f9ee 	bl	2898 <WriteWBE>
    24bc:	4a27      	ldr	r2, [pc, #156]	(255c <PrepareTCP_DATA_FRAME+0x178>)
    24be:	f640 4368 	movw	r3, #3176	; 0xc68
    24c2:	f2c1 0300 	movt	r3, #4096	; 0x1000
    24c6:	681b      	ldr	r3, [r3, #0]
    24c8:	4610      	mov	r0, r2
    24ca:	4619      	mov	r1, r3
    24cc:	f000 f9fe 	bl	28cc <WriteDWBE>
    24d0:	4a23      	ldr	r2, [pc, #140]	(2560 <PrepareTCP_DATA_FRAME+0x17c>)
    24d2:	f640 13dc 	movw	r3, #2524	; 0x9dc
    24d6:	f2c1 0300 	movt	r3, #4096	; 0x1000
    24da:	681b      	ldr	r3, [r3, #0]
    24dc:	4610      	mov	r0, r2
    24de:	4619      	mov	r1, r3
    24e0:	f000 f9f4 	bl	28cc <WriteDWBE>
    24e4:	4a1f      	ldr	r2, [pc, #124]	(2564 <PrepareTCP_DATA_FRAME+0x180>)
    24e6:	f241 0350 	movw	r3, #4176	; 0x1050
    24ea:	8013      	strh	r3, [r2, #0]
    24ec:	4a1e      	ldr	r2, [pc, #120]	(2568 <PrepareTCP_DATA_FRAME+0x184>)
    24ee:	f04f 0301 	mov.w	r3, #1	; 0x1
    24f2:	8013      	strh	r3, [r2, #0]
    24f4:	4a1d      	ldr	r2, [pc, #116]	(256c <PrepareTCP_DATA_FRAME+0x188>)
    24f6:	f04f 0300 	mov.w	r3, #0	; 0x0
    24fa:	8013      	strh	r3, [r2, #0]
    24fc:	4a1c      	ldr	r2, [pc, #112]	(2570 <PrepareTCP_DATA_FRAME+0x18c>)
    24fe:	f04f 0300 	mov.w	r3, #0	; 0x0
    2502:	8013      	strh	r3, [r2, #0]
    2504:	4c19      	ldr	r4, [pc, #100]	(256c <PrepareTCP_DATA_FRAME+0x188>)
    2506:	f640 03ac 	movw	r3, #2220	; 0x8ac
    250a:	f2c1 0300 	movt	r3, #4096	; 0x1000
    250e:	881b      	ldrh	r3, [r3, #0]
    2510:	f103 0314 	add.w	r3, r3, #20	; 0x14
    2514:	b29b      	uxth	r3, r3
    2516:	480f      	ldr	r0, [pc, #60]	(2554 <PrepareTCP_DATA_FRAME+0x170>)
    2518:	4619      	mov	r1, r3
    251a:	f04f 0201 	mov.w	r2, #1	; 0x1
    251e:	f000 f829 	bl	2574 <CalcChecksum>
    2522:	4603      	mov	r3, r0
    2524:	8023      	strh	r3, [r4, #0]
    2526:	46bd      	mov	sp, r7
    2528:	bdb0      	pop	{r4, r5, r7, pc}
    252a:	bf00      	nop
    252c:	10000a38 	.word	0x10000a38
    2530:	10000a3e 	.word	0x10000a3e
    2534:	10000a40 	.word	0x10000a40
    2538:	10000a42 	.word	0x10000a42
    253c:	10000a44 	.word	0x10000a44
    2540:	10000a46 	.word	0x10000a46
    2544:	10000a48 	.word	0x10000a48
    2548:	10000a4a 	.word	0x10000a4a
    254c:	10000a4c 	.word	0x10000a4c
    2550:	10000a50 	.word	0x10000a50
    2554:	10000a54 	.word	0x10000a54
    2558:	10000a56 	.word	0x10000a56
    255c:	10000a58 	.word	0x10000a58
    2560:	10000a5c 	.word	0x10000a5c
    2564:	10000a60 	.word	0x10000a60
    2568:	10000a62 	.word	0x10000a62
    256c:	10000a64 	.word	0x10000a64
    2570:	10000a66 	.word	0x10000a66

00002574 <CalcChecksum>:
    2574:	b580      	push	{r7, lr}
    2576:	b084      	sub	sp, #16
    2578:	af00      	add	r7, sp, #0
    257a:	6078      	str	r0, [r7, #4]
    257c:	460b      	mov	r3, r1
    257e:	807b      	strh	r3, [r7, #2]
    2580:	4613      	mov	r3, r2
    2582:	707b      	strb	r3, [r7, #1]
    2584:	f04f 0300 	mov.w	r3, #0	; 0x0
    2588:	60bb      	str	r3, [r7, #8]
    258a:	787b      	ldrb	r3, [r7, #1]
    258c:	2b00      	cmp	r3, #0
    258e:	d030      	beq.n	25f2 <CalcChecksum+0x7e>
    2590:	f248 5326 	movw	r3, #34086	; 0x8526
    2594:	f2c0 0300 	movt	r3, #0	; 0x0
    2598:	881b      	ldrh	r3, [r3, #0]
    259a:	461a      	mov	r2, r3
    259c:	68bb      	ldr	r3, [r7, #8]
    259e:	4413      	add	r3, r2
    25a0:	60bb      	str	r3, [r7, #8]
    25a2:	f248 5326 	movw	r3, #34086	; 0x8526
    25a6:	f2c0 0300 	movt	r3, #0	; 0x0
    25aa:	885b      	ldrh	r3, [r3, #2]
    25ac:	461a      	mov	r2, r3
    25ae:	68bb      	ldr	r3, [r7, #8]
    25b0:	4413      	add	r3, r2
    25b2:	60bb      	str	r3, [r7, #8]
    25b4:	f640 13d0 	movw	r3, #2512	; 0x9d0
    25b8:	f2c1 0300 	movt	r3, #4096	; 0x1000
    25bc:	881b      	ldrh	r3, [r3, #0]
    25be:	461a      	mov	r2, r3
    25c0:	68bb      	ldr	r3, [r7, #8]
    25c2:	4413      	add	r3, r2
    25c4:	60bb      	str	r3, [r7, #8]
    25c6:	f640 13d0 	movw	r3, #2512	; 0x9d0
    25ca:	f2c1 0300 	movt	r3, #4096	; 0x1000
    25ce:	885b      	ldrh	r3, [r3, #2]
    25d0:	461a      	mov	r2, r3
    25d2:	68bb      	ldr	r3, [r7, #8]
    25d4:	4413      	add	r3, r2
    25d6:	60bb      	str	r3, [r7, #8]
    25d8:	887b      	ldrh	r3, [r7, #2]
    25da:	4618      	mov	r0, r3
    25dc:	f000 f9a2 	bl	2924 <SwapBytes>
    25e0:	4603      	mov	r3, r0
    25e2:	461a      	mov	r2, r3
    25e4:	68bb      	ldr	r3, [r7, #8]
    25e6:	4413      	add	r3, r2
    25e8:	60bb      	str	r3, [r7, #8]
    25ea:	68bb      	ldr	r3, [r7, #8]
    25ec:	f503 63c0 	add.w	r3, r3, #1536	; 0x600
    25f0:	60bb      	str	r3, [r7, #8]
    25f2:	687b      	ldr	r3, [r7, #4]
    25f4:	60fb      	str	r3, [r7, #12]
    25f6:	e00d      	b.n	2614 <CalcChecksum+0xa0>
    25f8:	68fb      	ldr	r3, [r7, #12]
    25fa:	881b      	ldrh	r3, [r3, #0]
    25fc:	461a      	mov	r2, r3
    25fe:	68bb      	ldr	r3, [r7, #8]
    2600:	4413      	add	r3, r2
    2602:	60bb      	str	r3, [r7, #8]
    2604:	68fb      	ldr	r3, [r7, #12]
    2606:	f103 0302 	add.w	r3, r3, #2	; 0x2
    260a:	60fb      	str	r3, [r7, #12]
    260c:	887b      	ldrh	r3, [r7, #2]
    260e:	f1a3 0302 	sub.w	r3, r3, #2	; 0x2
    2612:	807b      	strh	r3, [r7, #2]
    2614:	887b      	ldrh	r3, [r7, #2]
    2616:	2b01      	cmp	r3, #1
    2618:	d8ee      	bhi.n	25f8 <CalcChecksum+0x84>
    261a:	887b      	ldrh	r3, [r7, #2]
    261c:	2b00      	cmp	r3, #0
    261e:	d010      	beq.n	2642 <CalcChecksum+0xce>
    2620:	68fb      	ldr	r3, [r7, #12]
    2622:	781b      	ldrb	r3, [r3, #0]
    2624:	461a      	mov	r2, r3
    2626:	68bb      	ldr	r3, [r7, #8]
    2628:	4413      	add	r3, r2
    262a:	60bb      	str	r3, [r7, #8]
    262c:	e009      	b.n	2642 <CalcChecksum+0xce>
    262e:	68bb      	ldr	r3, [r7, #8]
    2630:	ea4f 4303 	mov.w	r3, r3, lsl #16
    2634:	ea4f 4313 	mov.w	r3, r3, lsr #16
    2638:	68ba      	ldr	r2, [r7, #8]
    263a:	ea4f 4212 	mov.w	r2, r2, lsr #16
    263e:	4413      	add	r3, r2
    2640:	60bb      	str	r3, [r7, #8]
    2642:	68bb      	ldr	r3, [r7, #8]
    2644:	ea4f 4313 	mov.w	r3, r3, lsr #16
    2648:	2b00      	cmp	r3, #0
    264a:	d1f0      	bne.n	262e <CalcChecksum+0xba>
    264c:	68bb      	ldr	r3, [r7, #8]
    264e:	b29b      	uxth	r3, r3
    2650:	ea6f 0303 	mvn.w	r3, r3
    2654:	b29b      	uxth	r3, r3
    2656:	4618      	mov	r0, r3
    2658:	f107 0710 	add.w	r7, r7, #16	; 0x10
    265c:	46bd      	mov	sp, r7
    265e:	bd80      	pop	{r7, pc}

00002660 <TCPStartRetryTimer>:
    2660:	b480      	push	{r7}
    2662:	af00      	add	r7, sp, #0
    2664:	f640 03a0 	movw	r3, #2208	; 0x8a0
    2668:	f2c1 0300 	movt	r3, #4096	; 0x1000
    266c:	f04f 0200 	mov.w	r2, #0	; 0x0
    2670:	701a      	strb	r2, [r3, #0]
    2672:	f640 436c 	movw	r3, #3180	; 0xc6c
    2676:	f2c1 0300 	movt	r3, #4096	; 0x1000
    267a:	f04f 0204 	mov.w	r2, #4	; 0x4
    267e:	701a      	strb	r2, [r3, #0]
    2680:	f640 13c2 	movw	r3, #2498	; 0x9c2
    2684:	f2c1 0300 	movt	r3, #4096	; 0x1000
    2688:	781b      	ldrb	r3, [r3, #0]
    268a:	f043 0304 	orr.w	r3, r3, #4	; 0x4
    268e:	b2da      	uxtb	r2, r3
    2690:	f640 13c2 	movw	r3, #2498	; 0x9c2
    2694:	f2c1 0300 	movt	r3, #4096	; 0x1000
    2698:	701a      	strb	r2, [r3, #0]
    269a:	f640 13c2 	movw	r3, #2498	; 0x9c2
    269e:	f2c1 0300 	movt	r3, #4096	; 0x1000
    26a2:	781b      	ldrb	r3, [r3, #0]
    26a4:	f043 0308 	orr.w	r3, r3, #8	; 0x8
    26a8:	b2da      	uxtb	r2, r3
    26aa:	f640 13c2 	movw	r3, #2498	; 0x9c2
    26ae:	f2c1 0300 	movt	r3, #4096	; 0x1000
    26b2:	701a      	strb	r2, [r3, #0]
    26b4:	46bd      	mov	sp, r7
    26b6:	bc80      	pop	{r7}
    26b8:	4770      	bx	lr
    26ba:	bf00      	nop

000026bc <TCPStartTimeWaitTimer>:
    26bc:	b480      	push	{r7}
    26be:	af00      	add	r7, sp, #0
    26c0:	f640 03a0 	movw	r3, #2208	; 0x8a0
    26c4:	f2c1 0300 	movt	r3, #4096	; 0x1000
    26c8:	f04f 0200 	mov.w	r2, #0	; 0x0
    26cc:	701a      	strb	r2, [r3, #0]
    26ce:	f640 13c2 	movw	r3, #2498	; 0x9c2
    26d2:	f2c1 0300 	movt	r3, #4096	; 0x1000
    26d6:	781b      	ldrb	r3, [r3, #0]
    26d8:	f043 0304 	orr.w	r3, r3, #4	; 0x4
    26dc:	b2da      	uxtb	r2, r3
    26de:	f640 13c2 	movw	r3, #2498	; 0x9c2
    26e2:	f2c1 0300 	movt	r3, #4096	; 0x1000
    26e6:	701a      	strb	r2, [r3, #0]
    26e8:	f640 13c2 	movw	r3, #2498	; 0x9c2
    26ec:	f2c1 0300 	movt	r3, #4096	; 0x1000
    26f0:	781b      	ldrb	r3, [r3, #0]
    26f2:	461a      	mov	r2, r3
    26f4:	f002 02f7 	and.w	r2, r2, #247	; 0xf7
    26f8:	f640 13c2 	movw	r3, #2498	; 0x9c2
    26fc:	f2c1 0300 	movt	r3, #4096	; 0x1000
    2700:	701a      	strb	r2, [r3, #0]
    2702:	46bd      	mov	sp, r7
    2704:	bc80      	pop	{r7}
    2706:	4770      	bx	lr

00002708 <TCPRestartTimer>:
    2708:	b480      	push	{r7}
    270a:	af00      	add	r7, sp, #0
    270c:	f640 03a0 	movw	r3, #2208	; 0x8a0
    2710:	f2c1 0300 	movt	r3, #4096	; 0x1000
    2714:	f04f 0200 	mov.w	r2, #0	; 0x0
    2718:	701a      	strb	r2, [r3, #0]
    271a:	46bd      	mov	sp, r7
    271c:	bc80      	pop	{r7}
    271e:	4770      	bx	lr

00002720 <TCPStopTimer>:
    2720:	b480      	push	{r7}
    2722:	af00      	add	r7, sp, #0
    2724:	f640 13c2 	movw	r3, #2498	; 0x9c2
    2728:	f2c1 0300 	movt	r3, #4096	; 0x1000
    272c:	781b      	ldrb	r3, [r3, #0]
    272e:	461a      	mov	r2, r3
    2730:	f002 02fb 	and.w	r2, r2, #251	; 0xfb
    2734:	f640 13c2 	movw	r3, #2498	; 0x9c2
    2738:	f2c1 0300 	movt	r3, #4096	; 0x1000
    273c:	701a      	strb	r2, [r3, #0]
    273e:	46bd      	mov	sp, r7
    2740:	bc80      	pop	{r7}
    2742:	4770      	bx	lr

00002744 <TCPHandleRetransmission>:
    2744:	b580      	push	{r7, lr}
    2746:	af00      	add	r7, sp, #0
    2748:	f640 13d4 	movw	r3, #2516	; 0x9d4
    274c:	f2c1 0300 	movt	r3, #4096	; 0x1000
    2750:	781b      	ldrb	r3, [r3, #0]
    2752:	2b04      	cmp	r3, #4
    2754:	d82b      	bhi.n	27ae <TCPHandleRetransmission+0x6a>
    2756:	a201      	add	r2, pc, #4	(adr r2, 275c <TCPHandleRetransmission+0x18>)
    2758:	f852 f023 	ldr.w	pc, [r2, r3, lsl #2]
    275c:	00002771 	.word	0x00002771
    2760:	00002777 	.word	0x00002777
    2764:	00002781 	.word	0x00002781
    2768:	0000278b 	.word	0x0000278b
    276c:	00002795 	.word	0x00002795
    2770:	f7ff fb3e 	bl	1df0 <PrepareARP_REQUEST>
    2774:	e01b      	b.n	27ae <TCPHandleRetransmission+0x6a>
    2776:	f04f 0002 	mov.w	r0, #2	; 0x2
    277a:	f7ff fd19 	bl	21b0 <PrepareTCP_FRAME>
    277e:	e016      	b.n	27ae <TCPHandleRetransmission+0x6a>
    2780:	f04f 0012 	mov.w	r0, #18	; 0x12
    2784:	f7ff fd14 	bl	21b0 <PrepareTCP_FRAME>
    2788:	e011      	b.n	27ae <TCPHandleRetransmission+0x6a>
    278a:	f04f 0011 	mov.w	r0, #17	; 0x11
    278e:	f7ff fd0f 	bl	21b0 <PrepareTCP_FRAME>
    2792:	e00c      	b.n	27ae <TCPHandleRetransmission+0x6a>
    2794:	f640 13e0 	movw	r3, #2528	; 0x9e0
    2798:	f2c1 0300 	movt	r3, #4096	; 0x1000
    279c:	781b      	ldrb	r3, [r3, #0]
    279e:	f043 0301 	orr.w	r3, r3, #1	; 0x1
    27a2:	b2da      	uxtb	r2, r3
    27a4:	f640 13e0 	movw	r3, #2528	; 0x9e0
    27a8:	f2c1 0300 	movt	r3, #4096	; 0x1000
    27ac:	701a      	strb	r2, [r3, #0]
    27ae:	46bd      	mov	sp, r7
    27b0:	bd80      	pop	{r7, pc}
    27b2:	bf00      	nop

000027b4 <TCPHandleTimeout>:
    27b4:	b480      	push	{r7}
    27b6:	af00      	add	r7, sp, #0
    27b8:	f640 03b8 	movw	r3, #2232	; 0x8b8
    27bc:	f2c1 0300 	movt	r3, #4096	; 0x1000
    27c0:	f04f 0200 	mov.w	r2, #0	; 0x0
    27c4:	701a      	strb	r2, [r3, #0]
    27c6:	f640 13c2 	movw	r3, #2498	; 0x9c2
    27ca:	f2c1 0300 	movt	r3, #4096	; 0x1000
    27ce:	781b      	ldrb	r3, [r3, #0]
    27d0:	f003 0303 	and.w	r3, r3, #3	; 0x3
    27d4:	2b01      	cmp	r3, #1
    27d6:	d107      	bne.n	27e8 <TCPHandleTimeout+0x34>
    27d8:	f640 436d 	movw	r3, #3181	; 0xc6d
    27dc:	f2c1 0300 	movt	r3, #4096	; 0x1000
    27e0:	f04f 0210 	mov.w	r2, #16	; 0x10
    27e4:	701a      	strb	r2, [r3, #0]
    27e6:	e006      	b.n	27f6 <TCPHandleTimeout+0x42>
    27e8:	f640 436d 	movw	r3, #3181	; 0xc6d
    27ec:	f2c1 0300 	movt	r3, #4096	; 0x1000
    27f0:	f04f 0220 	mov.w	r2, #32	; 0x20
    27f4:	701a      	strb	r2, [r3, #0]
    27f6:	f640 13c2 	movw	r3, #2498	; 0x9c2
    27fa:	f2c1 0300 	movt	r3, #4096	; 0x1000
    27fe:	f04f 0200 	mov.w	r2, #0	; 0x0
    2802:	701a      	strb	r2, [r3, #0]
    2804:	46bd      	mov	sp, r7
    2806:	bc80      	pop	{r7}
    2808:	4770      	bx	lr
    280a:	bf00      	nop

0000280c <TIMER0_IRQHandler>:
    280c:	b480      	push	{r7}
    280e:	af00      	add	r7, sp, #0
    2810:	f640 13e4 	movw	r3, #2532	; 0x9e4
    2814:	f2c1 0300 	movt	r3, #4096	; 0x1000
    2818:	881b      	ldrh	r3, [r3, #0]
    281a:	f103 0301 	add.w	r3, r3, #1	; 0x1
    281e:	b29a      	uxth	r2, r3
    2820:	f640 13e4 	movw	r3, #2532	; 0x9e4
    2824:	f2c1 0300 	movt	r3, #4096	; 0x1000
    2828:	801a      	strh	r2, [r3, #0]
    282a:	f640 03a0 	movw	r3, #2208	; 0x8a0
    282e:	f2c1 0300 	movt	r3, #4096	; 0x1000
    2832:	781b      	ldrb	r3, [r3, #0]
    2834:	f103 0301 	add.w	r3, r3, #1	; 0x1
    2838:	b2da      	uxtb	r2, r3
    283a:	f640 03a0 	movw	r3, #2208	; 0x8a0
    283e:	f2c1 0300 	movt	r3, #4096	; 0x1000
    2842:	701a      	strb	r2, [r3, #0]
    2844:	f244 0300 	movw	r3, #16384	; 0x4000
    2848:	f2c4 0300 	movt	r3, #16384	; 0x4000
    284c:	f04f 0201 	mov.w	r2, #1	; 0x1
    2850:	601a      	str	r2, [r3, #0]
    2852:	46bd      	mov	sp, r7
    2854:	bc80      	pop	{r7}
    2856:	4770      	bx	lr

00002858 <SendFrame1>:
    2858:	b580      	push	{r7, lr}
    285a:	af00      	add	r7, sp, #0
    285c:	f640 13e2 	movw	r3, #2530	; 0x9e2
    2860:	f2c1 0300 	movt	r3, #4096	; 0x1000
    2864:	881b      	ldrh	r3, [r3, #0]
    2866:	f640 2032 	movw	r0, #2610	; 0xa32
    286a:	f2c1 0000 	movt	r0, #4096	; 0x1000
    286e:	4619      	mov	r1, r3
    2870:	f7fe f824 	bl	8bc <CopyToFrame_EMAC>
    2874:	46bd      	mov	sp, r7
    2876:	bd80      	pop	{r7, pc}

00002878 <SendFrame2>:
    2878:	b580      	push	{r7, lr}
    287a:	af00      	add	r7, sp, #0
    287c:	f640 13d8 	movw	r3, #2520	; 0x9d8
    2880:	f2c1 0300 	movt	r3, #4096	; 0x1000
    2884:	781b      	ldrb	r3, [r3, #0]
    2886:	f640 10e6 	movw	r0, #2534	; 0x9e6
    288a:	f2c1 0000 	movt	r0, #4096	; 0x1000
    288e:	4619      	mov	r1, r3
    2890:	f7fe f814 	bl	8bc <CopyToFrame_EMAC>
    2894:	46bd      	mov	sp, r7
    2896:	bd80      	pop	{r7, pc}

00002898 <WriteWBE>:
    2898:	b480      	push	{r7}
    289a:	b083      	sub	sp, #12
    289c:	af00      	add	r7, sp, #0
    289e:	6078      	str	r0, [r7, #4]
    28a0:	460b      	mov	r3, r1
    28a2:	807b      	strh	r3, [r7, #2]
    28a4:	887b      	ldrh	r3, [r7, #2]
    28a6:	ea4f 2313 	mov.w	r3, r3, lsr #8
    28aa:	b29b      	uxth	r3, r3
    28ac:	b2db      	uxtb	r3, r3
    28ae:	687a      	ldr	r2, [r7, #4]
    28b0:	7013      	strb	r3, [r2, #0]
    28b2:	687b      	ldr	r3, [r7, #4]
    28b4:	f103 0301 	add.w	r3, r3, #1	; 0x1
    28b8:	607b      	str	r3, [r7, #4]
    28ba:	887b      	ldrh	r3, [r7, #2]
    28bc:	b2db      	uxtb	r3, r3
    28be:	687a      	ldr	r2, [r7, #4]
    28c0:	7013      	strb	r3, [r2, #0]
    28c2:	f107 070c 	add.w	r7, r7, #12	; 0xc
    28c6:	46bd      	mov	sp, r7
    28c8:	bc80      	pop	{r7}
    28ca:	4770      	bx	lr

000028cc <WriteDWBE>:
    28cc:	b480      	push	{r7}
    28ce:	b083      	sub	sp, #12
    28d0:	af00      	add	r7, sp, #0
    28d2:	6078      	str	r0, [r7, #4]
    28d4:	6039      	str	r1, [r7, #0]
    28d6:	683b      	ldr	r3, [r7, #0]
    28d8:	ea4f 6313 	mov.w	r3, r3, lsr #24
    28dc:	b2db      	uxtb	r3, r3
    28de:	687a      	ldr	r2, [r7, #4]
    28e0:	7013      	strb	r3, [r2, #0]
    28e2:	687b      	ldr	r3, [r7, #4]
    28e4:	f103 0301 	add.w	r3, r3, #1	; 0x1
    28e8:	607b      	str	r3, [r7, #4]
    28ea:	683b      	ldr	r3, [r7, #0]
    28ec:	ea4f 4313 	mov.w	r3, r3, lsr #16
    28f0:	b2db      	uxtb	r3, r3
    28f2:	687a      	ldr	r2, [r7, #4]
    28f4:	7013      	strb	r3, [r2, #0]
    28f6:	687b      	ldr	r3, [r7, #4]
    28f8:	f103 0301 	add.w	r3, r3, #1	; 0x1
    28fc:	607b      	str	r3, [r7, #4]
    28fe:	683b      	ldr	r3, [r7, #0]
    2900:	ea4f 2313 	mov.w	r3, r3, lsr #8
    2904:	b2db      	uxtb	r3, r3
    2906:	687a      	ldr	r2, [r7, #4]
    2908:	7013      	strb	r3, [r2, #0]
    290a:	687b      	ldr	r3, [r7, #4]
    290c:	f103 0301 	add.w	r3, r3, #1	; 0x1
    2910:	607b      	str	r3, [r7, #4]
    2912:	683b      	ldr	r3, [r7, #0]
    2914:	b2db      	uxtb	r3, r3
    2916:	687a      	ldr	r2, [r7, #4]
    2918:	7013      	strb	r3, [r2, #0]
    291a:	f107 070c 	add.w	r7, r7, #12	; 0xc
    291e:	46bd      	mov	sp, r7
    2920:	bc80      	pop	{r7}
    2922:	4770      	bx	lr

00002924 <SwapBytes>:
    2924:	b480      	push	{r7}
    2926:	b083      	sub	sp, #12
    2928:	af00      	add	r7, sp, #0
    292a:	4603      	mov	r3, r0
    292c:	80fb      	strh	r3, [r7, #6]
    292e:	88fb      	ldrh	r3, [r7, #6]
    2930:	ea4f 2313 	mov.w	r3, r3, lsr #8
    2934:	b29b      	uxth	r3, r3
    2936:	461a      	mov	r2, r3
    2938:	88fb      	ldrh	r3, [r7, #6]
    293a:	ea4f 2303 	mov.w	r3, r3, lsl #8
    293e:	b29b      	uxth	r3, r3
    2940:	ea42 0303 	orr.w	r3, r2, r3
    2944:	b29b      	uxth	r3, r3
    2946:	b29b      	uxth	r3, r3
    2948:	4618      	mov	r0, r3
    294a:	f107 070c 	add.w	r7, r7, #12	; 0xc
    294e:	46bd      	mov	sp, r7
    2950:	bc80      	pop	{r7}
    2952:	4770      	bx	lr

00002954 <__get_PSP>:
    2954:	f04f 0300 	mov.w	r3, #0	; 0x0
    2958:	f3ef 8309 	mrs	r3, PSP
    295c:	4618      	mov	r0, r3
    295e:	4770      	bx	lr
    2960:	4618      	mov	r0, r3
    2962:	bf00      	nop

00002964 <__set_PSP>:
    2964:	4603      	mov	r3, r0
    2966:	f383 8809 	msr	PSP, r3
    296a:	4770      	bx	lr

0000296c <__get_MSP>:
    296c:	f04f 0300 	mov.w	r3, #0	; 0x0
    2970:	f3ef 8308 	mrs	r3, MSP
    2974:	4618      	mov	r0, r3
    2976:	4770      	bx	lr
    2978:	4618      	mov	r0, r3
    297a:	bf00      	nop

0000297c <__set_MSP>:
    297c:	4603      	mov	r3, r0
    297e:	f383 8808 	msr	MSP, r3
    2982:	4770      	bx	lr

00002984 <__get_BASEPRI>:
    2984:	b480      	push	{r7}
    2986:	b083      	sub	sp, #12
    2988:	af00      	add	r7, sp, #0
    298a:	f04f 0300 	mov.w	r3, #0	; 0x0
    298e:	607b      	str	r3, [r7, #4]
    2990:	f3ef 8312 	mrs	r3, BASEPRI_MASK
    2994:	607b      	str	r3, [r7, #4]
    2996:	687b      	ldr	r3, [r7, #4]
    2998:	4618      	mov	r0, r3
    299a:	f107 070c 	add.w	r7, r7, #12	; 0xc
    299e:	46bd      	mov	sp, r7
    29a0:	bc80      	pop	{r7}
    29a2:	4770      	bx	lr

000029a4 <__set_BASEPRI>:
    29a4:	b480      	push	{r7}
    29a6:	b083      	sub	sp, #12
    29a8:	af00      	add	r7, sp, #0
    29aa:	6078      	str	r0, [r7, #4]
    29ac:	687b      	ldr	r3, [r7, #4]
    29ae:	f383 8811 	msr	BASEPRI, r3
    29b2:	f107 070c 	add.w	r7, r7, #12	; 0xc
    29b6:	46bd      	mov	sp, r7
    29b8:	bc80      	pop	{r7}
    29ba:	4770      	bx	lr

000029bc <__get_PRIMASK>:
    29bc:	b480      	push	{r7}
    29be:	b083      	sub	sp, #12
    29c0:	af00      	add	r7, sp, #0
    29c2:	f04f 0300 	mov.w	r3, #0	; 0x0
    29c6:	607b      	str	r3, [r7, #4]
    29c8:	f3ef 8310 	mrs	r3, PRIMASK
    29cc:	607b      	str	r3, [r7, #4]
    29ce:	687b      	ldr	r3, [r7, #4]
    29d0:	4618      	mov	r0, r3
    29d2:	f107 070c 	add.w	r7, r7, #12	; 0xc
    29d6:	46bd      	mov	sp, r7
    29d8:	bc80      	pop	{r7}
    29da:	4770      	bx	lr

000029dc <__set_PRIMASK>:
    29dc:	b480      	push	{r7}
    29de:	b083      	sub	sp, #12
    29e0:	af00      	add	r7, sp, #0
    29e2:	6078      	str	r0, [r7, #4]
    29e4:	687b      	ldr	r3, [r7, #4]
    29e6:	f383 8810 	msr	PRIMASK, r3
    29ea:	f107 070c 	add.w	r7, r7, #12	; 0xc
    29ee:	46bd      	mov	sp, r7
    29f0:	bc80      	pop	{r7}
    29f2:	4770      	bx	lr

000029f4 <__get_FAULTMASK>:
    29f4:	b480      	push	{r7}
    29f6:	b083      	sub	sp, #12
    29f8:	af00      	add	r7, sp, #0
    29fa:	f04f 0300 	mov.w	r3, #0	; 0x0
    29fe:	607b      	str	r3, [r7, #4]
    2a00:	f3ef 8313 	mrs	r3, FAULTMASK
    2a04:	607b      	str	r3, [r7, #4]
    2a06:	687b      	ldr	r3, [r7, #4]
    2a08:	4618      	mov	r0, r3
    2a0a:	f107 070c 	add.w	r7, r7, #12	; 0xc
    2a0e:	46bd      	mov	sp, r7
    2a10:	bc80      	pop	{r7}
    2a12:	4770      	bx	lr

00002a14 <__set_FAULTMASK>:
    2a14:	b480      	push	{r7}
    2a16:	b083      	sub	sp, #12
    2a18:	af00      	add	r7, sp, #0
    2a1a:	6078      	str	r0, [r7, #4]
    2a1c:	687b      	ldr	r3, [r7, #4]
    2a1e:	f383 8813 	msr	FAULTMASK, r3
    2a22:	f107 070c 	add.w	r7, r7, #12	; 0xc
    2a26:	46bd      	mov	sp, r7
    2a28:	bc80      	pop	{r7}
    2a2a:	4770      	bx	lr

00002a2c <__REV>:
    2a2c:	b480      	push	{r7}
    2a2e:	b085      	sub	sp, #20
    2a30:	af00      	add	r7, sp, #0
    2a32:	6078      	str	r0, [r7, #4]
    2a34:	f04f 0300 	mov.w	r3, #0	; 0x0
    2a38:	60fb      	str	r3, [r7, #12]
    2a3a:	687b      	ldr	r3, [r7, #4]
    2a3c:	ba1b      	rev	r3, r3
    2a3e:	60fb      	str	r3, [r7, #12]
    2a40:	68fb      	ldr	r3, [r7, #12]
    2a42:	4618      	mov	r0, r3
    2a44:	f107 0714 	add.w	r7, r7, #20	; 0x14
    2a48:	46bd      	mov	sp, r7
    2a4a:	bc80      	pop	{r7}
    2a4c:	4770      	bx	lr
    2a4e:	bf00      	nop

00002a50 <__REV16>:
    2a50:	b480      	push	{r7}
    2a52:	b085      	sub	sp, #20
    2a54:	af00      	add	r7, sp, #0
    2a56:	4603      	mov	r3, r0
    2a58:	80fb      	strh	r3, [r7, #6]
    2a5a:	f04f 0300 	mov.w	r3, #0	; 0x0
    2a5e:	60fb      	str	r3, [r7, #12]
    2a60:	88fb      	ldrh	r3, [r7, #6]
    2a62:	ba5b      	rev16	r3, r3
    2a64:	60fb      	str	r3, [r7, #12]
    2a66:	68fb      	ldr	r3, [r7, #12]
    2a68:	4618      	mov	r0, r3
    2a6a:	f107 0714 	add.w	r7, r7, #20	; 0x14
    2a6e:	46bd      	mov	sp, r7
    2a70:	bc80      	pop	{r7}
    2a72:	4770      	bx	lr

00002a74 <__REVSH>:
    2a74:	b480      	push	{r7}
    2a76:	b085      	sub	sp, #20
    2a78:	af00      	add	r7, sp, #0
    2a7a:	4603      	mov	r3, r0
    2a7c:	80fb      	strh	r3, [r7, #6]
    2a7e:	f04f 0300 	mov.w	r3, #0	; 0x0
    2a82:	60fb      	str	r3, [r7, #12]
    2a84:	88fb      	ldrh	r3, [r7, #6]
    2a86:	badb      	revsh	r3, r3
    2a88:	60fb      	str	r3, [r7, #12]
    2a8a:	68fb      	ldr	r3, [r7, #12]
    2a8c:	4618      	mov	r0, r3
    2a8e:	f107 0714 	add.w	r7, r7, #20	; 0x14
    2a92:	46bd      	mov	sp, r7
    2a94:	bc80      	pop	{r7}
    2a96:	4770      	bx	lr

00002a98 <__RBIT>:
    2a98:	b480      	push	{r7}
    2a9a:	b085      	sub	sp, #20
    2a9c:	af00      	add	r7, sp, #0
    2a9e:	6078      	str	r0, [r7, #4]
    2aa0:	f04f 0300 	mov.w	r3, #0	; 0x0
    2aa4:	60fb      	str	r3, [r7, #12]
    2aa6:	687b      	ldr	r3, [r7, #4]
    2aa8:	fa93 f3a3 	rbit	r3, r3
    2aac:	60fb      	str	r3, [r7, #12]
    2aae:	68fb      	ldr	r3, [r7, #12]
    2ab0:	4618      	mov	r0, r3
    2ab2:	f107 0714 	add.w	r7, r7, #20	; 0x14
    2ab6:	46bd      	mov	sp, r7
    2ab8:	bc80      	pop	{r7}
    2aba:	4770      	bx	lr

00002abc <__LDREXB>:
    2abc:	b480      	push	{r7}
    2abe:	b085      	sub	sp, #20
    2ac0:	af00      	add	r7, sp, #0
    2ac2:	6078      	str	r0, [r7, #4]
    2ac4:	f04f 0300 	mov.w	r3, #0	; 0x0
    2ac8:	73fb      	strb	r3, [r7, #15]
    2aca:	687b      	ldr	r3, [r7, #4]
    2acc:	e8d3 3f4f 	ldrexb	r3, [r3]
    2ad0:	73fb      	strb	r3, [r7, #15]
    2ad2:	7bfb      	ldrb	r3, [r7, #15]
    2ad4:	4618      	mov	r0, r3
    2ad6:	f107 0714 	add.w	r7, r7, #20	; 0x14
    2ada:	46bd      	mov	sp, r7
    2adc:	bc80      	pop	{r7}
    2ade:	4770      	bx	lr

00002ae0 <__LDREXH>:
    2ae0:	b480      	push	{r7}
    2ae2:	b085      	sub	sp, #20
    2ae4:	af00      	add	r7, sp, #0
    2ae6:	6078      	str	r0, [r7, #4]
    2ae8:	f04f 0300 	mov.w	r3, #0	; 0x0
    2aec:	81fb      	strh	r3, [r7, #14]
    2aee:	687b      	ldr	r3, [r7, #4]
    2af0:	e8d3 3f5f 	ldrexh	r3, [r3]
    2af4:	81fb      	strh	r3, [r7, #14]
    2af6:	89fb      	ldrh	r3, [r7, #14]
    2af8:	4618      	mov	r0, r3
    2afa:	f107 0714 	add.w	r7, r7, #20	; 0x14
    2afe:	46bd      	mov	sp, r7
    2b00:	bc80      	pop	{r7}
    2b02:	4770      	bx	lr

00002b04 <__LDREXW>:
    2b04:	b480      	push	{r7}
    2b06:	b085      	sub	sp, #20
    2b08:	af00      	add	r7, sp, #0
    2b0a:	6078      	str	r0, [r7, #4]
    2b0c:	f04f 0300 	mov.w	r3, #0	; 0x0
    2b10:	60fb      	str	r3, [r7, #12]
    2b12:	687b      	ldr	r3, [r7, #4]
    2b14:	e853 3f00 	ldrex	r3, [r3]
    2b18:	60fb      	str	r3, [r7, #12]
    2b1a:	68fb      	ldr	r3, [r7, #12]
    2b1c:	4618      	mov	r0, r3
    2b1e:	f107 0714 	add.w	r7, r7, #20	; 0x14
    2b22:	46bd      	mov	sp, r7
    2b24:	bc80      	pop	{r7}
    2b26:	4770      	bx	lr

00002b28 <__STREXB>:
    2b28:	b480      	push	{r7}
    2b2a:	b085      	sub	sp, #20
    2b2c:	af00      	add	r7, sp, #0
    2b2e:	4603      	mov	r3, r0
    2b30:	6039      	str	r1, [r7, #0]
    2b32:	71fb      	strb	r3, [r7, #7]
    2b34:	f04f 0300 	mov.w	r3, #0	; 0x0
    2b38:	60fb      	str	r3, [r7, #12]
    2b3a:	683a      	ldr	r2, [r7, #0]
    2b3c:	79fb      	ldrb	r3, [r7, #7]
    2b3e:	e8c2 3f43 	strexb	r3, r3, [r2]
    2b42:	60fb      	str	r3, [r7, #12]
    2b44:	68fb      	ldr	r3, [r7, #12]
    2b46:	4618      	mov	r0, r3
    2b48:	f107 0714 	add.w	r7, r7, #20	; 0x14
    2b4c:	46bd      	mov	sp, r7
    2b4e:	bc80      	pop	{r7}
    2b50:	4770      	bx	lr
    2b52:	bf00      	nop

00002b54 <__STREXH>:
    2b54:	b480      	push	{r7}
    2b56:	b085      	sub	sp, #20
    2b58:	af00      	add	r7, sp, #0
    2b5a:	4603      	mov	r3, r0
    2b5c:	6039      	str	r1, [r7, #0]
    2b5e:	80fb      	strh	r3, [r7, #6]
    2b60:	f04f 0300 	mov.w	r3, #0	; 0x0
    2b64:	60fb      	str	r3, [r7, #12]
    2b66:	683a      	ldr	r2, [r7, #0]
    2b68:	88fb      	ldrh	r3, [r7, #6]
    2b6a:	e8c2 3f53 	strexh	r3, r3, [r2]
    2b6e:	60fb      	str	r3, [r7, #12]
    2b70:	68fb      	ldr	r3, [r7, #12]
    2b72:	4618      	mov	r0, r3
    2b74:	f107 0714 	add.w	r7, r7, #20	; 0x14
    2b78:	46bd      	mov	sp, r7
    2b7a:	bc80      	pop	{r7}
    2b7c:	4770      	bx	lr
    2b7e:	bf00      	nop

00002b80 <__STREXW>:
    2b80:	b480      	push	{r7}
    2b82:	b085      	sub	sp, #20
    2b84:	af00      	add	r7, sp, #0
    2b86:	6078      	str	r0, [r7, #4]
    2b88:	6039      	str	r1, [r7, #0]
    2b8a:	f04f 0300 	mov.w	r3, #0	; 0x0
    2b8e:	60fb      	str	r3, [r7, #12]
    2b90:	683a      	ldr	r2, [r7, #0]
    2b92:	687b      	ldr	r3, [r7, #4]
    2b94:	e842 3300 	strex	r3, r3, [r2]
    2b98:	60fb      	str	r3, [r7, #12]
    2b9a:	68fb      	ldr	r3, [r7, #12]
    2b9c:	4618      	mov	r0, r3
    2b9e:	f107 0714 	add.w	r7, r7, #20	; 0x14
    2ba2:	46bd      	mov	sp, r7
    2ba4:	bc80      	pop	{r7}
    2ba6:	4770      	bx	lr

00002ba8 <__get_CONTROL>:
    2ba8:	b480      	push	{r7}
    2baa:	b083      	sub	sp, #12
    2bac:	af00      	add	r7, sp, #0
    2bae:	f04f 0300 	mov.w	r3, #0	; 0x0
    2bb2:	607b      	str	r3, [r7, #4]
    2bb4:	f3ef 8314 	mrs	r3, CONTROL
    2bb8:	607b      	str	r3, [r7, #4]
    2bba:	687b      	ldr	r3, [r7, #4]
    2bbc:	4618      	mov	r0, r3
    2bbe:	f107 070c 	add.w	r7, r7, #12	; 0xc
    2bc2:	46bd      	mov	sp, r7
    2bc4:	bc80      	pop	{r7}
    2bc6:	4770      	bx	lr

00002bc8 <__set_CONTROL>:
    2bc8:	b480      	push	{r7}
    2bca:	b083      	sub	sp, #12
    2bcc:	af00      	add	r7, sp, #0
    2bce:	6078      	str	r0, [r7, #4]
    2bd0:	687b      	ldr	r3, [r7, #4]
    2bd2:	f383 8814 	msr	CONTROL, r3
    2bd6:	f107 070c 	add.w	r7, r7, #12	; 0xc
    2bda:	46bd      	mov	sp, r7
    2bdc:	bc80      	pop	{r7}
    2bde:	4770      	bx	lr

00002be0 <SystemInit>:
    2be0:	b480      	push	{r7}
    2be2:	af00      	add	r7, sp, #0
    2be4:	f24c 0300 	movw	r3, #49152	; 0xc000
    2be8:	f2c4 030f 	movt	r3, #16399	; 0x400f
    2bec:	f04f 0220 	mov.w	r2, #32	; 0x20
    2bf0:	f8c3 21a0 	str.w	r2, [r3, #416]
    2bf4:	f24c 0300 	movw	r3, #49152	; 0xc000
    2bf8:	f2c4 030f 	movt	r3, #16399	; 0x400f
    2bfc:	f8d3 31a0 	ldr.w	r3, [r3, #416]
    2c00:	f003 0340 	and.w	r3, r3, #64	; 0x40
    2c04:	2b00      	cmp	r3, #0
    2c06:	d0f5      	beq.n	2bf4 <SystemInit+0x14>
    2c08:	f24c 0300 	movw	r3, #49152	; 0xc000
    2c0c:	f2c4 030f 	movt	r3, #16399	; 0x400f
    2c10:	f04f 0203 	mov.w	r2, #3	; 0x3
    2c14:	f8c3 2104 	str.w	r2, [r3, #260]
    2c18:	f24c 0300 	movw	r3, #49152	; 0xc000
    2c1c:	f2c4 030f 	movt	r3, #16399	; 0x400f
    2c20:	f04f 0201 	mov.w	r2, #1	; 0x1
    2c24:	f8c3 210c 	str.w	r2, [r3, #268]
    2c28:	f24c 0300 	movw	r3, #49152	; 0xc000
    2c2c:	f2c4 030f 	movt	r3, #16399	; 0x400f
    2c30:	f04f 020b 	mov.w	r2, #11	; 0xb
    2c34:	f8c3 2084 	str.w	r2, [r3, #132]
    2c38:	f24c 0300 	movw	r3, #49152	; 0xc000
    2c3c:	f2c4 030f 	movt	r3, #16399	; 0x400f
    2c40:	f04f 0201 	mov.w	r2, #1	; 0x1
    2c44:	f8c3 2080 	str.w	r2, [r3, #128]
    2c48:	f24c 0300 	movw	r3, #49152	; 0xc000
    2c4c:	f2c4 030f 	movt	r3, #16399	; 0x400f
    2c50:	f04f 02aa 	mov.w	r2, #170	; 0xaa
    2c54:	f8c3 208c 	str.w	r2, [r3, #140]
    2c58:	f24c 0300 	movw	r3, #49152	; 0xc000
    2c5c:	f2c4 030f 	movt	r3, #16399	; 0x400f
    2c60:	f04f 0255 	mov.w	r2, #85	; 0x55
    2c64:	f8c3 208c 	str.w	r2, [r3, #140]
    2c68:	f24c 0300 	movw	r3, #49152	; 0xc000
    2c6c:	f2c4 030f 	movt	r3, #16399	; 0x400f
    2c70:	f8d3 3088 	ldr.w	r3, [r3, #136]
    2c74:	f003 6380 	and.w	r3, r3, #67108864	; 0x4000000
    2c78:	2b00      	cmp	r3, #0
    2c7a:	d0f5      	beq.n	2c68 <SystemInit+0x88>
    2c7c:	f24c 0300 	movw	r3, #49152	; 0xc000
    2c80:	f2c4 030f 	movt	r3, #16399	; 0x400f
    2c84:	f04f 0203 	mov.w	r2, #3	; 0x3
    2c88:	f8c3 2080 	str.w	r2, [r3, #128]
    2c8c:	f24c 0300 	movw	r3, #49152	; 0xc000
    2c90:	f2c4 030f 	movt	r3, #16399	; 0x400f
    2c94:	f04f 02aa 	mov.w	r2, #170	; 0xaa
    2c98:	f8c3 208c 	str.w	r2, [r3, #140]
    2c9c:	f24c 0300 	movw	r3, #49152	; 0xc000
    2ca0:	f2c4 030f 	movt	r3, #16399	; 0x400f
    2ca4:	f04f 0255 	mov.w	r2, #85	; 0x55
    2ca8:	f8c3 208c 	str.w	r2, [r3, #140]
    2cac:	f24c 0300 	movw	r3, #49152	; 0xc000
    2cb0:	f2c4 030f 	movt	r3, #16399	; 0x400f
    2cb4:	f04f 0203 	mov.w	r2, #3	; 0x3
    2cb8:	f8c3 20a4 	str.w	r2, [r3, #164]
    2cbc:	f24c 0300 	movw	r3, #49152	; 0xc000
    2cc0:	f2c4 030f 	movt	r3, #16399	; 0x400f
    2cc4:	f04f 0201 	mov.w	r2, #1	; 0x1
    2cc8:	f8c3 20a0 	str.w	r2, [r3, #160]
    2ccc:	f24c 0300 	movw	r3, #49152	; 0xc000
    2cd0:	f2c4 030f 	movt	r3, #16399	; 0x400f
    2cd4:	f04f 02aa 	mov.w	r2, #170	; 0xaa
    2cd8:	f8c3 20ac 	str.w	r2, [r3, #172]
    2cdc:	f24c 0300 	movw	r3, #49152	; 0xc000
    2ce0:	f2c4 030f 	movt	r3, #16399	; 0x400f
    2ce4:	f04f 0255 	mov.w	r2, #85	; 0x55
    2ce8:	f8c3 20ac 	str.w	r2, [r3, #172]
    2cec:	f24c 0300 	movw	r3, #49152	; 0xc000
    2cf0:	f2c4 030f 	movt	r3, #16399	; 0x400f
    2cf4:	f8d3 30a8 	ldr.w	r3, [r3, #168]
    2cf8:	f403 6380 	and.w	r3, r3, #1024	; 0x400
    2cfc:	2b00      	cmp	r3, #0
    2cfe:	d0f5      	beq.n	2cec <SystemInit+0x10c>
    2d00:	f24c 0300 	movw	r3, #49152	; 0xc000
    2d04:	f2c4 030f 	movt	r3, #16399	; 0x400f
    2d08:	f04f 0203 	mov.w	r2, #3	; 0x3
    2d0c:	f8c3 20a0 	str.w	r2, [r3, #160]
    2d10:	f24c 0300 	movw	r3, #49152	; 0xc000
    2d14:	f2c4 030f 	movt	r3, #16399	; 0x400f
    2d18:	f04f 02aa 	mov.w	r2, #170	; 0xaa
    2d1c:	f8c3 20ac 	str.w	r2, [r3, #172]
    2d20:	f24c 0300 	movw	r3, #49152	; 0xc000
    2d24:	f2c4 030f 	movt	r3, #16399	; 0x400f
    2d28:	f04f 0255 	mov.w	r2, #85	; 0x55
    2d2c:	f8c3 20ac 	str.w	r2, [r3, #172]
    2d30:	f24c 0300 	movw	r3, #49152	; 0xc000
    2d34:	f2c4 030f 	movt	r3, #16399	; 0x400f
    2d38:	f04f 0200 	mov.w	r2, #0	; 0x0
    2d3c:	f8c3 21a8 	str.w	r2, [r3, #424]
    2d40:	f24c 0300 	movw	r3, #49152	; 0xc000
    2d44:	f2c4 030f 	movt	r3, #16399	; 0x400f
    2d48:	f04f 0200 	mov.w	r2, #0	; 0x0
    2d4c:	f8c3 21ac 	str.w	r2, [r3, #428]
    2d50:	f24c 0200 	movw	r2, #49152	; 0xc000
    2d54:	f2c4 020f 	movt	r2, #16399	; 0x400f
    2d58:	f248 73de 	movw	r3, #34782	; 0x87de
    2d5c:	f2c0 4328 	movt	r3, #1064	; 0x428
    2d60:	f8c2 30c4 	str.w	r3, [r2, #196]
    2d64:	f24c 0300 	movw	r3, #49152	; 0xc000
    2d68:	f2c4 030f 	movt	r3, #16399	; 0x400f
    2d6c:	f04f 0200 	mov.w	r2, #0	; 0x0
    2d70:	f8c3 21c8 	str.w	r2, [r3, #456]
    2d74:	f24c 0300 	movw	r3, #49152	; 0xc000
    2d78:	f2c4 030f 	movt	r3, #16399	; 0x400f
    2d7c:	f8d3 3088 	ldr.w	r3, [r3, #136]
    2d80:	ea4f 6313 	mov.w	r3, r3, lsr #24
    2d84:	f003 0303 	and.w	r3, r3, #3	; 0x3
    2d88:	2b03      	cmp	r3, #3
    2d8a:	f040 80b1 	bne.w	2ef0 <SystemInit+0x310>
    2d8e:	f24c 0300 	movw	r3, #49152	; 0xc000
    2d92:	f2c4 030f 	movt	r3, #16399	; 0x400f
    2d96:	f8d3 310c 	ldr.w	r3, [r3, #268]
    2d9a:	f003 0303 	and.w	r3, r3, #3	; 0x3
    2d9e:	2b03      	cmp	r3, #3
    2da0:	f200 80fb 	bhi.w	2f9a <SystemInit+0x3ba>
    2da4:	a201      	add	r2, pc, #4	(adr r2, 2dac <SystemInit+0x1cc>)
    2da6:	f852 f023 	ldr.w	pc, [r2, r3, lsl #2]
    2daa:	bf00      	nop
    2dac:	00002dbd 	.word	0x00002dbd
    2db0:	00002e25 	.word	0x00002e25
    2db4:	00002e8d 	.word	0x00002e8d
    2db8:	00002dbd 	.word	0x00002dbd
    2dbc:	f24c 0300 	movw	r3, #49152	; 0xc000
    2dc0:	f2c4 030f 	movt	r3, #16399	; 0x400f
    2dc4:	f8d3 3088 	ldr.w	r3, [r3, #136]
    2dc8:	ea4f 4343 	mov.w	r3, r3, lsl #17
    2dcc:	ea4f 4353 	mov.w	r3, r3, lsr #17
    2dd0:	f103 0301 	add.w	r3, r3, #1	; 0x1
    2dd4:	ea4f 0243 	mov.w	r2, r3, lsl #1
    2dd8:	f24c 0300 	movw	r3, #49152	; 0xc000
    2ddc:	f2c4 030f 	movt	r3, #16399	; 0x400f
    2de0:	f8d3 3088 	ldr.w	r3, [r3, #136]
    2de4:	ea4f 4313 	mov.w	r3, r3, lsr #16
    2de8:	f003 03ff 	and.w	r3, r3, #255	; 0xff
    2dec:	f103 0301 	add.w	r3, r3, #1	; 0x1
    2df0:	fbb2 f2f3 	udiv	r2, r2, r3
    2df4:	f640 1300 	movw	r3, #2304	; 0x900
    2df8:	f2c0 033d 	movt	r3, #61	; 0x3d
    2dfc:	fb03 f202 	mul.w	r2, r3, r2
    2e00:	f24c 0300 	movw	r3, #49152	; 0xc000
    2e04:	f2c4 030f 	movt	r3, #16399	; 0x400f
    2e08:	f8d3 3104 	ldr.w	r3, [r3, #260]
    2e0c:	f003 03ff 	and.w	r3, r3, #255	; 0xff
    2e10:	f103 0301 	add.w	r3, r3, #1	; 0x1
    2e14:	fbb2 f2f3 	udiv	r2, r2, r3
    2e18:	f240 0300 	movw	r3, #0	; 0x0
    2e1c:	f2c1 0300 	movt	r3, #4096	; 0x1000
    2e20:	601a      	str	r2, [r3, #0]
    2e22:	e0ba      	b.n	2f9a <SystemInit+0x3ba>
    2e24:	f24c 0300 	movw	r3, #49152	; 0xc000
    2e28:	f2c4 030f 	movt	r3, #16399	; 0x400f
    2e2c:	f8d3 3088 	ldr.w	r3, [r3, #136]
    2e30:	ea4f 4343 	mov.w	r3, r3, lsl #17
    2e34:	ea4f 4353 	mov.w	r3, r3, lsr #17
    2e38:	f103 0301 	add.w	r3, r3, #1	; 0x1
    2e3c:	ea4f 0243 	mov.w	r2, r3, lsl #1
    2e40:	f24c 0300 	movw	r3, #49152	; 0xc000
    2e44:	f2c4 030f 	movt	r3, #16399	; 0x400f
    2e48:	f8d3 3088 	ldr.w	r3, [r3, #136]
    2e4c:	ea4f 4313 	mov.w	r3, r3, lsr #16
    2e50:	f003 03ff 	and.w	r3, r3, #255	; 0xff
    2e54:	f103 0301 	add.w	r3, r3, #1	; 0x1
    2e58:	fbb2 f2f3 	udiv	r2, r2, r3
    2e5c:	f641 3300 	movw	r3, #6912	; 0x1b00
    2e60:	f2c0 03b7 	movt	r3, #183	; 0xb7
    2e64:	fb03 f202 	mul.w	r2, r3, r2
    2e68:	f24c 0300 	movw	r3, #49152	; 0xc000
    2e6c:	f2c4 030f 	movt	r3, #16399	; 0x400f
    2e70:	f8d3 3104 	ldr.w	r3, [r3, #260]
    2e74:	f003 03ff 	and.w	r3, r3, #255	; 0xff
    2e78:	f103 0301 	add.w	r3, r3, #1	; 0x1
    2e7c:	fbb2 f2f3 	udiv	r2, r2, r3
    2e80:	f240 0300 	movw	r3, #0	; 0x0
    2e84:	f2c1 0300 	movt	r3, #4096	; 0x1000
    2e88:	601a      	str	r2, [r3, #0]
    2e8a:	e086      	b.n	2f9a <SystemInit+0x3ba>
    2e8c:	f24c 0300 	movw	r3, #49152	; 0xc000
    2e90:	f2c4 030f 	movt	r3, #16399	; 0x400f
    2e94:	f8d3 3088 	ldr.w	r3, [r3, #136]
    2e98:	ea4f 4343 	mov.w	r3, r3, lsl #17
    2e9c:	ea4f 4353 	mov.w	r3, r3, lsr #17
    2ea0:	f103 0301 	add.w	r3, r3, #1	; 0x1
    2ea4:	ea4f 0243 	mov.w	r2, r3, lsl #1
    2ea8:	f24c 0300 	movw	r3, #49152	; 0xc000
    2eac:	f2c4 030f 	movt	r3, #16399	; 0x400f
    2eb0:	f8d3 3088 	ldr.w	r3, [r3, #136]
    2eb4:	ea4f 4313 	mov.w	r3, r3, lsr #16
    2eb8:	f003 03ff 	and.w	r3, r3, #255	; 0xff
    2ebc:	f103 0301 	add.w	r3, r3, #1	; 0x1
    2ec0:	fbb2 f2f3 	udiv	r2, r2, r3
    2ec4:	f44f 43fa 	mov.w	r3, #32000	; 0x7d00
    2ec8:	fb03 f202 	mul.w	r2, r3, r2
    2ecc:	f24c 0300 	movw	r3, #49152	; 0xc000
    2ed0:	f2c4 030f 	movt	r3, #16399	; 0x400f
    2ed4:	f8d3 3104 	ldr.w	r3, [r3, #260]
    2ed8:	f003 03ff 	and.w	r3, r3, #255	; 0xff
    2edc:	f103 0301 	add.w	r3, r3, #1	; 0x1
    2ee0:	fbb2 f2f3 	udiv	r2, r2, r3
    2ee4:	f240 0300 	movw	r3, #0	; 0x0
    2ee8:	f2c1 0300 	movt	r3, #4096	; 0x1000
    2eec:	601a      	str	r2, [r3, #0]
    2eee:	e054      	b.n	2f9a <SystemInit+0x3ba>
    2ef0:	f24c 0300 	movw	r3, #49152	; 0xc000
    2ef4:	f2c4 030f 	movt	r3, #16399	; 0x400f
    2ef8:	f8d3 310c 	ldr.w	r3, [r3, #268]
    2efc:	f003 0303 	and.w	r3, r3, #3	; 0x3
    2f00:	2b03      	cmp	r3, #3
    2f02:	d84a      	bhi.n	2f9a <SystemInit+0x3ba>
    2f04:	a201      	add	r2, pc, #4	(adr r2, 2f0c <SystemInit+0x32c>)
    2f06:	f852 f023 	ldr.w	pc, [r2, r3, lsl #2]
    2f0a:	bf00      	nop
    2f0c:	00002f1d 	.word	0x00002f1d
    2f10:	00002f49 	.word	0x00002f49
    2f14:	00002f75 	.word	0x00002f75
    2f18:	00002f1d 	.word	0x00002f1d
    2f1c:	f24c 0300 	movw	r3, #49152	; 0xc000
    2f20:	f2c4 030f 	movt	r3, #16399	; 0x400f
    2f24:	f8d3 3104 	ldr.w	r3, [r3, #260]
    2f28:	f003 03ff 	and.w	r3, r3, #255	; 0xff
    2f2c:	f103 0201 	add.w	r2, r3, #1	; 0x1
    2f30:	f640 1300 	movw	r3, #2304	; 0x900
    2f34:	f2c0 033d 	movt	r3, #61	; 0x3d
    2f38:	fbb3 f2f2 	udiv	r2, r3, r2
    2f3c:	f240 0300 	movw	r3, #0	; 0x0
    2f40:	f2c1 0300 	movt	r3, #4096	; 0x1000
    2f44:	601a      	str	r2, [r3, #0]
    2f46:	e028      	b.n	2f9a <SystemInit+0x3ba>
    2f48:	f24c 0300 	movw	r3, #49152	; 0xc000
    2f4c:	f2c4 030f 	movt	r3, #16399	; 0x400f
    2f50:	f8d3 3104 	ldr.w	r3, [r3, #260]
    2f54:	f003 03ff 	and.w	r3, r3, #255	; 0xff
    2f58:	f103 0201 	add.w	r2, r3, #1	; 0x1
    2f5c:	f641 3300 	movw	r3, #6912	; 0x1b00
    2f60:	f2c0 03b7 	movt	r3, #183	; 0xb7
    2f64:	fbb3 f2f2 	udiv	r2, r3, r2
    2f68:	f240 0300 	movw	r3, #0	; 0x0
    2f6c:	f2c1 0300 	movt	r3, #4096	; 0x1000
    2f70:	601a      	str	r2, [r3, #0]
    2f72:	e012      	b.n	2f9a <SystemInit+0x3ba>
    2f74:	f24c 0300 	movw	r3, #49152	; 0xc000
    2f78:	f2c4 030f 	movt	r3, #16399	; 0x400f
    2f7c:	f8d3 3104 	ldr.w	r3, [r3, #260]
    2f80:	f003 03ff 	and.w	r3, r3, #255	; 0xff
    2f84:	f103 0201 	add.w	r2, r3, #1	; 0x1
    2f88:	f44f 43fa 	mov.w	r3, #32000	; 0x7d00
    2f8c:	fbb3 f2f2 	udiv	r2, r3, r2
    2f90:	f240 0300 	movw	r3, #0	; 0x0
    2f94:	f2c1 0300 	movt	r3, #4096	; 0x1000
    2f98:	601a      	str	r2, [r3, #0]
    2f9a:	f24c 0300 	movw	r3, #49152	; 0xc000
    2f9e:	f2c4 030f 	movt	r3, #16399	; 0x400f
    2fa2:	f243 023a 	movw	r2, #12346	; 0x303a
    2fa6:	601a      	str	r2, [r3, #0]
    2fa8:	46bd      	mov	sp, r7
    2faa:	bc80      	pop	{r7}
    2fac:	4770      	bx	lr
    2fae:	bf00      	nop

00002fb0 <_sbrk>:
    2fb0:	b480      	push	{r7}
    2fb2:	b083      	sub	sp, #12
    2fb4:	af00      	add	r7, sp, #0
    2fb6:	6078      	str	r0, [r7, #4]
    2fb8:	f04f 0300 	mov.w	r3, #0	; 0x0
    2fbc:	4618      	mov	r0, r3
    2fbe:	f107 070c 	add.w	r7, r7, #12	; 0xc
    2fc2:	46bd      	mov	sp, r7
    2fc4:	bc80      	pop	{r7}
    2fc6:	4770      	bx	lr

00002fc8 <memcmp>:
    2fc8:	b570      	push	{r4, r5, r6, lr}
    2fca:	1c0e      	adds	r6, r1, #0
    2fcc:	1c15      	adds	r5, r2, #0
    2fce:	1c04      	adds	r4, r0, #0
    2fd0:	2a03      	cmp	r2, #3
    2fd2:	d920      	bls.n	3016 <memcmp+0x4e>
    2fd4:	1c33      	adds	r3, r6, #0
    2fd6:	4303      	orrs	r3, r0
    2fd8:	079a      	lsls	r2, r3, #30
    2fda:	d012      	beq.n	3002 <memcmp+0x3a>
    2fdc:	7823      	ldrb	r3, [r4, #0]
    2fde:	7808      	ldrb	r0, [r1, #0]
    2fe0:	4283      	cmp	r3, r0
    2fe2:	d11b      	bne.n	301c <memcmp+0x54>
    2fe4:	1e6a      	subs	r2, r5, #1
    2fe6:	e006      	b.n	2ff6 <memcmp+0x2e>
    2fe8:	3401      	adds	r4, #1
    2fea:	3101      	adds	r1, #1
    2fec:	7823      	ldrb	r3, [r4, #0]
    2fee:	7808      	ldrb	r0, [r1, #0]
    2ff0:	3a01      	subs	r2, #1
    2ff2:	4283      	cmp	r3, r0
    2ff4:	d112      	bne.n	301c <memcmp+0x54>
    2ff6:	2a00      	cmp	r2, #0
    2ff8:	d1f6      	bne.n	2fe8 <memcmp+0x20>
    2ffa:	2000      	movs	r0, #0
    2ffc:	bc70      	pop	{r4, r5, r6}
    2ffe:	bc02      	pop	{r1}
    3000:	4708      	bx	r1
    3002:	6802      	ldr	r2, [r0, #0]
    3004:	680b      	ldr	r3, [r1, #0]
    3006:	429a      	cmp	r2, r3
    3008:	d104      	bne.n	3014 <memcmp+0x4c>
    300a:	3d04      	subs	r5, #4
    300c:	3004      	adds	r0, #4
    300e:	3104      	adds	r1, #4
    3010:	2d03      	cmp	r5, #3
    3012:	d8f6      	bhi.n	3002 <memcmp+0x3a>
    3014:	1c04      	adds	r4, r0, #0
    3016:	2d00      	cmp	r5, #0
    3018:	d1e0      	bne.n	2fdc <memcmp+0x14>
    301a:	e7ee      	b.n	2ffa <memcmp+0x32>
    301c:	1a18      	subs	r0, r3, r0
    301e:	e7ed      	b.n	2ffc <memcmp+0x34>

00003020 <memcpy>:
    3020:	b5f0      	push	{r4, r5, r6, r7, lr}
    3022:	4657      	mov	r7, sl
    3024:	464e      	mov	r6, r9
    3026:	4645      	mov	r5, r8
    3028:	b4e0      	push	{r5, r6, r7}
    302a:	1c04      	adds	r4, r0, #0
    302c:	1c08      	adds	r0, r1, #0
    302e:	1c11      	adds	r1, r2, #0
    3030:	2a03      	cmp	r2, #3
    3032:	d80f      	bhi.n	3054 <memcpy+0x34>
    3034:	2a00      	cmp	r2, #0
    3036:	d005      	beq.n	3044 <memcpy+0x24>
    3038:	2200      	movs	r2, #0
    303a:	5c83      	ldrb	r3, [r0, r2]
    303c:	54a3      	strb	r3, [r4, r2]
    303e:	3201      	adds	r2, #1
    3040:	4291      	cmp	r1, r2
    3042:	d8fa      	bhi.n	303a <memcpy+0x1a>
    3044:	1c20      	adds	r0, r4, #0
    3046:	bc1c      	pop	{r2, r3, r4}
    3048:	4690      	mov	r8, r2
    304a:	4699      	mov	r9, r3
    304c:	46a2      	mov	sl, r4
    304e:	bcf0      	pop	{r4, r5, r6, r7}
    3050:	bc02      	pop	{r1}
    3052:	4708      	bx	r1
    3054:	1911      	adds	r1, r2, r4
    3056:	468a      	mov	sl, r1
    3058:	07a1      	lsls	r1, r4, #30
    305a:	d07a      	beq.n	3152 <memcpy+0x132>
    305c:	1c25      	adds	r5, r4, #0
    305e:	2203      	movs	r2, #3
    3060:	7803      	ldrb	r3, [r0, #0]
    3062:	702b      	strb	r3, [r5, #0]
    3064:	3501      	adds	r5, #1
    3066:	3001      	adds	r0, #1
    3068:	4215      	tst	r5, r2
    306a:	d1f9      	bne.n	3060 <memcpy+0x40>
    306c:	1c06      	adds	r6, r0, #0
    306e:	2303      	movs	r3, #3
    3070:	1c07      	adds	r7, r0, #0
    3072:	401f      	ands	r7, r3
    3074:	d026      	beq.n	30c4 <memcpy+0xa4>
    3076:	4653      	mov	r3, sl
    3078:	4279      	negs	r1, r7
    307a:	1b5b      	subs	r3, r3, r5
    307c:	5842      	ldr	r2, [r0, r1]
    307e:	4699      	mov	r9, r3
    3080:	2b03      	cmp	r3, #3
    3082:	dd1c      	ble.n	30be <memcpy+0x9e>
    3084:	00fb      	lsls	r3, r7, #3
    3086:	4698      	mov	r8, r3
    3088:	2304      	movs	r3, #4
    308a:	1bdb      	subs	r3, r3, r7
    308c:	00db      	lsls	r3, r3, #3
    308e:	1847      	adds	r7, r0, r1
    3090:	469c      	mov	ip, r3
    3092:	4648      	mov	r0, r9
    3094:	687b      	ldr	r3, [r7, #4]
    3096:	4641      	mov	r1, r8
    3098:	40ca      	lsrs	r2, r1
    309a:	4691      	mov	r9, r2
    309c:	1c19      	adds	r1, r3, #0
    309e:	4662      	mov	r2, ip
    30a0:	4091      	lsls	r1, r2
    30a2:	464a      	mov	r2, r9
    30a4:	430a      	orrs	r2, r1
    30a6:	3804      	subs	r0, #4
    30a8:	c504      	stmia	r5!, {r2}
    30aa:	3604      	adds	r6, #4
    30ac:	3704      	adds	r7, #4
    30ae:	1c1a      	adds	r2, r3, #0
    30b0:	2803      	cmp	r0, #3
    30b2:	dcef      	bgt.n	3094 <memcpy+0x74>
    30b4:	e003      	b.n	30be <memcpy+0x9e>
    30b6:	7833      	ldrb	r3, [r6, #0]
    30b8:	3601      	adds	r6, #1
    30ba:	702b      	strb	r3, [r5, #0]
    30bc:	3501      	adds	r5, #1
    30be:	4555      	cmp	r5, sl
    30c0:	d3f9      	bcc.n	30b6 <memcpy+0x96>
    30c2:	e7bf      	b.n	3044 <memcpy+0x24>
    30c4:	4652      	mov	r2, sl
    30c6:	1b53      	subs	r3, r2, r5
    30c8:	2b3f      	cmp	r3, #63
    30ca:	dd26      	ble.n	311a <memcpy+0xfa>
    30cc:	1c1a      	adds	r2, r3, #0
    30ce:	6833      	ldr	r3, [r6, #0]
    30d0:	602b      	str	r3, [r5, #0]
    30d2:	6873      	ldr	r3, [r6, #4]
    30d4:	606b      	str	r3, [r5, #4]
    30d6:	68b3      	ldr	r3, [r6, #8]
    30d8:	60ab      	str	r3, [r5, #8]
    30da:	68f3      	ldr	r3, [r6, #12]
    30dc:	60eb      	str	r3, [r5, #12]
    30de:	6933      	ldr	r3, [r6, #16]
    30e0:	612b      	str	r3, [r5, #16]
    30e2:	6973      	ldr	r3, [r6, #20]
    30e4:	616b      	str	r3, [r5, #20]
    30e6:	69b3      	ldr	r3, [r6, #24]
    30e8:	61ab      	str	r3, [r5, #24]
    30ea:	69f3      	ldr	r3, [r6, #28]
    30ec:	61eb      	str	r3, [r5, #28]
    30ee:	6a33      	ldr	r3, [r6, #32]
    30f0:	622b      	str	r3, [r5, #32]
    30f2:	6a73      	ldr	r3, [r6, #36]
    30f4:	626b      	str	r3, [r5, #36]
    30f6:	6ab3      	ldr	r3, [r6, #40]
    30f8:	62ab      	str	r3, [r5, #40]
    30fa:	6af3      	ldr	r3, [r6, #44]
    30fc:	62eb      	str	r3, [r5, #44]
    30fe:	6b33      	ldr	r3, [r6, #48]
    3100:	632b      	str	r3, [r5, #48]
    3102:	6b73      	ldr	r3, [r6, #52]
    3104:	636b      	str	r3, [r5, #52]
    3106:	6bb3      	ldr	r3, [r6, #56]
    3108:	63ab      	str	r3, [r5, #56]
    310a:	6bf3      	ldr	r3, [r6, #60]
    310c:	3a40      	subs	r2, #64
    310e:	63eb      	str	r3, [r5, #60]
    3110:	3640      	adds	r6, #64
    3112:	3540      	adds	r5, #64
    3114:	1c13      	adds	r3, r2, #0
    3116:	2a3f      	cmp	r2, #63
    3118:	dcd9      	bgt.n	30ce <memcpy+0xae>
    311a:	2b0f      	cmp	r3, #15
    311c:	dd0f      	ble.n	313e <memcpy+0x11e>
    311e:	4653      	mov	r3, sl
    3120:	1b5a      	subs	r2, r3, r5
    3122:	6833      	ldr	r3, [r6, #0]
    3124:	602b      	str	r3, [r5, #0]
    3126:	6873      	ldr	r3, [r6, #4]
    3128:	606b      	str	r3, [r5, #4]
    312a:	68b3      	ldr	r3, [r6, #8]
    312c:	60ab      	str	r3, [r5, #8]
    312e:	68f3      	ldr	r3, [r6, #12]
    3130:	3a10      	subs	r2, #16
    3132:	60eb      	str	r3, [r5, #12]
    3134:	3610      	adds	r6, #16
    3136:	3510      	adds	r5, #16
    3138:	1c13      	adds	r3, r2, #0
    313a:	2a0f      	cmp	r2, #15
    313c:	dcf1      	bgt.n	3122 <memcpy+0x102>
    313e:	2b03      	cmp	r3, #3
    3140:	ddbd      	ble.n	30be <memcpy+0x9e>
    3142:	4651      	mov	r1, sl
    3144:	1b4a      	subs	r2, r1, r5
    3146:	ce08      	ldmia	r6!, {r3}
    3148:	3a04      	subs	r2, #4
    314a:	c508      	stmia	r5!, {r3}
    314c:	2a03      	cmp	r2, #3
    314e:	dcfa      	bgt.n	3146 <memcpy+0x126>
    3150:	e7b5      	b.n	30be <memcpy+0x9e>
    3152:	1c25      	adds	r5, r4, #0
    3154:	1c06      	adds	r6, r0, #0
    3156:	e78a      	b.n	306e <memcpy+0x4e>

00003158 <memset>:
    3158:	b570      	push	{r4, r5, r6, lr}
    315a:	0609      	lsls	r1, r1, #24
    315c:	1c04      	adds	r4, r0, #0
    315e:	0e09      	lsrs	r1, r1, #24
    3160:	2a03      	cmp	r2, #3
    3162:	d80b      	bhi.n	317c <memset+0x24>
    3164:	2a00      	cmp	r2, #0
    3166:	d005      	beq.n	3174 <memset+0x1c>
    3168:	1c03      	adds	r3, r0, #0
    316a:	1882      	adds	r2, r0, r2
    316c:	7019      	strb	r1, [r3, #0]
    316e:	3301      	adds	r3, #1
    3170:	4293      	cmp	r3, r2
    3172:	d1fb      	bne.n	316c <memset+0x14>
    3174:	1c20      	adds	r0, r4, #0
    3176:	bc70      	pop	{r4, r5, r6}
    3178:	bc02      	pop	{r1}
    317a:	4708      	bx	r1
    317c:	1886      	adds	r6, r0, r2
    317e:	0783      	lsls	r3, r0, #30
    3180:	d004      	beq.n	318c <memset+0x34>
    3182:	2303      	movs	r3, #3
    3184:	7001      	strb	r1, [r0, #0]
    3186:	3001      	adds	r0, #1
    3188:	4218      	tst	r0, r3
    318a:	d1fb      	bne.n	3184 <memset+0x2c>
    318c:	020b      	lsls	r3, r1, #8
    318e:	185b      	adds	r3, r3, r1
    3190:	041a      	lsls	r2, r3, #16
    3192:	1a35      	subs	r5, r6, r0
    3194:	189b      	adds	r3, r3, r2
    3196:	2d3f      	cmp	r5, #63
    3198:	dd15      	ble.n	31c6 <memset+0x6e>
    319a:	1c2a      	adds	r2, r5, #0
    319c:	3a40      	subs	r2, #64
    319e:	6003      	str	r3, [r0, #0]
    31a0:	6043      	str	r3, [r0, #4]
    31a2:	6083      	str	r3, [r0, #8]
    31a4:	60c3      	str	r3, [r0, #12]
    31a6:	6103      	str	r3, [r0, #16]
    31a8:	6143      	str	r3, [r0, #20]
    31aa:	6183      	str	r3, [r0, #24]
    31ac:	61c3      	str	r3, [r0, #28]
    31ae:	6203      	str	r3, [r0, #32]
    31b0:	6243      	str	r3, [r0, #36]
    31b2:	6283      	str	r3, [r0, #40]
    31b4:	62c3      	str	r3, [r0, #44]
    31b6:	6303      	str	r3, [r0, #48]
    31b8:	6343      	str	r3, [r0, #52]
    31ba:	6383      	str	r3, [r0, #56]
    31bc:	63c3      	str	r3, [r0, #60]
    31be:	1c15      	adds	r5, r2, #0
    31c0:	3040      	adds	r0, #64
    31c2:	2a3f      	cmp	r2, #63
    31c4:	dcea      	bgt.n	319c <memset+0x44>
    31c6:	2d0f      	cmp	r5, #15
    31c8:	dd09      	ble.n	31de <memset+0x86>
    31ca:	1a32      	subs	r2, r6, r0
    31cc:	3a10      	subs	r2, #16
    31ce:	6003      	str	r3, [r0, #0]
    31d0:	6043      	str	r3, [r0, #4]
    31d2:	6083      	str	r3, [r0, #8]
    31d4:	60c3      	str	r3, [r0, #12]
    31d6:	1c15      	adds	r5, r2, #0
    31d8:	3010      	adds	r0, #16
    31da:	2a0f      	cmp	r2, #15
    31dc:	dcf6      	bgt.n	31cc <memset+0x74>
    31de:	2d03      	cmp	r5, #3
    31e0:	dd07      	ble.n	31f2 <memset+0x9a>
    31e2:	1a32      	subs	r2, r6, r0
    31e4:	3a04      	subs	r2, #4
    31e6:	c008      	stmia	r0!, {r3}
    31e8:	2a03      	cmp	r2, #3
    31ea:	dcfb      	bgt.n	31e4 <memset+0x8c>
    31ec:	e001      	b.n	31f2 <memset+0x9a>
    31ee:	7001      	strb	r1, [r0, #0]
    31f0:	3001      	adds	r0, #1
    31f2:	4286      	cmp	r6, r0
    31f4:	d8fb      	bhi.n	31ee <memset+0x96>
    31f6:	e7bd      	b.n	3174 <memset+0x1c>

000031f8 <sprintf>:
    31f8:	b40e      	push	{r1, r2, r3}
    31fa:	b500      	push	{lr}
    31fc:	b09c      	sub	sp, #112
    31fe:	ab1d      	add	r3, sp, #116
    3200:	cb04      	ldmia	r3!, {r2}
    3202:	921d      	str	r2, [sp, #116]
    3204:	2282      	movs	r2, #130
    3206:	a901      	add	r1, sp, #4
    3208:	0092      	lsls	r2, r2, #2
    320a:	818a      	strh	r2, [r1, #12]
    320c:	4a0a      	ldr	r2, [pc, #40]	(3238 <sprintf+0x40>)
    320e:	608a      	str	r2, [r1, #8]
    3210:	614a      	str	r2, [r1, #20]
    3212:	2201      	movs	r2, #1
    3214:	4252      	negs	r2, r2
    3216:	81ca      	strh	r2, [r1, #14]
    3218:	4a08      	ldr	r2, [pc, #32]	(323c <sprintf+0x44>)
    321a:	9001      	str	r0, [sp, #4]
    321c:	6108      	str	r0, [r1, #16]
    321e:	6810      	ldr	r0, [r2, #0]
    3220:	9a1d      	ldr	r2, [sp, #116]
    3222:	931b      	str	r3, [sp, #108]
    3224:	f000 f8c6 	bl	33b4 <_svfprintf_r>
    3228:	9a01      	ldr	r2, [sp, #4]
    322a:	2300      	movs	r3, #0
    322c:	b01c      	add	sp, #112
    322e:	7013      	strb	r3, [r2, #0]
    3230:	bc08      	pop	{r3}
    3232:	b003      	add	sp, #12
    3234:	4718      	bx	r3
    3236:	46c0      	nop			(mov r8, r8)
    3238:	7fffffff 	.word	0x7fffffff
    323c:	10000008 	.word	0x10000008

00003240 <_sprintf_r>:
    3240:	b40c      	push	{r2, r3}
    3242:	b510      	push	{r4, lr}
    3244:	b09c      	sub	sp, #112
    3246:	ab1e      	add	r3, sp, #120
    3248:	cb04      	ldmia	r3!, {r2}
    324a:	921e      	str	r2, [sp, #120]
    324c:	2282      	movs	r2, #130
    324e:	ac01      	add	r4, sp, #4
    3250:	0092      	lsls	r2, r2, #2
    3252:	81a2      	strh	r2, [r4, #12]
    3254:	4a0a      	ldr	r2, [pc, #40]	(3280 <_sprintf_r+0x40>)
    3256:	60a2      	str	r2, [r4, #8]
    3258:	6162      	str	r2, [r4, #20]
    325a:	2201      	movs	r2, #1
    325c:	4252      	negs	r2, r2
    325e:	9101      	str	r1, [sp, #4]
    3260:	6121      	str	r1, [r4, #16]
    3262:	81e2      	strh	r2, [r4, #14]
    3264:	1c21      	adds	r1, r4, #0
    3266:	9a1e      	ldr	r2, [sp, #120]
    3268:	931b      	str	r3, [sp, #108]
    326a:	f000 f8a3 	bl	33b4 <_svfprintf_r>
    326e:	9a01      	ldr	r2, [sp, #4]
    3270:	2300      	movs	r3, #0
    3272:	b01c      	add	sp, #112
    3274:	7013      	strb	r3, [r2, #0]
    3276:	bc10      	pop	{r4}
    3278:	bc08      	pop	{r3}
    327a:	b002      	add	sp, #8
    327c:	4718      	bx	r3
    327e:	46c0      	nop			(mov r8, r8)
    3280:	7fffffff 	.word	0x7fffffff
    3284:	00000000 	.word	0x00000000

00003288 <__sprint_r>:
    3288:	b5f0      	push	{r4, r5, r6, r7, lr}
    328a:	465f      	mov	r7, fp
    328c:	4656      	mov	r6, sl
    328e:	464d      	mov	r5, r9
    3290:	4644      	mov	r4, r8
    3292:	b4f0      	push	{r4, r5, r6, r7}
    3294:	6893      	ldr	r3, [r2, #8]
    3296:	b085      	sub	sp, #20
    3298:	9003      	str	r0, [sp, #12]
    329a:	1c0d      	adds	r5, r1, #0
    329c:	4691      	mov	r9, r2
    329e:	6817      	ldr	r7, [r2, #0]
    32a0:	2b00      	cmp	r3, #0
    32a2:	d075      	beq.n	3390 <__sprint_r+0x108>
    32a4:	6808      	ldr	r0, [r1, #0]
    32a6:	2280      	movs	r2, #128
    32a8:	2190      	movs	r1, #144
    32aa:	2600      	movs	r6, #0
    32ac:	00c9      	lsls	r1, r1, #3
    32ae:	00d2      	lsls	r2, r2, #3
    32b0:	46b3      	mov	fp, r6
    32b2:	9102      	str	r1, [sp, #8]
    32b4:	9201      	str	r2, [sp, #4]
    32b6:	2e00      	cmp	r6, #0
    32b8:	d013      	beq.n	32e2 <__sprint_r+0x5a>
    32ba:	68ac      	ldr	r4, [r5, #8]
    32bc:	42a6      	cmp	r6, r4
    32be:	d219      	bcs.n	32f4 <__sprint_r+0x6c>
    32c0:	1c34      	adds	r4, r6, #0
    32c2:	4659      	mov	r1, fp
    32c4:	1c22      	adds	r2, r4, #0
    32c6:	f002 fe99 	bl	5ffc <memmove>
    32ca:	68ab      	ldr	r3, [r5, #8]
    32cc:	1b1b      	subs	r3, r3, r4
    32ce:	60ab      	str	r3, [r5, #8]
    32d0:	4649      	mov	r1, r9
    32d2:	6828      	ldr	r0, [r5, #0]
    32d4:	688b      	ldr	r3, [r1, #8]
    32d6:	1900      	adds	r0, r0, r4
    32d8:	1b9b      	subs	r3, r3, r6
    32da:	6028      	str	r0, [r5, #0]
    32dc:	608b      	str	r3, [r1, #8]
    32de:	2b00      	cmp	r3, #0
    32e0:	d061      	beq.n	33a6 <__sprint_r+0x11e>
    32e2:	6839      	ldr	r1, [r7, #0]
    32e4:	687e      	ldr	r6, [r7, #4]
    32e6:	468b      	mov	fp, r1
    32e8:	3708      	adds	r7, #8
    32ea:	2e00      	cmp	r6, #0
    32ec:	d0f9      	beq.n	32e2 <__sprint_r+0x5a>
    32ee:	68ac      	ldr	r4, [r5, #8]
    32f0:	42a6      	cmp	r6, r4
    32f2:	d3e5      	bcc.n	32c0 <__sprint_r+0x38>
    32f4:	89a9      	ldrh	r1, [r5, #12]
    32f6:	9a02      	ldr	r2, [sp, #8]
    32f8:	4211      	tst	r1, r2
    32fa:	d0e2      	beq.n	32c2 <__sprint_r+0x3a>
    32fc:	696b      	ldr	r3, [r5, #20]
    32fe:	005a      	lsls	r2, r3, #1
    3300:	18d2      	adds	r2, r2, r3
    3302:	0fd3      	lsrs	r3, r2, #31
    3304:	692c      	ldr	r4, [r5, #16]
    3306:	189b      	adds	r3, r3, r2
    3308:	105b      	asrs	r3, r3, #1
    330a:	1b00      	subs	r0, r0, r4
    330c:	4698      	mov	r8, r3
    330e:	1c1a      	adds	r2, r3, #0
    3310:	1c03      	adds	r3, r0, #0
    3312:	3301      	adds	r3, #1
    3314:	199b      	adds	r3, r3, r6
    3316:	4682      	mov	sl, r0
    3318:	4598      	cmp	r8, r3
    331a:	d201      	bcs.n	3320 <__sprint_r+0x98>
    331c:	4698      	mov	r8, r3
    331e:	1c1a      	adds	r2, r3, #0
    3320:	9b01      	ldr	r3, [sp, #4]
    3322:	4219      	tst	r1, r3
    3324:	d01b      	beq.n	335e <__sprint_r+0xd6>
    3326:	9803      	ldr	r0, [sp, #12]
    3328:	1c11      	adds	r1, r2, #0
    332a:	f002 fbab 	bl	5a84 <_malloc_r>
    332e:	1c04      	adds	r4, r0, #0
    3330:	2800      	cmp	r0, #0
    3332:	d01f      	beq.n	3374 <__sprint_r+0xec>
    3334:	6929      	ldr	r1, [r5, #16]
    3336:	4652      	mov	r2, sl
    3338:	f7ff fe72 	bl	3020 <memcpy>
    333c:	89ab      	ldrh	r3, [r5, #12]
    333e:	491c      	ldr	r1, [pc, #112]	(33b0 <__sprint_r+0x128>)
    3340:	2280      	movs	r2, #128
    3342:	400b      	ands	r3, r1
    3344:	4313      	orrs	r3, r2
    3346:	81ab      	strh	r3, [r5, #12]
    3348:	4651      	mov	r1, sl
    334a:	4643      	mov	r3, r8
    334c:	1862      	adds	r2, r4, r1
    334e:	616b      	str	r3, [r5, #20]
    3350:	1a5b      	subs	r3, r3, r1
    3352:	612c      	str	r4, [r5, #16]
    3354:	602a      	str	r2, [r5, #0]
    3356:	1c34      	adds	r4, r6, #0
    3358:	60ab      	str	r3, [r5, #8]
    335a:	1c10      	adds	r0, r2, #0
    335c:	e7b1      	b.n	32c2 <__sprint_r+0x3a>
    335e:	1c21      	adds	r1, r4, #0
    3360:	9803      	ldr	r0, [sp, #12]
    3362:	f003 fb99 	bl	6a98 <_realloc_r>
    3366:	1c04      	adds	r4, r0, #0
    3368:	2800      	cmp	r0, #0
    336a:	d1ed      	bne.n	3348 <__sprint_r+0xc0>
    336c:	6929      	ldr	r1, [r5, #16]
    336e:	9803      	ldr	r0, [sp, #12]
    3370:	f002 fa7c 	bl	586c <_free_r>
    3374:	9803      	ldr	r0, [sp, #12]
    3376:	230c      	movs	r3, #12
    3378:	6003      	str	r3, [r0, #0]
    337a:	89ab      	ldrh	r3, [r5, #12]
    337c:	2240      	movs	r2, #64
    337e:	4313      	orrs	r3, r2
    3380:	4648      	mov	r0, r9
    3382:	81ab      	strh	r3, [r5, #12]
    3384:	2300      	movs	r3, #0
    3386:	6083      	str	r3, [r0, #8]
    3388:	6043      	str	r3, [r0, #4]
    338a:	2001      	movs	r0, #1
    338c:	4240      	negs	r0, r0
    338e:	e001      	b.n	3394 <__sprint_r+0x10c>
    3390:	6053      	str	r3, [r2, #4]
    3392:	2000      	movs	r0, #0
    3394:	b005      	add	sp, #20
    3396:	bc3c      	pop	{r2, r3, r4, r5}
    3398:	4690      	mov	r8, r2
    339a:	4699      	mov	r9, r3
    339c:	46a2      	mov	sl, r4
    339e:	46ab      	mov	fp, r5
    33a0:	bcf0      	pop	{r4, r5, r6, r7}
    33a2:	bc02      	pop	{r1}
    33a4:	4708      	bx	r1
    33a6:	464a      	mov	r2, r9
    33a8:	6093      	str	r3, [r2, #8]
    33aa:	6053      	str	r3, [r2, #4]
    33ac:	2000      	movs	r0, #0
    33ae:	e7f1      	b.n	3394 <__sprint_r+0x10c>
    33b0:	fffffb7f 	.word	0xfffffb7f

000033b4 <_svfprintf_r>:
    33b4:	b5f0      	push	{r4, r5, r6, r7, lr}
    33b6:	465f      	mov	r7, fp
    33b8:	4656      	mov	r6, sl
    33ba:	464d      	mov	r5, r9
    33bc:	4644      	mov	r4, r8
    33be:	b4f0      	push	{r4, r5, r6, r7}
    33c0:	b0c5      	sub	sp, #276
    33c2:	9108      	str	r1, [sp, #32]
    33c4:	4698      	mov	r8, r3
    33c6:	9009      	str	r0, [sp, #36]
    33c8:	1c14      	adds	r4, r2, #0
    33ca:	f002 fb1f 	bl	5a0c <_localeconv_r>
    33ce:	6800      	ldr	r0, [r0, #0]
    33d0:	9908      	ldr	r1, [sp, #32]
    33d2:	9010      	str	r0, [sp, #64]
    33d4:	898b      	ldrh	r3, [r1, #12]
    33d6:	061a      	lsls	r2, r3, #24
    33d8:	d504      	bpl.n	33e4 <_svfprintf_r+0x30>
    33da:	690b      	ldr	r3, [r1, #16]
    33dc:	2b00      	cmp	r3, #0
    33de:	d101      	bne.n	33e4 <_svfprintf_r+0x30>
    33e0:	f001 f825 	bl	442e <_svfprintf_r+0x107a>
    33e4:	4abd      	ldr	r2, [pc, #756]	(36dc <_svfprintf_r+0x328>)
    33e6:	49bc      	ldr	r1, [pc, #752]	(36d8 <_svfprintf_r+0x324>)
    33e8:	ab1f      	add	r3, sp, #124
    33ea:	911a      	str	r1, [sp, #104]
    33ec:	921b      	str	r2, [sp, #108]
    33ee:	4abc      	ldr	r2, [pc, #752]	(36e0 <_svfprintf_r+0x32c>)
    33f0:	af39      	add	r7, sp, #228
    33f2:	9339      	str	r3, [sp, #228]
    33f4:	2300      	movs	r3, #0
    33f6:	60bb      	str	r3, [r7, #8]
    33f8:	607b      	str	r3, [r7, #4]
    33fa:	930e      	str	r3, [sp, #56]
    33fc:	9312      	str	r3, [sp, #72]
    33fe:	9319      	str	r3, [sp, #100]
    3400:	9313      	str	r3, [sp, #76]
    3402:	9207      	str	r2, [sp, #28]
    3404:	46a3      	mov	fp, r4
    3406:	ad1f      	add	r5, sp, #124
    3408:	465c      	mov	r4, fp
    340a:	7823      	ldrb	r3, [r4, #0]
    340c:	2b00      	cmp	r3, #0
    340e:	d01a      	beq.n	3446 <_svfprintf_r+0x92>
    3410:	2b25      	cmp	r3, #37
    3412:	d018      	beq.n	3446 <_svfprintf_r+0x92>
    3414:	3401      	adds	r4, #1
    3416:	7823      	ldrb	r3, [r4, #0]
    3418:	2b00      	cmp	r3, #0
    341a:	d142      	bne.n	34a2 <_svfprintf_r+0xee>
    341c:	4659      	mov	r1, fp
    341e:	1a66      	subs	r6, r4, r1
    3420:	2e00      	cmp	r6, #0
    3422:	d00e      	beq.n	3442 <_svfprintf_r+0x8e>
    3424:	606e      	str	r6, [r5, #4]
    3426:	68bb      	ldr	r3, [r7, #8]
    3428:	18f3      	adds	r3, r6, r3
    342a:	60bb      	str	r3, [r7, #8]
    342c:	687b      	ldr	r3, [r7, #4]
    342e:	3301      	adds	r3, #1
    3430:	6029      	str	r1, [r5, #0]
    3432:	607b      	str	r3, [r7, #4]
    3434:	2b07      	cmp	r3, #7
    3436:	dd00      	ble.n	343a <_svfprintf_r+0x86>
    3438:	e1e1      	b.n	37fe <_svfprintf_r+0x44a>
    343a:	3508      	adds	r5, #8
    343c:	9b0e      	ldr	r3, [sp, #56]
    343e:	199b      	adds	r3, r3, r6
    3440:	930e      	str	r3, [sp, #56]
    3442:	7823      	ldrb	r3, [r4, #0]
    3444:	46a3      	mov	fp, r4
    3446:	2b00      	cmp	r3, #0
    3448:	d100      	bne.n	344c <_svfprintf_r+0x98>
    344a:	e1e1      	b.n	3810 <_svfprintf_r+0x45c>
    344c:	49a5      	ldr	r1, [pc, #660]	(36e4 <_svfprintf_r+0x330>)
    344e:	2401      	movs	r4, #1
    3450:	2200      	movs	r2, #0
    3452:	4469      	add	r1, sp
    3454:	700a      	strb	r2, [r1, #0]
    3456:	44a3      	add	fp, r4
    3458:	4641      	mov	r1, r8
    345a:	465c      	mov	r4, fp
    345c:	7823      	ldrb	r3, [r4, #0]
    345e:	2201      	movs	r2, #1
    3460:	911d      	str	r1, [sp, #116]
    3462:	2100      	movs	r1, #0
    3464:	4254      	negs	r4, r2
    3466:	910d      	str	r1, [sp, #52]
    3468:	910f      	str	r1, [sp, #60]
    346a:	46a0      	mov	r8, r4
    346c:	2020      	movs	r0, #32
    346e:	2410      	movs	r4, #16
    3470:	2640      	movs	r6, #64
    3472:	2201      	movs	r2, #1
    3474:	930b      	str	r3, [sp, #44]
    3476:	4493      	add	fp, r2
    3478:	9b0b      	ldr	r3, [sp, #44]
    347a:	3b20      	subs	r3, #32
    347c:	2b58      	cmp	r3, #88
    347e:	d913      	bls.n	34a8 <_svfprintf_r+0xf4>
    3480:	990b      	ldr	r1, [sp, #44]
    3482:	2900      	cmp	r1, #0
    3484:	d100      	bne.n	3488 <_svfprintf_r+0xd4>
    3486:	e1c3      	b.n	3810 <_svfprintf_r+0x45c>
    3488:	4c96      	ldr	r4, [pc, #600]	(36e4 <_svfprintf_r+0x330>)
    348a:	ab2f      	add	r3, sp, #188
    348c:	7019      	strb	r1, [r3, #0]
    348e:	2201      	movs	r2, #1
    3490:	2100      	movs	r1, #0
    3492:	446c      	add	r4, sp
    3494:	7021      	strb	r1, [r4, #0]
    3496:	930c      	str	r3, [sp, #48]
    3498:	9218      	str	r2, [sp, #96]
    349a:	4692      	mov	sl, r2
    349c:	2400      	movs	r4, #0
    349e:	9417      	str	r4, [sp, #92]
    34a0:	e0a0      	b.n	35e4 <_svfprintf_r+0x230>
    34a2:	2b25      	cmp	r3, #37
    34a4:	d1b6      	bne.n	3414 <_svfprintf_r+0x60>
    34a6:	e7b9      	b.n	341c <_svfprintf_r+0x68>
    34a8:	9907      	ldr	r1, [sp, #28]
    34aa:	009b      	lsls	r3, r3, #2
    34ac:	58cb      	ldr	r3, [r1, r3]
    34ae:	469f      	mov	pc, r3
    34b0:	9c0d      	ldr	r4, [sp, #52]
    34b2:	2310      	movs	r3, #16
    34b4:	431c      	orrs	r4, r3
    34b6:	940d      	str	r4, [sp, #52]
    34b8:	990d      	ldr	r1, [sp, #52]
    34ba:	0689      	lsls	r1, r1, #26
    34bc:	d500      	bpl.n	34c0 <_svfprintf_r+0x10c>
    34be:	e1d8      	b.n	3872 <_svfprintf_r+0x4be>
    34c0:	9a0d      	ldr	r2, [sp, #52]
    34c2:	06d2      	lsls	r2, r2, #27
    34c4:	d401      	bmi.n	34ca <_svfprintf_r+0x116>
    34c6:	f000 fde8 	bl	409a <_svfprintf_r+0xce6>
    34ca:	9c1d      	ldr	r4, [sp, #116]
    34cc:	9b1d      	ldr	r3, [sp, #116]
    34ce:	6824      	ldr	r4, [r4, #0]
    34d0:	4699      	mov	r9, r3
    34d2:	2100      	movs	r1, #0
    34d4:	2304      	movs	r3, #4
    34d6:	4499      	add	r9, r3
    34d8:	9414      	str	r4, [sp, #80]
    34da:	9115      	str	r1, [sp, #84]
    34dc:	2201      	movs	r2, #1
    34de:	e016      	b.n	350e <_svfprintf_r+0x15a>
    34e0:	9a0d      	ldr	r2, [sp, #52]
    34e2:	2310      	movs	r3, #16
    34e4:	431a      	orrs	r2, r3
    34e6:	920d      	str	r2, [sp, #52]
    34e8:	9b0d      	ldr	r3, [sp, #52]
    34ea:	069b      	lsls	r3, r3, #26
    34ec:	d500      	bpl.n	34f0 <_svfprintf_r+0x13c>
    34ee:	e1b3      	b.n	3858 <_svfprintf_r+0x4a4>
    34f0:	9a0d      	ldr	r2, [sp, #52]
    34f2:	06d2      	lsls	r2, r2, #27
    34f4:	d401      	bmi.n	34fa <_svfprintf_r+0x146>
    34f6:	f000 fdb4 	bl	4062 <_svfprintf_r+0xcae>
    34fa:	9c1d      	ldr	r4, [sp, #116]
    34fc:	9b1d      	ldr	r3, [sp, #116]
    34fe:	6824      	ldr	r4, [r4, #0]
    3500:	2100      	movs	r1, #0
    3502:	4699      	mov	r9, r3
    3504:	9414      	str	r4, [sp, #80]
    3506:	2304      	movs	r3, #4
    3508:	9115      	str	r1, [sp, #84]
    350a:	4499      	add	r9, r3
    350c:	2200      	movs	r2, #0
    350e:	4b75      	ldr	r3, [pc, #468]	(36e4 <_svfprintf_r+0x330>)
    3510:	2400      	movs	r4, #0
    3512:	446b      	add	r3, sp
    3514:	701c      	strb	r4, [r3, #0]
    3516:	e01a      	b.n	354e <_svfprintf_r+0x19a>
    3518:	990d      	ldr	r1, [sp, #52]
    351a:	2310      	movs	r3, #16
    351c:	4319      	orrs	r1, r3
    351e:	910d      	str	r1, [sp, #52]
    3520:	9a0d      	ldr	r2, [sp, #52]
    3522:	0692      	lsls	r2, r2, #26
    3524:	d500      	bpl.n	3528 <_svfprintf_r+0x174>
    3526:	e18b      	b.n	3840 <_svfprintf_r+0x48c>
    3528:	9a0d      	ldr	r2, [sp, #52]
    352a:	06d2      	lsls	r2, r2, #27
    352c:	d401      	bmi.n	3532 <_svfprintf_r+0x17e>
    352e:	f000 fdc4 	bl	40ba <_svfprintf_r+0xd06>
    3532:	9b1d      	ldr	r3, [sp, #116]
    3534:	4699      	mov	r9, r3
    3536:	2304      	movs	r3, #4
    3538:	4499      	add	r9, r3
    353a:	9c1d      	ldr	r4, [sp, #116]
    353c:	6823      	ldr	r3, [r4, #0]
    353e:	9314      	str	r3, [sp, #80]
    3540:	17db      	asrs	r3, r3, #31
    3542:	9315      	str	r3, [sp, #84]
    3544:	9915      	ldr	r1, [sp, #84]
    3546:	2900      	cmp	r1, #0
    3548:	da00      	bge.n	354c <_svfprintf_r+0x198>
    354a:	e30a      	b.n	3b62 <_svfprintf_r+0x7ae>
    354c:	2201      	movs	r2, #1
    354e:	4641      	mov	r1, r8
    3550:	2900      	cmp	r1, #0
    3552:	db0b      	blt.n	356c <_svfprintf_r+0x1b8>
    3554:	9c0d      	ldr	r4, [sp, #52]
    3556:	2380      	movs	r3, #128
    3558:	439c      	bics	r4, r3
    355a:	9914      	ldr	r1, [sp, #80]
    355c:	9b15      	ldr	r3, [sp, #84]
    355e:	940d      	str	r4, [sp, #52]
    3560:	4319      	orrs	r1, r3
    3562:	d103      	bne.n	356c <_svfprintf_r+0x1b8>
    3564:	4644      	mov	r4, r8
    3566:	2c00      	cmp	r4, #0
    3568:	d100      	bne.n	356c <_svfprintf_r+0x1b8>
    356a:	e35e      	b.n	3c2a <_svfprintf_r+0x876>
    356c:	2a01      	cmp	r2, #1
    356e:	d101      	bne.n	3574 <_svfprintf_r+0x1c0>
    3570:	f000 fca7 	bl	3ec2 <_svfprintf_r+0xb0e>
    3574:	2a00      	cmp	r2, #0
    3576:	d001      	beq.n	357c <_svfprintf_r+0x1c8>
    3578:	f000 fc34 	bl	3de4 <_svfprintf_r+0xa30>
    357c:	2307      	movs	r3, #7
    357e:	970c      	str	r7, [sp, #48]
    3580:	469c      	mov	ip, r3
    3582:	9914      	ldr	r1, [sp, #80]
    3584:	4663      	mov	r3, ip
    3586:	9c0c      	ldr	r4, [sp, #48]
    3588:	400b      	ands	r3, r1
    358a:	1c1e      	adds	r6, r3, #0
    358c:	3c01      	subs	r4, #1
    358e:	3630      	adds	r6, #48
    3590:	940c      	str	r4, [sp, #48]
    3592:	7026      	strb	r6, [r4, #0]
    3594:	9a15      	ldr	r2, [sp, #84]
    3596:	9c14      	ldr	r4, [sp, #80]
    3598:	0750      	lsls	r0, r2, #29
    359a:	08e3      	lsrs	r3, r4, #3
    359c:	1c02      	adds	r2, r0, #0
    359e:	431a      	orrs	r2, r3
    35a0:	9b15      	ldr	r3, [sp, #84]
    35a2:	08d9      	lsrs	r1, r3, #3
    35a4:	1c0c      	adds	r4, r1, #0
    35a6:	1c13      	adds	r3, r2, #0
    35a8:	9314      	str	r3, [sp, #80]
    35aa:	9415      	str	r4, [sp, #84]
    35ac:	430b      	orrs	r3, r1
    35ae:	d1e8      	bne.n	3582 <_svfprintf_r+0x1ce>
    35b0:	9c0d      	ldr	r4, [sp, #52]
    35b2:	07e4      	lsls	r4, r4, #31
    35b4:	d501      	bpl.n	35ba <_svfprintf_r+0x206>
    35b6:	f000 fd25 	bl	4004 <_svfprintf_r+0xc50>
    35ba:	990c      	ldr	r1, [sp, #48]
    35bc:	1a79      	subs	r1, r7, r1
    35be:	468a      	mov	sl, r1
    35c0:	4651      	mov	r1, sl
    35c2:	9118      	str	r1, [sp, #96]
    35c4:	45c2      	cmp	sl, r8
    35c6:	da01      	bge.n	35cc <_svfprintf_r+0x218>
    35c8:	4641      	mov	r1, r8
    35ca:	9118      	str	r1, [sp, #96]
    35cc:	4641      	mov	r1, r8
    35ce:	9117      	str	r1, [sp, #92]
    35d0:	4649      	mov	r1, r9
    35d2:	911d      	str	r1, [sp, #116]
    35d4:	4c43      	ldr	r4, [pc, #268]	(36e4 <_svfprintf_r+0x330>)
    35d6:	446c      	add	r4, sp
    35d8:	7823      	ldrb	r3, [r4, #0]
    35da:	2b00      	cmp	r3, #0
    35dc:	d002      	beq.n	35e4 <_svfprintf_r+0x230>
    35de:	9918      	ldr	r1, [sp, #96]
    35e0:	3101      	adds	r1, #1
    35e2:	9118      	str	r1, [sp, #96]
    35e4:	9a0d      	ldr	r2, [sp, #52]
    35e6:	2302      	movs	r3, #2
    35e8:	401a      	ands	r2, r3
    35ea:	4691      	mov	r9, r2
    35ec:	d002      	beq.n	35f4 <_svfprintf_r+0x240>
    35ee:	9b18      	ldr	r3, [sp, #96]
    35f0:	3302      	adds	r3, #2
    35f2:	9318      	str	r3, [sp, #96]
    35f4:	9c0d      	ldr	r4, [sp, #52]
    35f6:	2384      	movs	r3, #132
    35f8:	401c      	ands	r4, r3
    35fa:	940a      	str	r4, [sp, #40]
    35fc:	d134      	bne.n	3668 <_svfprintf_r+0x2b4>
    35fe:	990f      	ldr	r1, [sp, #60]
    3600:	9a18      	ldr	r2, [sp, #96]
    3602:	1a8c      	subs	r4, r1, r2
    3604:	2c00      	cmp	r4, #0
    3606:	dd2f      	ble.n	3668 <_svfprintf_r+0x2b4>
    3608:	2c10      	cmp	r4, #16
    360a:	dc01      	bgt.n	3610 <_svfprintf_r+0x25c>
    360c:	f000 ff88 	bl	4520 <_svfprintf_r+0x116c>
    3610:	2310      	movs	r3, #16
    3612:	4e35      	ldr	r6, [pc, #212]	(36e8 <_svfprintf_r+0x334>)
    3614:	4698      	mov	r8, r3
    3616:	e003      	b.n	3620 <_svfprintf_r+0x26c>
    3618:	3c10      	subs	r4, #16
    361a:	3508      	adds	r5, #8
    361c:	2c10      	cmp	r4, #16
    361e:	dd16      	ble.n	364e <_svfprintf_r+0x29a>
    3620:	4641      	mov	r1, r8
    3622:	6069      	str	r1, [r5, #4]
    3624:	68bb      	ldr	r3, [r7, #8]
    3626:	3310      	adds	r3, #16
    3628:	60bb      	str	r3, [r7, #8]
    362a:	687b      	ldr	r3, [r7, #4]
    362c:	3301      	adds	r3, #1
    362e:	602e      	str	r6, [r5, #0]
    3630:	607b      	str	r3, [r7, #4]
    3632:	2b07      	cmp	r3, #7
    3634:	ddf0      	ble.n	3618 <_svfprintf_r+0x264>
    3636:	9809      	ldr	r0, [sp, #36]
    3638:	9908      	ldr	r1, [sp, #32]
    363a:	1c3a      	adds	r2, r7, #0
    363c:	f7ff fe24 	bl	3288 <__sprint_r>
    3640:	2800      	cmp	r0, #0
    3642:	d000      	beq.n	3646 <_svfprintf_r+0x292>
    3644:	e0eb      	b.n	381e <_svfprintf_r+0x46a>
    3646:	3c10      	subs	r4, #16
    3648:	ad1f      	add	r5, sp, #124
    364a:	2c10      	cmp	r4, #16
    364c:	dce8      	bgt.n	3620 <_svfprintf_r+0x26c>
    364e:	606c      	str	r4, [r5, #4]
    3650:	68bb      	ldr	r3, [r7, #8]
    3652:	18e3      	adds	r3, r4, r3
    3654:	60bb      	str	r3, [r7, #8]
    3656:	687b      	ldr	r3, [r7, #4]
    3658:	3301      	adds	r3, #1
    365a:	602e      	str	r6, [r5, #0]
    365c:	607b      	str	r3, [r7, #4]
    365e:	2b07      	cmp	r3, #7
    3660:	dd01      	ble.n	3666 <_svfprintf_r+0x2b2>
    3662:	f000 fc55 	bl	3f10 <_svfprintf_r+0xb5c>
    3666:	3508      	adds	r5, #8
    3668:	4a1e      	ldr	r2, [pc, #120]	(36e4 <_svfprintf_r+0x330>)
    366a:	446a      	add	r2, sp
    366c:	7813      	ldrb	r3, [r2, #0]
    366e:	2b00      	cmp	r3, #0
    3670:	d00c      	beq.n	368c <_svfprintf_r+0x2d8>
    3672:	2301      	movs	r3, #1
    3674:	606b      	str	r3, [r5, #4]
    3676:	68bb      	ldr	r3, [r7, #8]
    3678:	3301      	adds	r3, #1
    367a:	60bb      	str	r3, [r7, #8]
    367c:	687b      	ldr	r3, [r7, #4]
    367e:	3301      	adds	r3, #1
    3680:	602a      	str	r2, [r5, #0]
    3682:	607b      	str	r3, [r7, #4]
    3684:	2b07      	cmp	r3, #7
    3686:	dd00      	ble.n	368a <_svfprintf_r+0x2d6>
    3688:	e38b      	b.n	3da2 <_svfprintf_r+0x9ee>
    368a:	3508      	adds	r5, #8
    368c:	464b      	mov	r3, r9
    368e:	2b00      	cmp	r3, #0
    3690:	d00e      	beq.n	36b0 <_svfprintf_r+0x2fc>
    3692:	4b16      	ldr	r3, [pc, #88]	(36ec <_svfprintf_r+0x338>)
    3694:	446b      	add	r3, sp
    3696:	602b      	str	r3, [r5, #0]
    3698:	2302      	movs	r3, #2
    369a:	606b      	str	r3, [r5, #4]
    369c:	68bb      	ldr	r3, [r7, #8]
    369e:	3302      	adds	r3, #2
    36a0:	60bb      	str	r3, [r7, #8]
    36a2:	687b      	ldr	r3, [r7, #4]
    36a4:	3301      	adds	r3, #1
    36a6:	607b      	str	r3, [r7, #4]
    36a8:	2b07      	cmp	r3, #7
    36aa:	dd00      	ble.n	36ae <_svfprintf_r+0x2fa>
    36ac:	e383      	b.n	3db6 <_svfprintf_r+0xa02>
    36ae:	3508      	adds	r5, #8
    36b0:	9c0a      	ldr	r4, [sp, #40]
    36b2:	2c80      	cmp	r4, #128
    36b4:	d100      	bne.n	36b8 <_svfprintf_r+0x304>
    36b6:	e2c5      	b.n	3c44 <_svfprintf_r+0x890>
    36b8:	9917      	ldr	r1, [sp, #92]
    36ba:	4652      	mov	r2, sl
    36bc:	1a8c      	subs	r4, r1, r2
    36be:	2c00      	cmp	r4, #0
    36c0:	dd3f      	ble.n	3742 <_svfprintf_r+0x38e>
    36c2:	2c10      	cmp	r4, #16
    36c4:	dc01      	bgt.n	36ca <_svfprintf_r+0x316>
    36c6:	f000 fd60 	bl	418a <_svfprintf_r+0xdd6>
    36ca:	4e07      	ldr	r6, [pc, #28]	(36e8 <_svfprintf_r+0x334>)
    36cc:	2310      	movs	r3, #16
    36ce:	199b      	adds	r3, r3, r6
    36d0:	2110      	movs	r1, #16
    36d2:	4699      	mov	r9, r3
    36d4:	4688      	mov	r8, r1
    36d6:	e00f      	b.n	36f8 <_svfprintf_r+0x344>
	...
    36e0:	00008b20 	.word	0x00008b20
    36e4:	0000010f 	.word	0x0000010f
    36e8:	00008c84 	.word	0x00008c84
    36ec:	0000010d 	.word	0x0000010d
    36f0:	3c10      	subs	r4, #16
    36f2:	3508      	adds	r5, #8
    36f4:	2c10      	cmp	r4, #16
    36f6:	dd16      	ble.n	3726 <_svfprintf_r+0x372>
    36f8:	4643      	mov	r3, r8
    36fa:	606b      	str	r3, [r5, #4]
    36fc:	68bb      	ldr	r3, [r7, #8]
    36fe:	3310      	adds	r3, #16
    3700:	60bb      	str	r3, [r7, #8]
    3702:	687b      	ldr	r3, [r7, #4]
    3704:	464a      	mov	r2, r9
    3706:	3301      	adds	r3, #1
    3708:	602a      	str	r2, [r5, #0]
    370a:	607b      	str	r3, [r7, #4]
    370c:	2b07      	cmp	r3, #7
    370e:	ddef      	ble.n	36f0 <_svfprintf_r+0x33c>
    3710:	9809      	ldr	r0, [sp, #36]
    3712:	9908      	ldr	r1, [sp, #32]
    3714:	1c3a      	adds	r2, r7, #0
    3716:	f7ff fdb7 	bl	3288 <__sprint_r>
    371a:	2800      	cmp	r0, #0
    371c:	d17f      	bne.n	381e <_svfprintf_r+0x46a>
    371e:	3c10      	subs	r4, #16
    3720:	ad1f      	add	r5, sp, #124
    3722:	2c10      	cmp	r4, #16
    3724:	dce8      	bgt.n	36f8 <_svfprintf_r+0x344>
    3726:	1c33      	adds	r3, r6, #0
    3728:	606c      	str	r4, [r5, #4]
    372a:	3310      	adds	r3, #16
    372c:	602b      	str	r3, [r5, #0]
    372e:	68bb      	ldr	r3, [r7, #8]
    3730:	18e3      	adds	r3, r4, r3
    3732:	60bb      	str	r3, [r7, #8]
    3734:	687b      	ldr	r3, [r7, #4]
    3736:	3301      	adds	r3, #1
    3738:	607b      	str	r3, [r7, #4]
    373a:	2b07      	cmp	r3, #7
    373c:	dd00      	ble.n	3740 <_svfprintf_r+0x38c>
    373e:	e326      	b.n	3d8e <_svfprintf_r+0x9da>
    3740:	3508      	adds	r5, #8
    3742:	9c0d      	ldr	r4, [sp, #52]
    3744:	05e4      	lsls	r4, r4, #23
    3746:	d500      	bpl.n	374a <_svfprintf_r+0x396>
    3748:	e217      	b.n	3b7a <_svfprintf_r+0x7c6>
    374a:	4652      	mov	r2, sl
    374c:	990c      	ldr	r1, [sp, #48]
    374e:	606a      	str	r2, [r5, #4]
    3750:	68bb      	ldr	r3, [r7, #8]
    3752:	6029      	str	r1, [r5, #0]
    3754:	4453      	add	r3, sl
    3756:	60bb      	str	r3, [r7, #8]
    3758:	687b      	ldr	r3, [r7, #4]
    375a:	3301      	adds	r3, #1
    375c:	607b      	str	r3, [r7, #4]
    375e:	2b07      	cmp	r3, #7
    3760:	dd00      	ble.n	3764 <_svfprintf_r+0x3b0>
    3762:	e2bd      	b.n	3ce0 <_svfprintf_r+0x92c>
    3764:	1c2a      	adds	r2, r5, #0
    3766:	3208      	adds	r2, #8
    3768:	990d      	ldr	r1, [sp, #52]
    376a:	0749      	lsls	r1, r1, #29
    376c:	d535      	bpl.n	37da <_svfprintf_r+0x426>
    376e:	9b0f      	ldr	r3, [sp, #60]
    3770:	9918      	ldr	r1, [sp, #96]
    3772:	1a5c      	subs	r4, r3, r1
    3774:	2c00      	cmp	r4, #0
    3776:	dd30      	ble.n	37da <_svfprintf_r+0x426>
    3778:	2c10      	cmp	r4, #16
    377a:	dc01      	bgt.n	3780 <_svfprintf_r+0x3cc>
    377c:	f000 fee7 	bl	454e <_svfprintf_r+0x119a>
    3780:	4ebf      	ldr	r6, [pc, #764]	(3a80 <_svfprintf_r+0x6cc>)
    3782:	2510      	movs	r5, #16
    3784:	e003      	b.n	378e <_svfprintf_r+0x3da>
    3786:	3c10      	subs	r4, #16
    3788:	3208      	adds	r2, #8
    378a:	2c10      	cmp	r4, #16
    378c:	dd14      	ble.n	37b8 <_svfprintf_r+0x404>
    378e:	6055      	str	r5, [r2, #4]
    3790:	68bb      	ldr	r3, [r7, #8]
    3792:	3310      	adds	r3, #16
    3794:	60bb      	str	r3, [r7, #8]
    3796:	687b      	ldr	r3, [r7, #4]
    3798:	3301      	adds	r3, #1
    379a:	6016      	str	r6, [r2, #0]
    379c:	607b      	str	r3, [r7, #4]
    379e:	2b07      	cmp	r3, #7
    37a0:	ddf1      	ble.n	3786 <_svfprintf_r+0x3d2>
    37a2:	9809      	ldr	r0, [sp, #36]
    37a4:	9908      	ldr	r1, [sp, #32]
    37a6:	1c3a      	adds	r2, r7, #0
    37a8:	f7ff fd6e 	bl	3288 <__sprint_r>
    37ac:	2800      	cmp	r0, #0
    37ae:	d136      	bne.n	381e <_svfprintf_r+0x46a>
    37b0:	3c10      	subs	r4, #16
    37b2:	aa1f      	add	r2, sp, #124
    37b4:	2c10      	cmp	r4, #16
    37b6:	dcea      	bgt.n	378e <_svfprintf_r+0x3da>
    37b8:	6054      	str	r4, [r2, #4]
    37ba:	68bb      	ldr	r3, [r7, #8]
    37bc:	18e3      	adds	r3, r4, r3
    37be:	60bb      	str	r3, [r7, #8]
    37c0:	687b      	ldr	r3, [r7, #4]
    37c2:	3301      	adds	r3, #1
    37c4:	6016      	str	r6, [r2, #0]
    37c6:	607b      	str	r3, [r7, #4]
    37c8:	2b07      	cmp	r3, #7
    37ca:	dd06      	ble.n	37da <_svfprintf_r+0x426>
    37cc:	9809      	ldr	r0, [sp, #36]
    37ce:	9908      	ldr	r1, [sp, #32]
    37d0:	1c3a      	adds	r2, r7, #0
    37d2:	f7ff fd59 	bl	3288 <__sprint_r>
    37d6:	2800      	cmp	r0, #0
    37d8:	d121      	bne.n	381e <_svfprintf_r+0x46a>
    37da:	9b18      	ldr	r3, [sp, #96]
    37dc:	9a0f      	ldr	r2, [sp, #60]
    37de:	4293      	cmp	r3, r2
    37e0:	da00      	bge.n	37e4 <_svfprintf_r+0x430>
    37e2:	1c13      	adds	r3, r2, #0
    37e4:	9c0e      	ldr	r4, [sp, #56]
    37e6:	18e4      	adds	r4, r4, r3
    37e8:	68bb      	ldr	r3, [r7, #8]
    37ea:	940e      	str	r4, [sp, #56]
    37ec:	2b00      	cmp	r3, #0
    37ee:	d000      	beq.n	37f2 <_svfprintf_r+0x43e>
    37f0:	e280      	b.n	3cf4 <_svfprintf_r+0x940>
    37f2:	9a1d      	ldr	r2, [sp, #116]
    37f4:	2100      	movs	r1, #0
    37f6:	6079      	str	r1, [r7, #4]
    37f8:	4690      	mov	r8, r2
    37fa:	ad1f      	add	r5, sp, #124
    37fc:	e604      	b.n	3408 <_svfprintf_r+0x54>
    37fe:	9809      	ldr	r0, [sp, #36]
    3800:	9908      	ldr	r1, [sp, #32]
    3802:	1c3a      	adds	r2, r7, #0
    3804:	f7ff fd40 	bl	3288 <__sprint_r>
    3808:	2800      	cmp	r0, #0
    380a:	d108      	bne.n	381e <_svfprintf_r+0x46a>
    380c:	ad1f      	add	r5, sp, #124
    380e:	e615      	b.n	343c <_svfprintf_r+0x88>
    3810:	68bb      	ldr	r3, [r7, #8]
    3812:	2b00      	cmp	r3, #0
    3814:	d001      	beq.n	381a <_svfprintf_r+0x466>
    3816:	f000 fe41 	bl	449c <_svfprintf_r+0x10e8>
    381a:	2300      	movs	r3, #0
    381c:	607b      	str	r3, [r7, #4]
    381e:	9c08      	ldr	r4, [sp, #32]
    3820:	89a3      	ldrh	r3, [r4, #12]
    3822:	0659      	lsls	r1, r3, #25
    3824:	d502      	bpl.n	382c <_svfprintf_r+0x478>
    3826:	2201      	movs	r2, #1
    3828:	4252      	negs	r2, r2
    382a:	920e      	str	r2, [sp, #56]
    382c:	980e      	ldr	r0, [sp, #56]
    382e:	b045      	add	sp, #276
    3830:	bc3c      	pop	{r2, r3, r4, r5}
    3832:	4690      	mov	r8, r2
    3834:	4699      	mov	r9, r3
    3836:	46a2      	mov	sl, r4
    3838:	46ab      	mov	fp, r5
    383a:	bcf0      	pop	{r4, r5, r6, r7}
    383c:	bc02      	pop	{r1}
    383e:	4708      	bx	r1
    3840:	9b1d      	ldr	r3, [sp, #116]
    3842:	2207      	movs	r2, #7
    3844:	3307      	adds	r3, #7
    3846:	4393      	bics	r3, r2
    3848:	2408      	movs	r4, #8
    384a:	6819      	ldr	r1, [r3, #0]
    384c:	685a      	ldr	r2, [r3, #4]
    384e:	18e4      	adds	r4, r4, r3
    3850:	46a1      	mov	r9, r4
    3852:	9114      	str	r1, [sp, #80]
    3854:	9215      	str	r2, [sp, #84]
    3856:	e675      	b.n	3544 <_svfprintf_r+0x190>
    3858:	9b1d      	ldr	r3, [sp, #116]
    385a:	2207      	movs	r2, #7
    385c:	3307      	adds	r3, #7
    385e:	4393      	bics	r3, r2
    3860:	6819      	ldr	r1, [r3, #0]
    3862:	685a      	ldr	r2, [r3, #4]
    3864:	2408      	movs	r4, #8
    3866:	18e4      	adds	r4, r4, r3
    3868:	9114      	str	r1, [sp, #80]
    386a:	9215      	str	r2, [sp, #84]
    386c:	46a1      	mov	r9, r4
    386e:	2200      	movs	r2, #0
    3870:	e64d      	b.n	350e <_svfprintf_r+0x15a>
    3872:	9b1d      	ldr	r3, [sp, #116]
    3874:	2207      	movs	r2, #7
    3876:	3307      	adds	r3, #7
    3878:	4393      	bics	r3, r2
    387a:	2208      	movs	r2, #8
    387c:	18d2      	adds	r2, r2, r3
    387e:	4691      	mov	r9, r2
    3880:	6819      	ldr	r1, [r3, #0]
    3882:	685a      	ldr	r2, [r3, #4]
    3884:	9114      	str	r1, [sp, #80]
    3886:	9215      	str	r2, [sp, #84]
    3888:	2201      	movs	r2, #1
    388a:	e640      	b.n	350e <_svfprintf_r+0x15a>
    388c:	497d      	ldr	r1, [pc, #500]	(3a84 <_svfprintf_r+0x6d0>)
    388e:	4469      	add	r1, sp
    3890:	780b      	ldrb	r3, [r1, #0]
    3892:	2b00      	cmp	r3, #0
    3894:	d000      	beq.n	3898 <_svfprintf_r+0x4e4>
    3896:	e3c2      	b.n	401e <_svfprintf_r+0xc6a>
    3898:	7008      	strb	r0, [r1, #0]
    389a:	465a      	mov	r2, fp
    389c:	7813      	ldrb	r3, [r2, #0]
    389e:	9a1d      	ldr	r2, [sp, #116]
    38a0:	921d      	str	r2, [sp, #116]
    38a2:	e5e6      	b.n	3472 <_svfprintf_r+0xbe>
    38a4:	2301      	movs	r3, #1
    38a6:	990d      	ldr	r1, [sp, #52]
    38a8:	4319      	orrs	r1, r3
    38aa:	910d      	str	r1, [sp, #52]
    38ac:	465a      	mov	r2, fp
    38ae:	7813      	ldrb	r3, [r2, #0]
    38b0:	9a1d      	ldr	r2, [sp, #116]
    38b2:	921d      	str	r2, [sp, #116]
    38b4:	e5dd      	b.n	3472 <_svfprintf_r+0xbe>
    38b6:	9b1d      	ldr	r3, [sp, #116]
    38b8:	9a1d      	ldr	r2, [sp, #116]
    38ba:	681b      	ldr	r3, [r3, #0]
    38bc:	3204      	adds	r2, #4
    38be:	930f      	str	r3, [sp, #60]
    38c0:	2b00      	cmp	r3, #0
    38c2:	da01      	bge.n	38c8 <_svfprintf_r+0x514>
    38c4:	f000 fd57 	bl	4376 <_svfprintf_r+0xfc2>
    38c8:	4659      	mov	r1, fp
    38ca:	780b      	ldrb	r3, [r1, #0]
    38cc:	921d      	str	r2, [sp, #116]
    38ce:	e5d0      	b.n	3472 <_svfprintf_r+0xbe>
    38d0:	4a6c      	ldr	r2, [pc, #432]	(3a84 <_svfprintf_r+0x6d0>)
    38d2:	232b      	movs	r3, #43
    38d4:	446a      	add	r2, sp
    38d6:	7013      	strb	r3, [r2, #0]
    38d8:	9a1d      	ldr	r2, [sp, #116]
    38da:	4659      	mov	r1, fp
    38dc:	780b      	ldrb	r3, [r1, #0]
    38de:	921d      	str	r2, [sp, #116]
    38e0:	e5c7      	b.n	3472 <_svfprintf_r+0xbe>
    38e2:	9a0d      	ldr	r2, [sp, #52]
    38e4:	2380      	movs	r3, #128
    38e6:	431a      	orrs	r2, r3
    38e8:	920d      	str	r2, [sp, #52]
    38ea:	9a1d      	ldr	r2, [sp, #116]
    38ec:	4659      	mov	r1, fp
    38ee:	780b      	ldrb	r3, [r1, #0]
    38f0:	921d      	str	r2, [sp, #116]
    38f2:	e5be      	b.n	3472 <_svfprintf_r+0xbe>
    38f4:	9a0b      	ldr	r2, [sp, #44]
    38f6:	2100      	movs	r1, #0
    38f8:	3a30      	subs	r2, #48
    38fa:	008b      	lsls	r3, r1, #2
    38fc:	185b      	adds	r3, r3, r1
    38fe:	005b      	lsls	r3, r3, #1
    3900:	18d1      	adds	r1, r2, r3
    3902:	465a      	mov	r2, fp
    3904:	7812      	ldrb	r2, [r2, #0]
    3906:	2301      	movs	r3, #1
    3908:	920b      	str	r2, [sp, #44]
    390a:	3a30      	subs	r2, #48
    390c:	449b      	add	fp, r3
    390e:	2a09      	cmp	r2, #9
    3910:	d9f3      	bls.n	38fa <_svfprintf_r+0x546>
    3912:	910f      	str	r1, [sp, #60]
    3914:	e5b0      	b.n	3478 <_svfprintf_r+0xc4>
    3916:	9b0d      	ldr	r3, [sp, #52]
    3918:	071b      	lsls	r3, r3, #28
    391a:	d400      	bmi.n	391e <_svfprintf_r+0x56a>
    391c:	e3b1      	b.n	4082 <_svfprintf_r+0xcce>
    391e:	9b1d      	ldr	r3, [sp, #116]
    3920:	2207      	movs	r2, #7
    3922:	3307      	adds	r3, #7
    3924:	4393      	bics	r3, r2
    3926:	1c1c      	adds	r4, r3, #0
    3928:	3408      	adds	r4, #8
    392a:	941d      	str	r4, [sp, #116]
    392c:	6819      	ldr	r1, [r3, #0]
    392e:	685a      	ldr	r2, [r3, #4]
    3930:	911a      	str	r1, [sp, #104]
    3932:	921b      	str	r2, [sp, #108]
    3934:	981a      	ldr	r0, [sp, #104]
    3936:	991b      	ldr	r1, [sp, #108]
    3938:	f003 fa50 	bl	6ddc <__isinfd>
    393c:	2800      	cmp	r0, #0
    393e:	d101      	bne.n	3944 <_svfprintf_r+0x590>
    3940:	f000 fc7b 	bl	423a <_svfprintf_r+0xe86>
    3944:	981a      	ldr	r0, [sp, #104]
    3946:	991b      	ldr	r1, [sp, #108]
    3948:	4b4c      	ldr	r3, [pc, #304]	(3a7c <_svfprintf_r+0x6c8>)
    394a:	4a4b      	ldr	r2, [pc, #300]	(3a78 <_svfprintf_r+0x6c4>)
    394c:	f004 e8b4 	blx	7ab8 <__aeabi_dcmplt>
    3950:	2800      	cmp	r0, #0
    3952:	d001      	beq.n	3958 <_svfprintf_r+0x5a4>
    3954:	f000 fdde 	bl	4514 <_svfprintf_r+0x1160>
    3958:	9b0b      	ldr	r3, [sp, #44]
    395a:	2b47      	cmp	r3, #71
    395c:	dc01      	bgt.n	3962 <_svfprintf_r+0x5ae>
    395e:	f000 fc68 	bl	4232 <_svfprintf_r+0xe7e>
    3962:	4c49      	ldr	r4, [pc, #292]	(3a88 <_svfprintf_r+0x6d4>)
    3964:	940c      	str	r4, [sp, #48]
    3966:	9a0d      	ldr	r2, [sp, #52]
    3968:	2380      	movs	r3, #128
    396a:	439a      	bics	r2, r3
    396c:	2403      	movs	r4, #3
    396e:	2300      	movs	r3, #0
    3970:	920d      	str	r2, [sp, #52]
    3972:	9317      	str	r3, [sp, #92]
    3974:	46a2      	mov	sl, r4
    3976:	9418      	str	r4, [sp, #96]
    3978:	e62c      	b.n	35d4 <_svfprintf_r+0x220>
    397a:	2308      	movs	r3, #8
    397c:	e793      	b.n	38a6 <_svfprintf_r+0x4f2>
    397e:	4a43      	ldr	r2, [pc, #268]	(3a8c <_svfprintf_r+0x6d8>)
    3980:	9219      	str	r2, [sp, #100]
    3982:	9a0d      	ldr	r2, [sp, #52]
    3984:	0692      	lsls	r2, r2, #26
    3986:	d543      	bpl.n	3a10 <_svfprintf_r+0x65c>
    3988:	9b1d      	ldr	r3, [sp, #116]
    398a:	2207      	movs	r2, #7
    398c:	3307      	adds	r3, #7
    398e:	4393      	bics	r3, r2
    3990:	6819      	ldr	r1, [r3, #0]
    3992:	685a      	ldr	r2, [r3, #4]
    3994:	2408      	movs	r4, #8
    3996:	9114      	str	r1, [sp, #80]
    3998:	9215      	str	r2, [sp, #84]
    399a:	18e4      	adds	r4, r4, r3
    399c:	46a1      	mov	r9, r4
    399e:	990d      	ldr	r1, [sp, #52]
    39a0:	07c9      	lsls	r1, r1, #31
    39a2:	d50e      	bpl.n	39c2 <_svfprintf_r+0x60e>
    39a4:	9a14      	ldr	r2, [sp, #80]
    39a6:	9b15      	ldr	r3, [sp, #84]
    39a8:	431a      	orrs	r2, r3
    39aa:	d00a      	beq.n	39c2 <_svfprintf_r+0x60e>
    39ac:	4b38      	ldr	r3, [pc, #224]	(3a90 <_svfprintf_r+0x6dc>)
    39ae:	2230      	movs	r2, #48
    39b0:	446b      	add	r3, sp
    39b2:	701a      	strb	r2, [r3, #0]
    39b4:	ac0b      	add	r4, sp, #44
    39b6:	7824      	ldrb	r4, [r4, #0]
    39b8:	705c      	strb	r4, [r3, #1]
    39ba:	990d      	ldr	r1, [sp, #52]
    39bc:	2302      	movs	r3, #2
    39be:	4319      	orrs	r1, r3
    39c0:	910d      	str	r1, [sp, #52]
    39c2:	2202      	movs	r2, #2
    39c4:	e5a3      	b.n	350e <_svfprintf_r+0x15a>
    39c6:	9a1d      	ldr	r2, [sp, #116]
    39c8:	6812      	ldr	r2, [r2, #0]
    39ca:	991d      	ldr	r1, [sp, #116]
    39cc:	9c0d      	ldr	r4, [sp, #52]
    39ce:	9214      	str	r2, [sp, #80]
    39d0:	2300      	movs	r3, #0
    39d2:	4a2f      	ldr	r2, [pc, #188]	(3a90 <_svfprintf_r+0x6dc>)
    39d4:	9315      	str	r3, [sp, #84]
    39d6:	4689      	mov	r9, r1
    39d8:	2302      	movs	r3, #2
    39da:	2104      	movs	r1, #4
    39dc:	446a      	add	r2, sp
    39de:	431c      	orrs	r4, r3
    39e0:	4489      	add	r9, r1
    39e2:	2330      	movs	r3, #48
    39e4:	492b      	ldr	r1, [pc, #172]	(3a94 <_svfprintf_r+0x6e0>)
    39e6:	940d      	str	r4, [sp, #52]
    39e8:	7013      	strb	r3, [r2, #0]
    39ea:	2378      	movs	r3, #120
    39ec:	7053      	strb	r3, [r2, #1]
    39ee:	930b      	str	r3, [sp, #44]
    39f0:	2202      	movs	r2, #2
    39f2:	9119      	str	r1, [sp, #100]
    39f4:	e58b      	b.n	350e <_svfprintf_r+0x15a>
    39f6:	9a0d      	ldr	r2, [sp, #52]
    39f8:	4302      	orrs	r2, r0
    39fa:	920d      	str	r2, [sp, #52]
    39fc:	9a1d      	ldr	r2, [sp, #116]
    39fe:	4659      	mov	r1, fp
    3a00:	780b      	ldrb	r3, [r1, #0]
    3a02:	921d      	str	r2, [sp, #116]
    3a04:	e535      	b.n	3472 <_svfprintf_r+0xbe>
    3a06:	4923      	ldr	r1, [pc, #140]	(3a94 <_svfprintf_r+0x6e0>)
    3a08:	9a0d      	ldr	r2, [sp, #52]
    3a0a:	9119      	str	r1, [sp, #100]
    3a0c:	0692      	lsls	r2, r2, #26
    3a0e:	d4bb      	bmi.n	3988 <_svfprintf_r+0x5d4>
    3a10:	9a0d      	ldr	r2, [sp, #52]
    3a12:	06d2      	lsls	r2, r2, #27
    3a14:	d400      	bmi.n	3a18 <_svfprintf_r+0x664>
    3a16:	e308      	b.n	402a <_svfprintf_r+0xc76>
    3a18:	9c1d      	ldr	r4, [sp, #116]
    3a1a:	9b1d      	ldr	r3, [sp, #116]
    3a1c:	6824      	ldr	r4, [r4, #0]
    3a1e:	4699      	mov	r9, r3
    3a20:	2100      	movs	r1, #0
    3a22:	2304      	movs	r3, #4
    3a24:	4499      	add	r9, r3
    3a26:	9414      	str	r4, [sp, #80]
    3a28:	9115      	str	r1, [sp, #84]
    3a2a:	e7b8      	b.n	399e <_svfprintf_r+0x5ea>
    3a2c:	9b0d      	ldr	r3, [sp, #52]
    3a2e:	4333      	orrs	r3, r6
    3a30:	930d      	str	r3, [sp, #52]
    3a32:	9a1d      	ldr	r2, [sp, #116]
    3a34:	4659      	mov	r1, fp
    3a36:	780b      	ldrb	r3, [r1, #0]
    3a38:	921d      	str	r2, [sp, #116]
    3a3a:	e51a      	b.n	3472 <_svfprintf_r+0xbe>
    3a3c:	465a      	mov	r2, fp
    3a3e:	7813      	ldrb	r3, [r2, #0]
    3a40:	2b6c      	cmp	r3, #108
    3a42:	d101      	bne.n	3a48 <_svfprintf_r+0x694>
    3a44:	f000 fc8c 	bl	4360 <_svfprintf_r+0xfac>
    3a48:	990d      	ldr	r1, [sp, #52]
    3a4a:	9a1d      	ldr	r2, [sp, #116]
    3a4c:	4321      	orrs	r1, r4
    3a4e:	910d      	str	r1, [sp, #52]
    3a50:	921d      	str	r2, [sp, #116]
    3a52:	e50e      	b.n	3472 <_svfprintf_r+0xbe>
    3a54:	9a0d      	ldr	r2, [sp, #52]
    3a56:	0692      	lsls	r2, r2, #26
    3a58:	d400      	bmi.n	3a5c <_svfprintf_r+0x6a8>
    3a5a:	e2f4      	b.n	4046 <_svfprintf_r+0xc92>
    3a5c:	9b1d      	ldr	r3, [sp, #116]
    3a5e:	9c1d      	ldr	r4, [sp, #116]
    3a60:	990e      	ldr	r1, [sp, #56]
    3a62:	4698      	mov	r8, r3
    3a64:	6822      	ldr	r2, [r4, #0]
    3a66:	2304      	movs	r3, #4
    3a68:	4498      	add	r8, r3
    3a6a:	17cb      	asrs	r3, r1, #31
    3a6c:	6011      	str	r1, [r2, #0]
    3a6e:	6053      	str	r3, [r2, #4]
    3a70:	e4ca      	b.n	3408 <_svfprintf_r+0x54>
    3a72:	46c0      	nop			(mov r8, r8)
    3a74:	46c0      	nop			(mov r8, r8)
    3a76:	46c0      	nop			(mov r8, r8)
	...
    3a80:	00008c84 	.word	0x00008c84
    3a84:	0000010f 	.word	0x0000010f
    3a88:	00008cb8 	.word	0x00008cb8
    3a8c:	00008ca4 	.word	0x00008ca4
    3a90:	0000010d 	.word	0x0000010d
    3a94:	00008cc8 	.word	0x00008cc8
    3a98:	4acf      	ldr	r2, [pc, #828]	(3dd8 <_svfprintf_r+0xa24>)
    3a9a:	2400      	movs	r4, #0
    3a9c:	446a      	add	r2, sp
    3a9e:	9b1d      	ldr	r3, [sp, #116]
    3aa0:	7014      	strb	r4, [r2, #0]
    3aa2:	991d      	ldr	r1, [sp, #116]
    3aa4:	681b      	ldr	r3, [r3, #0]
    3aa6:	3104      	adds	r1, #4
    3aa8:	911d      	str	r1, [sp, #116]
    3aaa:	930c      	str	r3, [sp, #48]
    3aac:	2b00      	cmp	r3, #0
    3aae:	d101      	bne.n	3ab4 <_svfprintf_r+0x700>
    3ab0:	f000 fd50 	bl	4554 <_svfprintf_r+0x11a0>
    3ab4:	4641      	mov	r1, r8
    3ab6:	2900      	cmp	r1, #0
    3ab8:	da01      	bge.n	3abe <_svfprintf_r+0x70a>
    3aba:	f000 fc96 	bl	43ea <_svfprintf_r+0x1036>
    3abe:	980c      	ldr	r0, [sp, #48]
    3ac0:	2100      	movs	r1, #0
    3ac2:	4642      	mov	r2, r8
    3ac4:	f002 fa54 	bl	5f70 <memchr>
    3ac8:	2800      	cmp	r0, #0
    3aca:	d101      	bne.n	3ad0 <_svfprintf_r+0x71c>
    3acc:	f000 fd7b 	bl	45c6 <_svfprintf_r+0x1212>
    3ad0:	9a0c      	ldr	r2, [sp, #48]
    3ad2:	1a82      	subs	r2, r0, r2
    3ad4:	4692      	mov	sl, r2
    3ad6:	45c2      	cmp	sl, r8
    3ad8:	dd01      	ble.n	3ade <_svfprintf_r+0x72a>
    3ada:	f000 fc7f 	bl	43dc <_svfprintf_r+0x1028>
    3ade:	9218      	str	r2, [sp, #96]
    3ae0:	2a00      	cmp	r2, #0
    3ae2:	da01      	bge.n	3ae8 <_svfprintf_r+0x734>
    3ae4:	f000 fc8a 	bl	43fc <_svfprintf_r+0x1048>
    3ae8:	2200      	movs	r2, #0
    3aea:	9217      	str	r2, [sp, #92]
    3aec:	e572      	b.n	35d4 <_svfprintf_r+0x220>
    3aee:	9c1d      	ldr	r4, [sp, #116]
    3af0:	49b9      	ldr	r1, [pc, #740]	(3dd8 <_svfprintf_r+0xa24>)
    3af2:	6823      	ldr	r3, [r4, #0]
    3af4:	aa2f      	add	r2, sp, #188
    3af6:	7013      	strb	r3, [r2, #0]
    3af8:	3404      	adds	r4, #4
    3afa:	2300      	movs	r3, #0
    3afc:	4469      	add	r1, sp
    3afe:	700b      	strb	r3, [r1, #0]
    3b00:	941d      	str	r4, [sp, #116]
    3b02:	2401      	movs	r4, #1
    3b04:	920c      	str	r2, [sp, #48]
    3b06:	46a2      	mov	sl, r4
    3b08:	9418      	str	r4, [sp, #96]
    3b0a:	e4c7      	b.n	349c <_svfprintf_r+0xe8>
    3b0c:	9a1d      	ldr	r2, [sp, #116]
    3b0e:	990d      	ldr	r1, [sp, #52]
    3b10:	2304      	movs	r3, #4
    3b12:	4319      	orrs	r1, r3
    3b14:	910d      	str	r1, [sp, #52]
    3b16:	4659      	mov	r1, fp
    3b18:	780b      	ldrb	r3, [r1, #0]
    3b1a:	921d      	str	r2, [sp, #116]
    3b1c:	e4a9      	b.n	3472 <_svfprintf_r+0xbe>
    3b1e:	465a      	mov	r2, fp
    3b20:	7812      	ldrb	r2, [r2, #0]
    3b22:	2301      	movs	r3, #1
    3b24:	920b      	str	r2, [sp, #44]
    3b26:	449b      	add	fp, r3
    3b28:	2a2a      	cmp	r2, #42
    3b2a:	d101      	bne.n	3b30 <_svfprintf_r+0x77c>
    3b2c:	f000 fe1f 	bl	476e <_svfprintf_r+0x13ba>
    3b30:	3a30      	subs	r2, #48
    3b32:	2a09      	cmp	r2, #9
    3b34:	d901      	bls.n	3b3a <_svfprintf_r+0x786>
    3b36:	f000 fd4d 	bl	45d4 <_svfprintf_r+0x1220>
    3b3a:	2100      	movs	r1, #0
    3b3c:	008b      	lsls	r3, r1, #2
    3b3e:	185b      	adds	r3, r3, r1
    3b40:	005b      	lsls	r3, r3, #1
    3b42:	1899      	adds	r1, r3, r2
    3b44:	465a      	mov	r2, fp
    3b46:	7812      	ldrb	r2, [r2, #0]
    3b48:	2301      	movs	r3, #1
    3b4a:	920b      	str	r2, [sp, #44]
    3b4c:	3a30      	subs	r2, #48
    3b4e:	449b      	add	fp, r3
    3b50:	2a09      	cmp	r2, #9
    3b52:	d9f3      	bls.n	3b3c <_svfprintf_r+0x788>
    3b54:	2900      	cmp	r1, #0
    3b56:	4688      	mov	r8, r1
    3b58:	db00      	blt.n	3b5c <_svfprintf_r+0x7a8>
    3b5a:	e48d      	b.n	3478 <_svfprintf_r+0xc4>
    3b5c:	4259      	negs	r1, r3
    3b5e:	4688      	mov	r8, r1
    3b60:	e48a      	b.n	3478 <_svfprintf_r+0xc4>
    3b62:	9914      	ldr	r1, [sp, #80]
    3b64:	9a15      	ldr	r2, [sp, #84]
    3b66:	2400      	movs	r4, #0
    3b68:	424b      	negs	r3, r1
    3b6a:	4194      	sbcs	r4, r2
    3b6c:	4a9a      	ldr	r2, [pc, #616]	(3dd8 <_svfprintf_r+0xa24>)
    3b6e:	9314      	str	r3, [sp, #80]
    3b70:	9415      	str	r4, [sp, #84]
    3b72:	446a      	add	r2, sp
    3b74:	232d      	movs	r3, #45
    3b76:	7013      	strb	r3, [r2, #0]
    3b78:	e4e8      	b.n	354c <_svfprintf_r+0x198>
    3b7a:	9b0b      	ldr	r3, [sp, #44]
    3b7c:	2b65      	cmp	r3, #101
    3b7e:	dc00      	bgt.n	3b82 <_svfprintf_r+0x7ce>
    3b80:	e0c1      	b.n	3d06 <_svfprintf_r+0x952>
    3b82:	981a      	ldr	r0, [sp, #104]
    3b84:	991b      	ldr	r1, [sp, #108]
    3b86:	4b93      	ldr	r3, [pc, #588]	(3dd4 <_svfprintf_r+0xa20>)
    3b88:	4a91      	ldr	r2, [pc, #580]	(3dd0 <_svfprintf_r+0xa1c>)
    3b8a:	f003 ef8a 	blx	7aa0 <__aeabi_dcmpeq>
    3b8e:	2800      	cmp	r0, #0
    3b90:	d100      	bne.n	3b94 <_svfprintf_r+0x7e0>
    3b92:	e13a      	b.n	3e0a <_svfprintf_r+0xa56>
    3b94:	4b91      	ldr	r3, [pc, #580]	(3ddc <_svfprintf_r+0xa28>)
    3b96:	602b      	str	r3, [r5, #0]
    3b98:	2301      	movs	r3, #1
    3b9a:	606b      	str	r3, [r5, #4]
    3b9c:	68bb      	ldr	r3, [r7, #8]
    3b9e:	3301      	adds	r3, #1
    3ba0:	60bb      	str	r3, [r7, #8]
    3ba2:	687b      	ldr	r3, [r7, #4]
    3ba4:	3301      	adds	r3, #1
    3ba6:	607b      	str	r3, [r7, #4]
    3ba8:	2b07      	cmp	r3, #7
    3baa:	dd00      	ble.n	3bae <_svfprintf_r+0x7fa>
    3bac:	e2cc      	b.n	4148 <_svfprintf_r+0xd94>
    3bae:	1c2a      	adds	r2, r5, #0
    3bb0:	3208      	adds	r2, #8
    3bb2:	9b42      	ldr	r3, [sp, #264]
    3bb4:	9c13      	ldr	r4, [sp, #76]
    3bb6:	429c      	cmp	r4, r3
    3bb8:	dc03      	bgt.n	3bc2 <_svfprintf_r+0x80e>
    3bba:	990d      	ldr	r1, [sp, #52]
    3bbc:	07c9      	lsls	r1, r1, #31
    3bbe:	d400      	bmi.n	3bc2 <_svfprintf_r+0x80e>
    3bc0:	e5d2      	b.n	3768 <_svfprintf_r+0x3b4>
    3bc2:	9b10      	ldr	r3, [sp, #64]
    3bc4:	6013      	str	r3, [r2, #0]
    3bc6:	2301      	movs	r3, #1
    3bc8:	6053      	str	r3, [r2, #4]
    3bca:	68bb      	ldr	r3, [r7, #8]
    3bcc:	3301      	adds	r3, #1
    3bce:	60bb      	str	r3, [r7, #8]
    3bd0:	687b      	ldr	r3, [r7, #4]
    3bd2:	3301      	adds	r3, #1
    3bd4:	607b      	str	r3, [r7, #4]
    3bd6:	2b07      	cmp	r3, #7
    3bd8:	dd00      	ble.n	3bdc <_svfprintf_r+0x828>
    3bda:	e3d1      	b.n	4380 <_svfprintf_r+0xfcc>
    3bdc:	3208      	adds	r2, #8
    3bde:	9c13      	ldr	r4, [sp, #76]
    3be0:	3c01      	subs	r4, #1
    3be2:	2c00      	cmp	r4, #0
    3be4:	dc00      	bgt.n	3be8 <_svfprintf_r+0x834>
    3be6:	e5bf      	b.n	3768 <_svfprintf_r+0x3b4>
    3be8:	2c10      	cmp	r4, #16
    3bea:	dd6b      	ble.n	3cc4 <_svfprintf_r+0x910>
    3bec:	4e7c      	ldr	r6, [pc, #496]	(3de0 <_svfprintf_r+0xa2c>)
    3bee:	2110      	movs	r1, #16
    3bf0:	1989      	adds	r1, r1, r6
    3bf2:	4688      	mov	r8, r1
    3bf4:	2510      	movs	r5, #16
    3bf6:	e003      	b.n	3c00 <_svfprintf_r+0x84c>
    3bf8:	3208      	adds	r2, #8
    3bfa:	3c10      	subs	r4, #16
    3bfc:	2c10      	cmp	r4, #16
    3bfe:	dd62      	ble.n	3cc6 <_svfprintf_r+0x912>
    3c00:	6055      	str	r5, [r2, #4]
    3c02:	4643      	mov	r3, r8
    3c04:	6013      	str	r3, [r2, #0]
    3c06:	68bb      	ldr	r3, [r7, #8]
    3c08:	3310      	adds	r3, #16
    3c0a:	60bb      	str	r3, [r7, #8]
    3c0c:	687b      	ldr	r3, [r7, #4]
    3c0e:	3301      	adds	r3, #1
    3c10:	607b      	str	r3, [r7, #4]
    3c12:	2b07      	cmp	r3, #7
    3c14:	ddf0      	ble.n	3bf8 <_svfprintf_r+0x844>
    3c16:	9809      	ldr	r0, [sp, #36]
    3c18:	9908      	ldr	r1, [sp, #32]
    3c1a:	1c3a      	adds	r2, r7, #0
    3c1c:	f7ff fb34 	bl	3288 <__sprint_r>
    3c20:	2800      	cmp	r0, #0
    3c22:	d000      	beq.n	3c26 <_svfprintf_r+0x872>
    3c24:	e5fb      	b.n	381e <_svfprintf_r+0x46a>
    3c26:	aa1f      	add	r2, sp, #124
    3c28:	e7e7      	b.n	3bfa <_svfprintf_r+0x846>
    3c2a:	2a00      	cmp	r2, #0
    3c2c:	d146      	bne.n	3cbc <_svfprintf_r+0x908>
    3c2e:	990d      	ldr	r1, [sp, #52]
    3c30:	07c9      	lsls	r1, r1, #31
    3c32:	d543      	bpl.n	3cbc <_svfprintf_r+0x908>
    3c34:	466a      	mov	r2, sp
    3c36:	32e3      	adds	r2, #227
    3c38:	2330      	movs	r3, #48
    3c3a:	920c      	str	r2, [sp, #48]
    3c3c:	7013      	strb	r3, [r2, #0]
    3c3e:	2301      	movs	r3, #1
    3c40:	469a      	mov	sl, r3
    3c42:	e4bd      	b.n	35c0 <_svfprintf_r+0x20c>
    3c44:	990f      	ldr	r1, [sp, #60]
    3c46:	9a18      	ldr	r2, [sp, #96]
    3c48:	1a8c      	subs	r4, r1, r2
    3c4a:	2c00      	cmp	r4, #0
    3c4c:	dc00      	bgt.n	3c50 <_svfprintf_r+0x89c>
    3c4e:	e533      	b.n	36b8 <_svfprintf_r+0x304>
    3c50:	2c10      	cmp	r4, #16
    3c52:	dc01      	bgt.n	3c58 <_svfprintf_r+0x8a4>
    3c54:	f000 fca9 	bl	45aa <_svfprintf_r+0x11f6>
    3c58:	4e61      	ldr	r6, [pc, #388]	(3de0 <_svfprintf_r+0xa2c>)
    3c5a:	2310      	movs	r3, #16
    3c5c:	199b      	adds	r3, r3, r6
    3c5e:	2110      	movs	r1, #16
    3c60:	4699      	mov	r9, r3
    3c62:	4688      	mov	r8, r1
    3c64:	e003      	b.n	3c6e <_svfprintf_r+0x8ba>
    3c66:	3c10      	subs	r4, #16
    3c68:	3508      	adds	r5, #8
    3c6a:	2c10      	cmp	r4, #16
    3c6c:	dd17      	ble.n	3c9e <_svfprintf_r+0x8ea>
    3c6e:	4643      	mov	r3, r8
    3c70:	606b      	str	r3, [r5, #4]
    3c72:	68bb      	ldr	r3, [r7, #8]
    3c74:	3310      	adds	r3, #16
    3c76:	60bb      	str	r3, [r7, #8]
    3c78:	687b      	ldr	r3, [r7, #4]
    3c7a:	464a      	mov	r2, r9
    3c7c:	3301      	adds	r3, #1
    3c7e:	602a      	str	r2, [r5, #0]
    3c80:	607b      	str	r3, [r7, #4]
    3c82:	2b07      	cmp	r3, #7
    3c84:	ddef      	ble.n	3c66 <_svfprintf_r+0x8b2>
    3c86:	9809      	ldr	r0, [sp, #36]
    3c88:	9908      	ldr	r1, [sp, #32]
    3c8a:	1c3a      	adds	r2, r7, #0
    3c8c:	f7ff fafc 	bl	3288 <__sprint_r>
    3c90:	2800      	cmp	r0, #0
    3c92:	d000      	beq.n	3c96 <_svfprintf_r+0x8e2>
    3c94:	e5c3      	b.n	381e <_svfprintf_r+0x46a>
    3c96:	3c10      	subs	r4, #16
    3c98:	ad1f      	add	r5, sp, #124
    3c9a:	2c10      	cmp	r4, #16
    3c9c:	dce7      	bgt.n	3c6e <_svfprintf_r+0x8ba>
    3c9e:	1c33      	adds	r3, r6, #0
    3ca0:	606c      	str	r4, [r5, #4]
    3ca2:	3310      	adds	r3, #16
    3ca4:	602b      	str	r3, [r5, #0]
    3ca6:	68bb      	ldr	r3, [r7, #8]
    3ca8:	18e3      	adds	r3, r4, r3
    3caa:	60bb      	str	r3, [r7, #8]
    3cac:	687b      	ldr	r3, [r7, #4]
    3cae:	3301      	adds	r3, #1
    3cb0:	607b      	str	r3, [r7, #4]
    3cb2:	2b07      	cmp	r3, #7
    3cb4:	dd00      	ble.n	3cb8 <_svfprintf_r+0x904>
    3cb6:	e184      	b.n	3fc2 <_svfprintf_r+0xc0e>
    3cb8:	3508      	adds	r5, #8
    3cba:	e4fd      	b.n	36b8 <_svfprintf_r+0x304>
    3cbc:	2400      	movs	r4, #0
    3cbe:	970c      	str	r7, [sp, #48]
    3cc0:	46a2      	mov	sl, r4
    3cc2:	e47d      	b.n	35c0 <_svfprintf_r+0x20c>
    3cc4:	4e46      	ldr	r6, [pc, #280]	(3de0 <_svfprintf_r+0xa2c>)
    3cc6:	1c33      	adds	r3, r6, #0
    3cc8:	3310      	adds	r3, #16
    3cca:	6054      	str	r4, [r2, #4]
    3ccc:	6013      	str	r3, [r2, #0]
    3cce:	68bb      	ldr	r3, [r7, #8]
    3cd0:	18e3      	adds	r3, r4, r3
    3cd2:	60bb      	str	r3, [r7, #8]
    3cd4:	687b      	ldr	r3, [r7, #4]
    3cd6:	3301      	adds	r3, #1
    3cd8:	607b      	str	r3, [r7, #4]
    3cda:	2b07      	cmp	r3, #7
    3cdc:	dc00      	bgt.n	3ce0 <_svfprintf_r+0x92c>
    3cde:	e542      	b.n	3766 <_svfprintf_r+0x3b2>
    3ce0:	9809      	ldr	r0, [sp, #36]
    3ce2:	9908      	ldr	r1, [sp, #32]
    3ce4:	1c3a      	adds	r2, r7, #0
    3ce6:	f7ff facf 	bl	3288 <__sprint_r>
    3cea:	2800      	cmp	r0, #0
    3cec:	d000      	beq.n	3cf0 <_svfprintf_r+0x93c>
    3cee:	e596      	b.n	381e <_svfprintf_r+0x46a>
    3cf0:	aa1f      	add	r2, sp, #124
    3cf2:	e539      	b.n	3768 <_svfprintf_r+0x3b4>
    3cf4:	9809      	ldr	r0, [sp, #36]
    3cf6:	9908      	ldr	r1, [sp, #32]
    3cf8:	1c3a      	adds	r2, r7, #0
    3cfa:	f7ff fac5 	bl	3288 <__sprint_r>
    3cfe:	2800      	cmp	r0, #0
    3d00:	d100      	bne.n	3d04 <_svfprintf_r+0x950>
    3d02:	e576      	b.n	37f2 <_svfprintf_r+0x43e>
    3d04:	e58b      	b.n	381e <_svfprintf_r+0x46a>
    3d06:	9913      	ldr	r1, [sp, #76]
    3d08:	2901      	cmp	r1, #1
    3d0a:	dc00      	bgt.n	3d0e <_svfprintf_r+0x95a>
    3d0c:	e14e      	b.n	3fac <_svfprintf_r+0xbf8>
    3d0e:	9b0c      	ldr	r3, [sp, #48]
    3d10:	602b      	str	r3, [r5, #0]
    3d12:	2301      	movs	r3, #1
    3d14:	606b      	str	r3, [r5, #4]
    3d16:	68bb      	ldr	r3, [r7, #8]
    3d18:	3301      	adds	r3, #1
    3d1a:	60bb      	str	r3, [r7, #8]
    3d1c:	687b      	ldr	r3, [r7, #4]
    3d1e:	3301      	adds	r3, #1
    3d20:	607b      	str	r3, [r7, #4]
    3d22:	2b07      	cmp	r3, #7
    3d24:	dd00      	ble.n	3d28 <_svfprintf_r+0x974>
    3d26:	e157      	b.n	3fd8 <_svfprintf_r+0xc24>
    3d28:	1c2a      	adds	r2, r5, #0
    3d2a:	3208      	adds	r2, #8
    3d2c:	2301      	movs	r3, #1
    3d2e:	6053      	str	r3, [r2, #4]
    3d30:	68bb      	ldr	r3, [r7, #8]
    3d32:	3301      	adds	r3, #1
    3d34:	60bb      	str	r3, [r7, #8]
    3d36:	687b      	ldr	r3, [r7, #4]
    3d38:	9c10      	ldr	r4, [sp, #64]
    3d3a:	3301      	adds	r3, #1
    3d3c:	6014      	str	r4, [r2, #0]
    3d3e:	607b      	str	r3, [r7, #4]
    3d40:	2b07      	cmp	r3, #7
    3d42:	dd00      	ble.n	3d46 <_svfprintf_r+0x992>
    3d44:	e153      	b.n	3fee <_svfprintf_r+0xc3a>
    3d46:	1c15      	adds	r5, r2, #0
    3d48:	3508      	adds	r5, #8
    3d4a:	981a      	ldr	r0, [sp, #104]
    3d4c:	991b      	ldr	r1, [sp, #108]
    3d4e:	4b21      	ldr	r3, [pc, #132]	(3dd4 <_svfprintf_r+0xa20>)
    3d50:	4a1f      	ldr	r2, [pc, #124]	(3dd0 <_svfprintf_r+0xa1c>)
    3d52:	f003 eea6 	blx	7aa0 <__aeabi_dcmpeq>
    3d56:	2800      	cmp	r0, #0
    3d58:	d000      	beq.n	3d5c <_svfprintf_r+0x9a8>
    3d5a:	e0e4      	b.n	3f26 <_svfprintf_r+0xb72>
    3d5c:	9b0c      	ldr	r3, [sp, #48]
    3d5e:	3301      	adds	r3, #1
    3d60:	602b      	str	r3, [r5, #0]
    3d62:	9b13      	ldr	r3, [sp, #76]
    3d64:	3b01      	subs	r3, #1
    3d66:	606b      	str	r3, [r5, #4]
    3d68:	68ba      	ldr	r2, [r7, #8]
    3d6a:	189b      	adds	r3, r3, r2
    3d6c:	60bb      	str	r3, [r7, #8]
    3d6e:	687b      	ldr	r3, [r7, #4]
    3d70:	3301      	adds	r3, #1
    3d72:	607b      	str	r3, [r7, #4]
    3d74:	2b07      	cmp	r3, #7
    3d76:	dd00      	ble.n	3d7a <_svfprintf_r+0x9c6>
    3d78:	e10e      	b.n	3f98 <_svfprintf_r+0xbe4>
    3d7a:	3508      	adds	r5, #8
    3d7c:	466b      	mov	r3, sp
    3d7e:	33f9      	adds	r3, #249
    3d80:	602b      	str	r3, [r5, #0]
    3d82:	9b12      	ldr	r3, [sp, #72]
    3d84:	606b      	str	r3, [r5, #4]
    3d86:	68bb      	ldr	r3, [r7, #8]
    3d88:	9c12      	ldr	r4, [sp, #72]
    3d8a:	18e3      	adds	r3, r4, r3
    3d8c:	e4e3      	b.n	3756 <_svfprintf_r+0x3a2>
    3d8e:	9809      	ldr	r0, [sp, #36]
    3d90:	9908      	ldr	r1, [sp, #32]
    3d92:	1c3a      	adds	r2, r7, #0
    3d94:	f7ff fa78 	bl	3288 <__sprint_r>
    3d98:	2800      	cmp	r0, #0
    3d9a:	d000      	beq.n	3d9e <_svfprintf_r+0x9ea>
    3d9c:	e53f      	b.n	381e <_svfprintf_r+0x46a>
    3d9e:	ad1f      	add	r5, sp, #124
    3da0:	e4cf      	b.n	3742 <_svfprintf_r+0x38e>
    3da2:	9809      	ldr	r0, [sp, #36]
    3da4:	9908      	ldr	r1, [sp, #32]
    3da6:	1c3a      	adds	r2, r7, #0
    3da8:	f7ff fa6e 	bl	3288 <__sprint_r>
    3dac:	2800      	cmp	r0, #0
    3dae:	d000      	beq.n	3db2 <_svfprintf_r+0x9fe>
    3db0:	e535      	b.n	381e <_svfprintf_r+0x46a>
    3db2:	ad1f      	add	r5, sp, #124
    3db4:	e46a      	b.n	368c <_svfprintf_r+0x2d8>
    3db6:	9809      	ldr	r0, [sp, #36]
    3db8:	9908      	ldr	r1, [sp, #32]
    3dba:	1c3a      	adds	r2, r7, #0
    3dbc:	f7ff fa64 	bl	3288 <__sprint_r>
    3dc0:	2800      	cmp	r0, #0
    3dc2:	d000      	beq.n	3dc6 <_svfprintf_r+0xa12>
    3dc4:	e52b      	b.n	381e <_svfprintf_r+0x46a>
    3dc6:	ad1f      	add	r5, sp, #124
    3dc8:	e472      	b.n	36b0 <_svfprintf_r+0x2fc>
    3dca:	46c0      	nop			(mov r8, r8)
    3dcc:	46c0      	nop			(mov r8, r8)
    3dce:	46c0      	nop			(mov r8, r8)
	...
    3dd8:	0000010f 	.word	0x0000010f
    3ddc:	00008d00 	.word	0x00008d00
    3de0:	00008c84 	.word	0x00008c84
    3de4:	2a02      	cmp	r2, #2
    3de6:	d050      	beq.n	3e8a <_svfprintf_r+0xad6>
    3de8:	4cd5      	ldr	r4, [pc, #852]	(4140 <_svfprintf_r+0xd8c>)
    3dea:	1c20      	adds	r0, r4, #0
    3dec:	f003 f834 	bl	6e58 <strlen>
    3df0:	4682      	mov	sl, r0
    3df2:	9018      	str	r0, [sp, #96]
    3df4:	45c2      	cmp	sl, r8
    3df6:	da01      	bge.n	3dfc <_svfprintf_r+0xa48>
    3df8:	4641      	mov	r1, r8
    3dfa:	9118      	str	r1, [sp, #96]
    3dfc:	4641      	mov	r1, r8
    3dfe:	9117      	str	r1, [sp, #92]
    3e00:	4649      	mov	r1, r9
    3e02:	911d      	str	r1, [sp, #116]
    3e04:	940c      	str	r4, [sp, #48]
    3e06:	f7ff fbe5 	bl	35d4 <_svfprintf_r+0x220>
    3e0a:	9a42      	ldr	r2, [sp, #264]
    3e0c:	2a00      	cmp	r2, #0
    3e0e:	dc00      	bgt.n	3e12 <_svfprintf_r+0xa5e>
    3e10:	e1be      	b.n	4190 <_svfprintf_r+0xddc>
    3e12:	9b13      	ldr	r3, [sp, #76]
    3e14:	4293      	cmp	r3, r2
    3e16:	dd00      	ble.n	3e1a <_svfprintf_r+0xa66>
    3e18:	e160      	b.n	40dc <_svfprintf_r+0xd28>
    3e1a:	606b      	str	r3, [r5, #4]
    3e1c:	68bb      	ldr	r3, [r7, #8]
    3e1e:	9913      	ldr	r1, [sp, #76]
    3e20:	18cb      	adds	r3, r1, r3
    3e22:	60bb      	str	r3, [r7, #8]
    3e24:	687b      	ldr	r3, [r7, #4]
    3e26:	9c0c      	ldr	r4, [sp, #48]
    3e28:	3301      	adds	r3, #1
    3e2a:	602c      	str	r4, [r5, #0]
    3e2c:	607b      	str	r3, [r7, #4]
    3e2e:	2b07      	cmp	r3, #7
    3e30:	dd00      	ble.n	3e34 <_svfprintf_r+0xa80>
    3e32:	e3a4      	b.n	457e <_svfprintf_r+0x11ca>
    3e34:	1c2a      	adds	r2, r5, #0
    3e36:	3208      	adds	r2, #8
    3e38:	9b42      	ldr	r3, [sp, #264]
    3e3a:	9913      	ldr	r1, [sp, #76]
    3e3c:	1a5c      	subs	r4, r3, r1
    3e3e:	2c00      	cmp	r4, #0
    3e40:	dc00      	bgt.n	3e44 <_svfprintf_r+0xa90>
    3e42:	e196      	b.n	4172 <_svfprintf_r+0xdbe>
    3e44:	2c10      	cmp	r4, #16
    3e46:	dc00      	bgt.n	3e4a <_svfprintf_r+0xa96>
    3e48:	e354      	b.n	44f4 <_svfprintf_r+0x1140>
    3e4a:	4ebe      	ldr	r6, [pc, #760]	(4144 <_svfprintf_r+0xd90>)
    3e4c:	2310      	movs	r3, #16
    3e4e:	199b      	adds	r3, r3, r6
    3e50:	4698      	mov	r8, r3
    3e52:	2510      	movs	r5, #16
    3e54:	e004      	b.n	3e60 <_svfprintf_r+0xaac>
    3e56:	3208      	adds	r2, #8
    3e58:	3c10      	subs	r4, #16
    3e5a:	2c10      	cmp	r4, #16
    3e5c:	dc00      	bgt.n	3e60 <_svfprintf_r+0xaac>
    3e5e:	e34a      	b.n	44f6 <_svfprintf_r+0x1142>
    3e60:	6055      	str	r5, [r2, #4]
    3e62:	68bb      	ldr	r3, [r7, #8]
    3e64:	3310      	adds	r3, #16
    3e66:	60bb      	str	r3, [r7, #8]
    3e68:	687b      	ldr	r3, [r7, #4]
    3e6a:	4641      	mov	r1, r8
    3e6c:	3301      	adds	r3, #1
    3e6e:	6011      	str	r1, [r2, #0]
    3e70:	607b      	str	r3, [r7, #4]
    3e72:	2b07      	cmp	r3, #7
    3e74:	ddef      	ble.n	3e56 <_svfprintf_r+0xaa2>
    3e76:	9809      	ldr	r0, [sp, #36]
    3e78:	9908      	ldr	r1, [sp, #32]
    3e7a:	1c3a      	adds	r2, r7, #0
    3e7c:	f7ff fa04 	bl	3288 <__sprint_r>
    3e80:	2800      	cmp	r0, #0
    3e82:	d000      	beq.n	3e86 <_svfprintf_r+0xad2>
    3e84:	e4cb      	b.n	381e <_svfprintf_r+0x46a>
    3e86:	aa1f      	add	r2, sp, #124
    3e88:	e7e6      	b.n	3e58 <_svfprintf_r+0xaa4>
    3e8a:	970c      	str	r7, [sp, #48]
    3e8c:	260f      	movs	r6, #15
    3e8e:	9a0c      	ldr	r2, [sp, #48]
    3e90:	9b14      	ldr	r3, [sp, #80]
    3e92:	3a01      	subs	r2, #1
    3e94:	920c      	str	r2, [sp, #48]
    3e96:	9c19      	ldr	r4, [sp, #100]
    3e98:	4033      	ands	r3, r6
    3e9a:	5ce3      	ldrb	r3, [r4, r3]
    3e9c:	7013      	strb	r3, [r2, #0]
    3e9e:	9915      	ldr	r1, [sp, #84]
    3ea0:	9a14      	ldr	r2, [sp, #80]
    3ea2:	0708      	lsls	r0, r1, #28
    3ea4:	0913      	lsrs	r3, r2, #4
    3ea6:	1c02      	adds	r2, r0, #0
    3ea8:	431a      	orrs	r2, r3
    3eaa:	0909      	lsrs	r1, r1, #4
    3eac:	1c13      	adds	r3, r2, #0
    3eae:	1c0c      	adds	r4, r1, #0
    3eb0:	9314      	str	r3, [sp, #80]
    3eb2:	9415      	str	r4, [sp, #84]
    3eb4:	430b      	orrs	r3, r1
    3eb6:	d1ea      	bne.n	3e8e <_svfprintf_r+0xada>
    3eb8:	9c0c      	ldr	r4, [sp, #48]
    3eba:	1b3c      	subs	r4, r7, r4
    3ebc:	46a2      	mov	sl, r4
    3ebe:	f7ff fb7f 	bl	35c0 <_svfprintf_r+0x20c>
    3ec2:	9915      	ldr	r1, [sp, #84]
    3ec4:	2900      	cmp	r1, #0
    3ec6:	d103      	bne.n	3ed0 <_svfprintf_r+0xb1c>
    3ec8:	9a14      	ldr	r2, [sp, #80]
    3eca:	2a09      	cmp	r2, #9
    3ecc:	d800      	bhi.n	3ed0 <_svfprintf_r+0xb1c>
    3ece:	e2ce      	b.n	446e <_svfprintf_r+0x10ba>
    3ed0:	1c3c      	adds	r4, r7, #0
    3ed2:	9814      	ldr	r0, [sp, #80]
    3ed4:	9915      	ldr	r1, [sp, #84]
    3ed6:	220a      	movs	r2, #10
    3ed8:	2300      	movs	r3, #0
    3eda:	f003 ee4c 	blx	7b74 <__aeabi_uldivmod>
    3ede:	3c01      	subs	r4, #1
    3ee0:	3230      	adds	r2, #48
    3ee2:	7022      	strb	r2, [r4, #0]
    3ee4:	9814      	ldr	r0, [sp, #80]
    3ee6:	9915      	ldr	r1, [sp, #84]
    3ee8:	220a      	movs	r2, #10
    3eea:	2300      	movs	r3, #0
    3eec:	f003 ee42 	blx	7b74 <__aeabi_uldivmod>
    3ef0:	9014      	str	r0, [sp, #80]
    3ef2:	9115      	str	r1, [sp, #84]
    3ef4:	2900      	cmp	r1, #0
    3ef6:	d1ec      	bne.n	3ed2 <_svfprintf_r+0xb1e>
    3ef8:	9914      	ldr	r1, [sp, #80]
    3efa:	2909      	cmp	r1, #9
    3efc:	d8e9      	bhi.n	3ed2 <_svfprintf_r+0xb1e>
    3efe:	9b14      	ldr	r3, [sp, #80]
    3f00:	3c01      	subs	r4, #1
    3f02:	3330      	adds	r3, #48
    3f04:	940c      	str	r4, [sp, #48]
    3f06:	7023      	strb	r3, [r4, #0]
    3f08:	1b3c      	subs	r4, r7, r4
    3f0a:	46a2      	mov	sl, r4
    3f0c:	f7ff fb58 	bl	35c0 <_svfprintf_r+0x20c>
    3f10:	9809      	ldr	r0, [sp, #36]
    3f12:	9908      	ldr	r1, [sp, #32]
    3f14:	1c3a      	adds	r2, r7, #0
    3f16:	f7ff f9b7 	bl	3288 <__sprint_r>
    3f1a:	2800      	cmp	r0, #0
    3f1c:	d000      	beq.n	3f20 <_svfprintf_r+0xb6c>
    3f1e:	e47e      	b.n	381e <_svfprintf_r+0x46a>
    3f20:	ad1f      	add	r5, sp, #124
    3f22:	f7ff fba1 	bl	3668 <_svfprintf_r+0x2b4>
    3f26:	9c13      	ldr	r4, [sp, #76]
    3f28:	3c01      	subs	r4, #1
    3f2a:	2c00      	cmp	r4, #0
    3f2c:	dc00      	bgt.n	3f30 <_svfprintf_r+0xb7c>
    3f2e:	e725      	b.n	3d7c <_svfprintf_r+0x9c8>
    3f30:	2c10      	cmp	r4, #16
    3f32:	dc01      	bgt.n	3f38 <_svfprintf_r+0xb84>
    3f34:	f000 fc07 	bl	4746 <_svfprintf_r+0x1392>
    3f38:	4e82      	ldr	r6, [pc, #520]	(4144 <_svfprintf_r+0xd90>)
    3f3a:	2110      	movs	r1, #16
    3f3c:	1989      	adds	r1, r1, r6
    3f3e:	2210      	movs	r2, #16
    3f40:	4688      	mov	r8, r1
    3f42:	4691      	mov	r9, r2
    3f44:	e003      	b.n	3f4e <_svfprintf_r+0xb9a>
    3f46:	3c10      	subs	r4, #16
    3f48:	3508      	adds	r5, #8
    3f4a:	2c10      	cmp	r4, #16
    3f4c:	dd17      	ble.n	3f7e <_svfprintf_r+0xbca>
    3f4e:	4649      	mov	r1, r9
    3f50:	6069      	str	r1, [r5, #4]
    3f52:	4643      	mov	r3, r8
    3f54:	602b      	str	r3, [r5, #0]
    3f56:	68bb      	ldr	r3, [r7, #8]
    3f58:	3310      	adds	r3, #16
    3f5a:	60bb      	str	r3, [r7, #8]
    3f5c:	687b      	ldr	r3, [r7, #4]
    3f5e:	3301      	adds	r3, #1
    3f60:	607b      	str	r3, [r7, #4]
    3f62:	2b07      	cmp	r3, #7
    3f64:	ddef      	ble.n	3f46 <_svfprintf_r+0xb92>
    3f66:	9809      	ldr	r0, [sp, #36]
    3f68:	9908      	ldr	r1, [sp, #32]
    3f6a:	1c3a      	adds	r2, r7, #0
    3f6c:	f7ff f98c 	bl	3288 <__sprint_r>
    3f70:	2800      	cmp	r0, #0
    3f72:	d000      	beq.n	3f76 <_svfprintf_r+0xbc2>
    3f74:	e453      	b.n	381e <_svfprintf_r+0x46a>
    3f76:	3c10      	subs	r4, #16
    3f78:	ad1f      	add	r5, sp, #124
    3f7a:	2c10      	cmp	r4, #16
    3f7c:	dce7      	bgt.n	3f4e <_svfprintf_r+0xb9a>
    3f7e:	1c33      	adds	r3, r6, #0
    3f80:	606c      	str	r4, [r5, #4]
    3f82:	3310      	adds	r3, #16
    3f84:	602b      	str	r3, [r5, #0]
    3f86:	68bb      	ldr	r3, [r7, #8]
    3f88:	18e3      	adds	r3, r4, r3
    3f8a:	60bb      	str	r3, [r7, #8]
    3f8c:	687b      	ldr	r3, [r7, #4]
    3f8e:	3301      	adds	r3, #1
    3f90:	607b      	str	r3, [r7, #4]
    3f92:	2b07      	cmp	r3, #7
    3f94:	dc00      	bgt.n	3f98 <_svfprintf_r+0xbe4>
    3f96:	e6f0      	b.n	3d7a <_svfprintf_r+0x9c6>
    3f98:	9809      	ldr	r0, [sp, #36]
    3f9a:	9908      	ldr	r1, [sp, #32]
    3f9c:	1c3a      	adds	r2, r7, #0
    3f9e:	f7ff f973 	bl	3288 <__sprint_r>
    3fa2:	2800      	cmp	r0, #0
    3fa4:	d000      	beq.n	3fa8 <_svfprintf_r+0xbf4>
    3fa6:	e43a      	b.n	381e <_svfprintf_r+0x46a>
    3fa8:	ad1f      	add	r5, sp, #124
    3faa:	e6e7      	b.n	3d7c <_svfprintf_r+0x9c8>
    3fac:	9a0d      	ldr	r2, [sp, #52]
    3fae:	2301      	movs	r3, #1
    3fb0:	421a      	tst	r2, r3
    3fb2:	d000      	beq.n	3fb6 <_svfprintf_r+0xc02>
    3fb4:	e6ab      	b.n	3d0e <_svfprintf_r+0x95a>
    3fb6:	606b      	str	r3, [r5, #4]
    3fb8:	9a0c      	ldr	r2, [sp, #48]
    3fba:	68bb      	ldr	r3, [r7, #8]
    3fbc:	602a      	str	r2, [r5, #0]
    3fbe:	3301      	adds	r3, #1
    3fc0:	e6d4      	b.n	3d6c <_svfprintf_r+0x9b8>
    3fc2:	9809      	ldr	r0, [sp, #36]
    3fc4:	9908      	ldr	r1, [sp, #32]
    3fc6:	1c3a      	adds	r2, r7, #0
    3fc8:	f7ff f95e 	bl	3288 <__sprint_r>
    3fcc:	2800      	cmp	r0, #0
    3fce:	d000      	beq.n	3fd2 <_svfprintf_r+0xc1e>
    3fd0:	e425      	b.n	381e <_svfprintf_r+0x46a>
    3fd2:	ad1f      	add	r5, sp, #124
    3fd4:	f7ff fb70 	bl	36b8 <_svfprintf_r+0x304>
    3fd8:	9809      	ldr	r0, [sp, #36]
    3fda:	9908      	ldr	r1, [sp, #32]
    3fdc:	1c3a      	adds	r2, r7, #0
    3fde:	f7ff f953 	bl	3288 <__sprint_r>
    3fe2:	2800      	cmp	r0, #0
    3fe4:	d001      	beq.n	3fea <_svfprintf_r+0xc36>
    3fe6:	f7ff fc1a 	bl	381e <_svfprintf_r+0x46a>
    3fea:	aa1f      	add	r2, sp, #124
    3fec:	e69e      	b.n	3d2c <_svfprintf_r+0x978>
    3fee:	9809      	ldr	r0, [sp, #36]
    3ff0:	9908      	ldr	r1, [sp, #32]
    3ff2:	1c3a      	adds	r2, r7, #0
    3ff4:	f7ff f948 	bl	3288 <__sprint_r>
    3ff8:	2800      	cmp	r0, #0
    3ffa:	d001      	beq.n	4000 <_svfprintf_r+0xc4c>
    3ffc:	f7ff fc0f 	bl	381e <_svfprintf_r+0x46a>
    4000:	ad1f      	add	r5, sp, #124
    4002:	e6a2      	b.n	3d4a <_svfprintf_r+0x996>
    4004:	2e30      	cmp	r6, #48
    4006:	d100      	bne.n	400a <_svfprintf_r+0xc56>
    4008:	e28d      	b.n	4526 <_svfprintf_r+0x1172>
    400a:	9b0c      	ldr	r3, [sp, #48]
    400c:	3b01      	subs	r3, #1
    400e:	930c      	str	r3, [sp, #48]
    4010:	9c0c      	ldr	r4, [sp, #48]
    4012:	2330      	movs	r3, #48
    4014:	7023      	strb	r3, [r4, #0]
    4016:	1b3c      	subs	r4, r7, r4
    4018:	46a2      	mov	sl, r4
    401a:	f7ff fad1 	bl	35c0 <_svfprintf_r+0x20c>
    401e:	9a1d      	ldr	r2, [sp, #116]
    4020:	4659      	mov	r1, fp
    4022:	780b      	ldrb	r3, [r1, #0]
    4024:	921d      	str	r2, [sp, #116]
    4026:	f7ff fa24 	bl	3472 <_svfprintf_r+0xbe>
    402a:	9a0d      	ldr	r2, [sp, #52]
    402c:	0652      	lsls	r2, r2, #25
    402e:	d400      	bmi.n	4032 <_svfprintf_r+0xc7e>
    4030:	e1c9      	b.n	43c6 <_svfprintf_r+0x1012>
    4032:	9c1d      	ldr	r4, [sp, #116]
    4034:	9b1d      	ldr	r3, [sp, #116]
    4036:	8824      	ldrh	r4, [r4, #0]
    4038:	4699      	mov	r9, r3
    403a:	2100      	movs	r1, #0
    403c:	2304      	movs	r3, #4
    403e:	4499      	add	r9, r3
    4040:	9414      	str	r4, [sp, #80]
    4042:	9115      	str	r1, [sp, #84]
    4044:	e4ab      	b.n	399e <_svfprintf_r+0x5ea>
    4046:	9a0d      	ldr	r2, [sp, #52]
    4048:	06d2      	lsls	r2, r2, #27
    404a:	d400      	bmi.n	404e <_svfprintf_r+0xc9a>
    404c:	e1e0      	b.n	4410 <_svfprintf_r+0x105c>
    404e:	9b1d      	ldr	r3, [sp, #116]
    4050:	9c1d      	ldr	r4, [sp, #116]
    4052:	4698      	mov	r8, r3
    4054:	2304      	movs	r3, #4
    4056:	4498      	add	r8, r3
    4058:	990e      	ldr	r1, [sp, #56]
    405a:	6823      	ldr	r3, [r4, #0]
    405c:	6019      	str	r1, [r3, #0]
    405e:	f7ff f9d3 	bl	3408 <_svfprintf_r+0x54>
    4062:	9a0d      	ldr	r2, [sp, #52]
    4064:	0652      	lsls	r2, r2, #25
    4066:	d400      	bmi.n	406a <_svfprintf_r+0xcb6>
    4068:	e195      	b.n	4396 <_svfprintf_r+0xfe2>
    406a:	9c1d      	ldr	r4, [sp, #116]
    406c:	9b1d      	ldr	r3, [sp, #116]
    406e:	8824      	ldrh	r4, [r4, #0]
    4070:	4699      	mov	r9, r3
    4072:	2100      	movs	r1, #0
    4074:	2304      	movs	r3, #4
    4076:	4499      	add	r9, r3
    4078:	9414      	str	r4, [sp, #80]
    407a:	9115      	str	r1, [sp, #84]
    407c:	2200      	movs	r2, #0
    407e:	f7ff fa46 	bl	350e <_svfprintf_r+0x15a>
    4082:	9b1d      	ldr	r3, [sp, #116]
    4084:	2207      	movs	r2, #7
    4086:	3307      	adds	r3, #7
    4088:	4393      	bics	r3, r2
    408a:	1c1a      	adds	r2, r3, #0
    408c:	3208      	adds	r2, #8
    408e:	921d      	str	r2, [sp, #116]
    4090:	6819      	ldr	r1, [r3, #0]
    4092:	685a      	ldr	r2, [r3, #4]
    4094:	911a      	str	r1, [sp, #104]
    4096:	921b      	str	r2, [sp, #108]
    4098:	e44c      	b.n	3934 <_svfprintf_r+0x580>
    409a:	9a0d      	ldr	r2, [sp, #52]
    409c:	0652      	lsls	r2, r2, #25
    409e:	d400      	bmi.n	40a2 <_svfprintf_r+0xcee>
    40a0:	e185      	b.n	43ae <_svfprintf_r+0xffa>
    40a2:	9c1d      	ldr	r4, [sp, #116]
    40a4:	9b1d      	ldr	r3, [sp, #116]
    40a6:	8824      	ldrh	r4, [r4, #0]
    40a8:	4699      	mov	r9, r3
    40aa:	2100      	movs	r1, #0
    40ac:	2304      	movs	r3, #4
    40ae:	4499      	add	r9, r3
    40b0:	9414      	str	r4, [sp, #80]
    40b2:	9115      	str	r1, [sp, #84]
    40b4:	2201      	movs	r2, #1
    40b6:	f7ff fa2a 	bl	350e <_svfprintf_r+0x15a>
    40ba:	990d      	ldr	r1, [sp, #52]
    40bc:	0649      	lsls	r1, r1, #25
    40be:	d400      	bmi.n	40c2 <_svfprintf_r+0xd0e>
    40c0:	e1a0      	b.n	4404 <_svfprintf_r+0x1050>
    40c2:	9c1d      	ldr	r4, [sp, #116]
    40c4:	6823      	ldr	r3, [r4, #0]
    40c6:	9a1d      	ldr	r2, [sp, #116]
    40c8:	041b      	lsls	r3, r3, #16
    40ca:	4691      	mov	r9, r2
    40cc:	1419      	asrs	r1, r3, #16
    40ce:	2204      	movs	r2, #4
    40d0:	17db      	asrs	r3, r3, #31
    40d2:	4491      	add	r9, r2
    40d4:	9114      	str	r1, [sp, #80]
    40d6:	9315      	str	r3, [sp, #84]
    40d8:	f7ff fa34 	bl	3544 <_svfprintf_r+0x190>
    40dc:	9b0c      	ldr	r3, [sp, #48]
    40de:	606a      	str	r2, [r5, #4]
    40e0:	602b      	str	r3, [r5, #0]
    40e2:	68bb      	ldr	r3, [r7, #8]
    40e4:	189b      	adds	r3, r3, r2
    40e6:	60bb      	str	r3, [r7, #8]
    40e8:	687b      	ldr	r3, [r7, #4]
    40ea:	3301      	adds	r3, #1
    40ec:	607b      	str	r3, [r7, #4]
    40ee:	2b07      	cmp	r3, #7
    40f0:	dd00      	ble.n	40f4 <_svfprintf_r+0xd40>
    40f2:	e239      	b.n	4568 <_svfprintf_r+0x11b4>
    40f4:	1c2a      	adds	r2, r5, #0
    40f6:	3208      	adds	r2, #8
    40f8:	2301      	movs	r3, #1
    40fa:	9c42      	ldr	r4, [sp, #264]
    40fc:	6053      	str	r3, [r2, #4]
    40fe:	68bb      	ldr	r3, [r7, #8]
    4100:	3301      	adds	r3, #1
    4102:	60bb      	str	r3, [r7, #8]
    4104:	687b      	ldr	r3, [r7, #4]
    4106:	9910      	ldr	r1, [sp, #64]
    4108:	3301      	adds	r3, #1
    410a:	6011      	str	r1, [r2, #0]
    410c:	607b      	str	r3, [r7, #4]
    410e:	2b07      	cmp	r3, #7
    4110:	dd00      	ble.n	4114 <_svfprintf_r+0xd60>
    4112:	e23f      	b.n	4594 <_svfprintf_r+0x11e0>
    4114:	1c11      	adds	r1, r2, #0
    4116:	3108      	adds	r1, #8
    4118:	9a0c      	ldr	r2, [sp, #48]
    411a:	1913      	adds	r3, r2, r4
    411c:	600b      	str	r3, [r1, #0]
    411e:	9c13      	ldr	r4, [sp, #76]
    4120:	9b42      	ldr	r3, [sp, #264]
    4122:	1ae3      	subs	r3, r4, r3
    4124:	604b      	str	r3, [r1, #4]
    4126:	68ba      	ldr	r2, [r7, #8]
    4128:	189b      	adds	r3, r3, r2
    412a:	60bb      	str	r3, [r7, #8]
    412c:	687b      	ldr	r3, [r7, #4]
    412e:	3301      	adds	r3, #1
    4130:	607b      	str	r3, [r7, #4]
    4132:	2b07      	cmp	r3, #7
    4134:	dd00      	ble.n	4138 <_svfprintf_r+0xd84>
    4136:	e5d3      	b.n	3ce0 <_svfprintf_r+0x92c>
    4138:	1c0a      	adds	r2, r1, #0
    413a:	3208      	adds	r2, #8
    413c:	f7ff fb14 	bl	3768 <_svfprintf_r+0x3b4>
    4140:	00008ce4 	.word	0x00008ce4
    4144:	00008c84 	.word	0x00008c84
    4148:	9809      	ldr	r0, [sp, #36]
    414a:	9908      	ldr	r1, [sp, #32]
    414c:	1c3a      	adds	r2, r7, #0
    414e:	f7ff f89b 	bl	3288 <__sprint_r>
    4152:	2800      	cmp	r0, #0
    4154:	d001      	beq.n	415a <_svfprintf_r+0xda6>
    4156:	f7ff fb62 	bl	381e <_svfprintf_r+0x46a>
    415a:	aa1f      	add	r2, sp, #124
    415c:	e529      	b.n	3bb2 <_svfprintf_r+0x7fe>
    415e:	9809      	ldr	r0, [sp, #36]
    4160:	9908      	ldr	r1, [sp, #32]
    4162:	1c3a      	adds	r2, r7, #0
    4164:	f7ff f890 	bl	3288 <__sprint_r>
    4168:	2800      	cmp	r0, #0
    416a:	d001      	beq.n	4170 <_svfprintf_r+0xdbc>
    416c:	f7ff fb57 	bl	381e <_svfprintf_r+0x46a>
    4170:	aa1f      	add	r2, sp, #124
    4172:	9c0d      	ldr	r4, [sp, #52]
    4174:	2301      	movs	r3, #1
    4176:	421c      	tst	r4, r3
    4178:	d101      	bne.n	417e <_svfprintf_r+0xdca>
    417a:	f7ff faf5 	bl	3768 <_svfprintf_r+0x3b4>
    417e:	6053      	str	r3, [r2, #4]
    4180:	9910      	ldr	r1, [sp, #64]
    4182:	68bb      	ldr	r3, [r7, #8]
    4184:	6011      	str	r1, [r2, #0]
    4186:	3301      	adds	r3, #1
    4188:	e5a3      	b.n	3cd2 <_svfprintf_r+0x91e>
    418a:	4ed5      	ldr	r6, [pc, #852]	(44e0 <_svfprintf_r+0x112c>)
    418c:	f7ff facb 	bl	3726 <_svfprintf_r+0x372>
    4190:	4bd4      	ldr	r3, [pc, #848]	(44e4 <_svfprintf_r+0x1130>)
    4192:	602b      	str	r3, [r5, #0]
    4194:	2301      	movs	r3, #1
    4196:	606b      	str	r3, [r5, #4]
    4198:	68bb      	ldr	r3, [r7, #8]
    419a:	3301      	adds	r3, #1
    419c:	60bb      	str	r3, [r7, #8]
    419e:	687b      	ldr	r3, [r7, #4]
    41a0:	3301      	adds	r3, #1
    41a2:	607b      	str	r3, [r7, #4]
    41a4:	2b07      	cmp	r3, #7
    41a6:	dd00      	ble.n	41aa <_svfprintf_r+0xdf6>
    41a8:	e16d      	b.n	4486 <_svfprintf_r+0x10d2>
    41aa:	1c2a      	adds	r2, r5, #0
    41ac:	3208      	adds	r2, #8
    41ae:	9b42      	ldr	r3, [sp, #264]
    41b0:	2b00      	cmp	r3, #0
    41b2:	d107      	bne.n	41c4 <_svfprintf_r+0xe10>
    41b4:	9c13      	ldr	r4, [sp, #76]
    41b6:	2c00      	cmp	r4, #0
    41b8:	d104      	bne.n	41c4 <_svfprintf_r+0xe10>
    41ba:	990d      	ldr	r1, [sp, #52]
    41bc:	07c9      	lsls	r1, r1, #31
    41be:	d401      	bmi.n	41c4 <_svfprintf_r+0xe10>
    41c0:	f7ff fad2 	bl	3768 <_svfprintf_r+0x3b4>
    41c4:	9b10      	ldr	r3, [sp, #64]
    41c6:	6013      	str	r3, [r2, #0]
    41c8:	2301      	movs	r3, #1
    41ca:	6053      	str	r3, [r2, #4]
    41cc:	68bb      	ldr	r3, [r7, #8]
    41ce:	3301      	adds	r3, #1
    41d0:	60bb      	str	r3, [r7, #8]
    41d2:	687b      	ldr	r3, [r7, #4]
    41d4:	3301      	adds	r3, #1
    41d6:	607b      	str	r3, [r7, #4]
    41d8:	2b07      	cmp	r3, #7
    41da:	dd00      	ble.n	41de <_svfprintf_r+0xe2a>
    41dc:	e1e8      	b.n	45b0 <_svfprintf_r+0x11fc>
    41de:	3208      	adds	r2, #8
    41e0:	9b42      	ldr	r3, [sp, #264]
    41e2:	425c      	negs	r4, r3
    41e4:	2c00      	cmp	r4, #0
    41e6:	dc00      	bgt.n	41ea <_svfprintf_r+0xe36>
    41e8:	e16d      	b.n	44c6 <_svfprintf_r+0x1112>
    41ea:	2c10      	cmp	r4, #16
    41ec:	dc00      	bgt.n	41f0 <_svfprintf_r+0xe3c>
    41ee:	e19f      	b.n	4530 <_svfprintf_r+0x117c>
    41f0:	4ebb      	ldr	r6, [pc, #748]	(44e0 <_svfprintf_r+0x112c>)
    41f2:	2110      	movs	r1, #16
    41f4:	1c35      	adds	r5, r6, #0
    41f6:	3510      	adds	r5, #16
    41f8:	4688      	mov	r8, r1
    41fa:	e004      	b.n	4206 <_svfprintf_r+0xe52>
    41fc:	3208      	adds	r2, #8
    41fe:	3c10      	subs	r4, #16
    4200:	2c10      	cmp	r4, #16
    4202:	dc00      	bgt.n	4206 <_svfprintf_r+0xe52>
    4204:	e195      	b.n	4532 <_svfprintf_r+0x117e>
    4206:	4643      	mov	r3, r8
    4208:	6053      	str	r3, [r2, #4]
    420a:	68bb      	ldr	r3, [r7, #8]
    420c:	3310      	adds	r3, #16
    420e:	60bb      	str	r3, [r7, #8]
    4210:	687b      	ldr	r3, [r7, #4]
    4212:	3301      	adds	r3, #1
    4214:	6015      	str	r5, [r2, #0]
    4216:	607b      	str	r3, [r7, #4]
    4218:	2b07      	cmp	r3, #7
    421a:	ddef      	ble.n	41fc <_svfprintf_r+0xe48>
    421c:	9809      	ldr	r0, [sp, #36]
    421e:	9908      	ldr	r1, [sp, #32]
    4220:	1c3a      	adds	r2, r7, #0
    4222:	f7ff f831 	bl	3288 <__sprint_r>
    4226:	2800      	cmp	r0, #0
    4228:	d001      	beq.n	422e <_svfprintf_r+0xe7a>
    422a:	f7ff faf8 	bl	381e <_svfprintf_r+0x46a>
    422e:	aa1f      	add	r2, sp, #124
    4230:	e7e5      	b.n	41fe <_svfprintf_r+0xe4a>
    4232:	49ad      	ldr	r1, [pc, #692]	(44e8 <_svfprintf_r+0x1134>)
    4234:	910c      	str	r1, [sp, #48]
    4236:	f7ff fb96 	bl	3966 <_svfprintf_r+0x5b2>
    423a:	981a      	ldr	r0, [sp, #104]
    423c:	991b      	ldr	r1, [sp, #108]
    423e:	f002 fddf 	bl	6e00 <__isnand>
    4242:	2800      	cmp	r0, #0
    4244:	d000      	beq.n	4248 <_svfprintf_r+0xe94>
    4246:	e101      	b.n	444c <_svfprintf_r+0x1098>
    4248:	4643      	mov	r3, r8
    424a:	3301      	adds	r3, #1
    424c:	d100      	bne.n	4250 <_svfprintf_r+0xe9c>
    424e:	e258      	b.n	4702 <_svfprintf_r+0x134e>
    4250:	990b      	ldr	r1, [sp, #44]
    4252:	2967      	cmp	r1, #103
    4254:	d100      	bne.n	4258 <_svfprintf_r+0xea4>
    4256:	e24d      	b.n	46f4 <_svfprintf_r+0x1340>
    4258:	2947      	cmp	r1, #71
    425a:	d100      	bne.n	425e <_svfprintf_r+0xeaa>
    425c:	e24a      	b.n	46f4 <_svfprintf_r+0x1340>
    425e:	9c0d      	ldr	r4, [sp, #52]
    4260:	2380      	movs	r3, #128
    4262:	005b      	lsls	r3, r3, #1
    4264:	431c      	orrs	r4, r3
    4266:	940d      	str	r4, [sp, #52]
    4268:	9b1a      	ldr	r3, [sp, #104]
    426a:	9c1b      	ldr	r4, [sp, #108]
    426c:	2c00      	cmp	r4, #0
    426e:	da00      	bge.n	4272 <_svfprintf_r+0xebe>
    4270:	e237      	b.n	46e2 <_svfprintf_r+0x132e>
    4272:	2100      	movs	r1, #0
    4274:	9406      	str	r4, [sp, #24]
    4276:	9111      	str	r1, [sp, #68]
    4278:	469a      	mov	sl, r3
    427a:	9b0b      	ldr	r3, [sp, #44]
    427c:	3b66      	subs	r3, #102
    427e:	425a      	negs	r2, r3
    4280:	415a      	adcs	r2, r3
    4282:	9b0b      	ldr	r3, [sp, #44]
    4284:	3b46      	subs	r3, #70
    4286:	4259      	negs	r1, r3
    4288:	414b      	adcs	r3, r1
    428a:	1c14      	adds	r4, r2, #0
    428c:	431c      	orrs	r4, r3
    428e:	941c      	str	r4, [sp, #112]
    4290:	d100      	bne.n	4294 <_svfprintf_r+0xee0>
    4292:	e1c8      	b.n	4626 <_svfprintf_r+0x1272>
    4294:	46c1      	mov	r9, r8
    4296:	2303      	movs	r3, #3
    4298:	9300      	str	r3, [sp, #0]
    429a:	464b      	mov	r3, r9
    429c:	9301      	str	r3, [sp, #4]
    429e:	ab42      	add	r3, sp, #264
    42a0:	9c06      	ldr	r4, [sp, #24]
    42a2:	9302      	str	r3, [sp, #8]
    42a4:	ab41      	add	r3, sp, #260
    42a6:	9303      	str	r3, [sp, #12]
    42a8:	ab40      	add	r3, sp, #256
    42aa:	9304      	str	r3, [sp, #16]
    42ac:	9809      	ldr	r0, [sp, #36]
    42ae:	1c23      	adds	r3, r4, #0
    42b0:	4652      	mov	r2, sl
    42b2:	f000 fb7d 	bl	49b0 <_dtoa_r>
    42b6:	9c0b      	ldr	r4, [sp, #44]
    42b8:	900c      	str	r0, [sp, #48]
    42ba:	2c67      	cmp	r4, #103
    42bc:	d100      	bne.n	42c0 <_svfprintf_r+0xf0c>
    42be:	e1ac      	b.n	461a <_svfprintf_r+0x1266>
    42c0:	2c47      	cmp	r4, #71
    42c2:	d100      	bne.n	42c6 <_svfprintf_r+0xf12>
    42c4:	e1a9      	b.n	461a <_svfprintf_r+0x1266>
    42c6:	9a0c      	ldr	r2, [sp, #48]
    42c8:	9b1c      	ldr	r3, [sp, #112]
    42ca:	1c16      	adds	r6, r2, #0
    42cc:	444e      	add	r6, r9
    42ce:	2b00      	cmp	r3, #0
    42d0:	d005      	beq.n	42de <_svfprintf_r+0xf2a>
    42d2:	7813      	ldrb	r3, [r2, #0]
    42d4:	2b30      	cmp	r3, #48
    42d6:	d100      	bne.n	42da <_svfprintf_r+0xf26>
    42d8:	e25f      	b.n	479a <_svfprintf_r+0x13e6>
    42da:	9842      	ldr	r0, [sp, #264]
    42dc:	1836      	adds	r6, r6, r0
    42de:	9c06      	ldr	r4, [sp, #24]
    42e0:	4650      	mov	r0, sl
    42e2:	1c21      	adds	r1, r4, #0
    42e4:	4b7d      	ldr	r3, [pc, #500]	(44dc <_svfprintf_r+0x1128>)
    42e6:	4a7c      	ldr	r2, [pc, #496]	(44d8 <_svfprintf_r+0x1124>)
    42e8:	f003 ebda 	blx	7aa0 <__aeabi_dcmpeq>
    42ec:	2800      	cmp	r0, #0
    42ee:	d000      	beq.n	42f2 <_svfprintf_r+0xf3e>
    42f0:	e1d2      	b.n	4698 <_svfprintf_r+0x12e4>
    42f2:	9a40      	ldr	r2, [sp, #256]
    42f4:	1c13      	adds	r3, r2, #0
    42f6:	42b2      	cmp	r2, r6
    42f8:	d206      	bcs.n	4308 <_svfprintf_r+0xf54>
    42fa:	2330      	movs	r3, #48
    42fc:	7013      	strb	r3, [r2, #0]
    42fe:	3201      	adds	r2, #1
    4300:	9240      	str	r2, [sp, #256]
    4302:	4296      	cmp	r6, r2
    4304:	d8fa      	bhi.n	42fc <_svfprintf_r+0xf48>
    4306:	1c13      	adds	r3, r2, #0
    4308:	9a0c      	ldr	r2, [sp, #48]
    430a:	1a9b      	subs	r3, r3, r2
    430c:	9313      	str	r3, [sp, #76]
    430e:	9b0b      	ldr	r3, [sp, #44]
    4310:	2b67      	cmp	r3, #103
    4312:	d100      	bne.n	4316 <_svfprintf_r+0xf62>
    4314:	e179      	b.n	460a <_svfprintf_r+0x1256>
    4316:	2b47      	cmp	r3, #71
    4318:	d100      	bne.n	431c <_svfprintf_r+0xf68>
    431a:	e176      	b.n	460a <_svfprintf_r+0x1256>
    431c:	9a0b      	ldr	r2, [sp, #44]
    431e:	2a65      	cmp	r2, #101
    4320:	dc00      	bgt.n	4324 <_svfprintf_r+0xf70>
    4322:	e252      	b.n	47ca <_svfprintf_r+0x1416>
    4324:	9b0b      	ldr	r3, [sp, #44]
    4326:	2b66      	cmp	r3, #102
    4328:	d100      	bne.n	432c <_svfprintf_r+0xf78>
    432a:	e1fa      	b.n	4722 <_svfprintf_r+0x136e>
    432c:	9842      	ldr	r0, [sp, #264]
    432e:	9913      	ldr	r1, [sp, #76]
    4330:	4682      	mov	sl, r0
    4332:	458a      	cmp	sl, r1
    4334:	da00      	bge.n	4338 <_svfprintf_r+0xf84>
    4336:	e1e7      	b.n	4708 <_svfprintf_r+0x1354>
    4338:	9a0d      	ldr	r2, [sp, #52]
    433a:	07d2      	lsls	r2, r2, #31
    433c:	d500      	bpl.n	4340 <_svfprintf_r+0xf8c>
    433e:	e23b      	b.n	47b8 <_svfprintf_r+0x1404>
    4340:	9018      	str	r0, [sp, #96]
    4342:	2800      	cmp	r0, #0
    4344:	da00      	bge.n	4348 <_svfprintf_r+0xf94>
    4346:	e1e9      	b.n	471c <_svfprintf_r+0x1368>
    4348:	9a11      	ldr	r2, [sp, #68]
    434a:	2a00      	cmp	r2, #0
    434c:	d100      	bne.n	4350 <_svfprintf_r+0xf9c>
    434e:	e152      	b.n	45f6 <_svfprintf_r+0x1242>
    4350:	4c66      	ldr	r4, [pc, #408]	(44ec <_svfprintf_r+0x1138>)
    4352:	232d      	movs	r3, #45
    4354:	446c      	add	r4, sp
    4356:	2100      	movs	r1, #0
    4358:	7023      	strb	r3, [r4, #0]
    435a:	9117      	str	r1, [sp, #92]
    435c:	f7ff f93f 	bl	35de <_svfprintf_r+0x22a>
    4360:	990d      	ldr	r1, [sp, #52]
    4362:	2301      	movs	r3, #1
    4364:	4301      	orrs	r1, r0
    4366:	449b      	add	fp, r3
    4368:	910d      	str	r1, [sp, #52]
    436a:	465a      	mov	r2, fp
    436c:	7813      	ldrb	r3, [r2, #0]
    436e:	9a1d      	ldr	r2, [sp, #116]
    4370:	921d      	str	r2, [sp, #116]
    4372:	f7ff f87e 	bl	3472 <_svfprintf_r+0xbe>
    4376:	9b0f      	ldr	r3, [sp, #60]
    4378:	425b      	negs	r3, r3
    437a:	930f      	str	r3, [sp, #60]
    437c:	f7ff fbc7 	bl	3b0e <_svfprintf_r+0x75a>
    4380:	9809      	ldr	r0, [sp, #36]
    4382:	9908      	ldr	r1, [sp, #32]
    4384:	1c3a      	adds	r2, r7, #0
    4386:	f7fe ff7f 	bl	3288 <__sprint_r>
    438a:	2800      	cmp	r0, #0
    438c:	d001      	beq.n	4392 <_svfprintf_r+0xfde>
    438e:	f7ff fa46 	bl	381e <_svfprintf_r+0x46a>
    4392:	aa1f      	add	r2, sp, #124
    4394:	e423      	b.n	3bde <_svfprintf_r+0x82a>
    4396:	9b1d      	ldr	r3, [sp, #116]
    4398:	9a1d      	ldr	r2, [sp, #116]
    439a:	681b      	ldr	r3, [r3, #0]
    439c:	4691      	mov	r9, r2
    439e:	2400      	movs	r4, #0
    43a0:	2204      	movs	r2, #4
    43a2:	4491      	add	r9, r2
    43a4:	9314      	str	r3, [sp, #80]
    43a6:	9415      	str	r4, [sp, #84]
    43a8:	2200      	movs	r2, #0
    43aa:	f7ff f8b0 	bl	350e <_svfprintf_r+0x15a>
    43ae:	9b1d      	ldr	r3, [sp, #116]
    43b0:	9a1d      	ldr	r2, [sp, #116]
    43b2:	681b      	ldr	r3, [r3, #0]
    43b4:	4691      	mov	r9, r2
    43b6:	2400      	movs	r4, #0
    43b8:	2204      	movs	r2, #4
    43ba:	4491      	add	r9, r2
    43bc:	9314      	str	r3, [sp, #80]
    43be:	9415      	str	r4, [sp, #84]
    43c0:	2201      	movs	r2, #1
    43c2:	f7ff f8a4 	bl	350e <_svfprintf_r+0x15a>
    43c6:	9b1d      	ldr	r3, [sp, #116]
    43c8:	9a1d      	ldr	r2, [sp, #116]
    43ca:	681b      	ldr	r3, [r3, #0]
    43cc:	4691      	mov	r9, r2
    43ce:	2400      	movs	r4, #0
    43d0:	2204      	movs	r2, #4
    43d2:	4491      	add	r9, r2
    43d4:	9314      	str	r3, [sp, #80]
    43d6:	9415      	str	r4, [sp, #84]
    43d8:	f7ff fae1 	bl	399e <_svfprintf_r+0x5ea>
    43dc:	4643      	mov	r3, r8
    43de:	2100      	movs	r1, #0
    43e0:	9318      	str	r3, [sp, #96]
    43e2:	46c2      	mov	sl, r8
    43e4:	9117      	str	r1, [sp, #92]
    43e6:	f7ff f8f5 	bl	35d4 <_svfprintf_r+0x220>
    43ea:	980c      	ldr	r0, [sp, #48]
    43ec:	f002 fd34 	bl	6e58 <strlen>
    43f0:	4682      	mov	sl, r0
    43f2:	9018      	str	r0, [sp, #96]
    43f4:	2800      	cmp	r0, #0
    43f6:	db01      	blt.n	43fc <_svfprintf_r+0x1048>
    43f8:	f7ff fb76 	bl	3ae8 <_svfprintf_r+0x734>
    43fc:	2100      	movs	r1, #0
    43fe:	9118      	str	r1, [sp, #96]
    4400:	f7ff fb72 	bl	3ae8 <_svfprintf_r+0x734>
    4404:	9a1d      	ldr	r2, [sp, #116]
    4406:	4691      	mov	r9, r2
    4408:	2204      	movs	r2, #4
    440a:	4491      	add	r9, r2
    440c:	f7ff f895 	bl	353a <_svfprintf_r+0x186>
    4410:	9a0d      	ldr	r2, [sp, #52]
    4412:	0652      	lsls	r2, r2, #25
    4414:	d52d      	bpl.n	4472 <_svfprintf_r+0x10be>
    4416:	9b1d      	ldr	r3, [sp, #116]
    4418:	9c1d      	ldr	r4, [sp, #116]
    441a:	4698      	mov	r8, r3
    441c:	4669      	mov	r1, sp
    441e:	2304      	movs	r3, #4
    4420:	2238      	movs	r2, #56
    4422:	4498      	add	r8, r3
    4424:	5a51      	ldrh	r1, [r2, r1]
    4426:	6823      	ldr	r3, [r4, #0]
    4428:	8019      	strh	r1, [r3, #0]
    442a:	f7fe ffed 	bl	3408 <_svfprintf_r+0x54>
    442e:	9809      	ldr	r0, [sp, #36]
    4430:	2140      	movs	r1, #64
    4432:	f001 fb27 	bl	5a84 <_malloc_r>
    4436:	9b08      	ldr	r3, [sp, #32]
    4438:	6018      	str	r0, [r3, #0]
    443a:	6118      	str	r0, [r3, #16]
    443c:	2800      	cmp	r0, #0
    443e:	d100      	bne.n	4442 <_svfprintf_r+0x108e>
    4440:	e1cd      	b.n	47de <_svfprintf_r+0x142a>
    4442:	9a08      	ldr	r2, [sp, #32]
    4444:	2340      	movs	r3, #64
    4446:	6153      	str	r3, [r2, #20]
    4448:	f7fe ffcc 	bl	33e4 <_svfprintf_r+0x30>
    444c:	990b      	ldr	r1, [sp, #44]
    444e:	2947      	cmp	r1, #71
    4450:	dc00      	bgt.n	4454 <_svfprintf_r+0x10a0>
    4452:	e0c3      	b.n	45dc <_svfprintf_r+0x1228>
    4454:	4a26      	ldr	r2, [pc, #152]	(44f0 <_svfprintf_r+0x113c>)
    4456:	920c      	str	r2, [sp, #48]
    4458:	9c0d      	ldr	r4, [sp, #52]
    445a:	2380      	movs	r3, #128
    445c:	2203      	movs	r2, #3
    445e:	439c      	bics	r4, r3
    4460:	2100      	movs	r1, #0
    4462:	940d      	str	r4, [sp, #52]
    4464:	9117      	str	r1, [sp, #92]
    4466:	4692      	mov	sl, r2
    4468:	9218      	str	r2, [sp, #96]
    446a:	f7ff f8b3 	bl	35d4 <_svfprintf_r+0x220>
    446e:	1c3c      	adds	r4, r7, #0
    4470:	e545      	b.n	3efe <_svfprintf_r+0xb4a>
    4472:	9c1d      	ldr	r4, [sp, #116]
    4474:	9a1d      	ldr	r2, [sp, #116]
    4476:	6823      	ldr	r3, [r4, #0]
    4478:	990e      	ldr	r1, [sp, #56]
    447a:	4690      	mov	r8, r2
    447c:	2204      	movs	r2, #4
    447e:	4490      	add	r8, r2
    4480:	6019      	str	r1, [r3, #0]
    4482:	f7fe ffc1 	bl	3408 <_svfprintf_r+0x54>
    4486:	9809      	ldr	r0, [sp, #36]
    4488:	9908      	ldr	r1, [sp, #32]
    448a:	1c3a      	adds	r2, r7, #0
    448c:	f7fe fefc 	bl	3288 <__sprint_r>
    4490:	2800      	cmp	r0, #0
    4492:	d001      	beq.n	4498 <_svfprintf_r+0x10e4>
    4494:	f7ff f9c3 	bl	381e <_svfprintf_r+0x46a>
    4498:	aa1f      	add	r2, sp, #124
    449a:	e688      	b.n	41ae <_svfprintf_r+0xdfa>
    449c:	9809      	ldr	r0, [sp, #36]
    449e:	9908      	ldr	r1, [sp, #32]
    44a0:	1c3a      	adds	r2, r7, #0
    44a2:	f7fe fef1 	bl	3288 <__sprint_r>
    44a6:	2800      	cmp	r0, #0
    44a8:	d001      	beq.n	44ae <_svfprintf_r+0x10fa>
    44aa:	f7ff f9b8 	bl	381e <_svfprintf_r+0x46a>
    44ae:	f7ff f9b4 	bl	381a <_svfprintf_r+0x466>
    44b2:	9809      	ldr	r0, [sp, #36]
    44b4:	9908      	ldr	r1, [sp, #32]
    44b6:	1c3a      	adds	r2, r7, #0
    44b8:	f7fe fee6 	bl	3288 <__sprint_r>
    44bc:	2800      	cmp	r0, #0
    44be:	d001      	beq.n	44c4 <_svfprintf_r+0x1110>
    44c0:	f7ff f9ad 	bl	381e <_svfprintf_r+0x46a>
    44c4:	aa1f      	add	r2, sp, #124
    44c6:	9913      	ldr	r1, [sp, #76]
    44c8:	6051      	str	r1, [r2, #4]
    44ca:	9c0c      	ldr	r4, [sp, #48]
    44cc:	68bb      	ldr	r3, [r7, #8]
    44ce:	6014      	str	r4, [r2, #0]
    44d0:	18cb      	adds	r3, r1, r3
    44d2:	f7ff fbfe 	bl	3cd2 <_svfprintf_r+0x91e>
    44d6:	46c0      	nop			(mov r8, r8)
	...
    44e0:	00008c84 	.word	0x00008c84
    44e4:	00008d00 	.word	0x00008d00
    44e8:	00008cbc 	.word	0x00008cbc
    44ec:	0000010f 	.word	0x0000010f
    44f0:	00008cc0 	.word	0x00008cc0
    44f4:	4ec8      	ldr	r6, [pc, #800]	(4818 <_svfprintf_r+0x1464>)
    44f6:	1c33      	adds	r3, r6, #0
    44f8:	6054      	str	r4, [r2, #4]
    44fa:	3310      	adds	r3, #16
    44fc:	6013      	str	r3, [r2, #0]
    44fe:	68bb      	ldr	r3, [r7, #8]
    4500:	18e3      	adds	r3, r4, r3
    4502:	60bb      	str	r3, [r7, #8]
    4504:	687b      	ldr	r3, [r7, #4]
    4506:	3301      	adds	r3, #1
    4508:	607b      	str	r3, [r7, #4]
    450a:	2b07      	cmp	r3, #7
    450c:	dd00      	ble.n	4510 <_svfprintf_r+0x115c>
    450e:	e626      	b.n	415e <_svfprintf_r+0xdaa>
    4510:	3208      	adds	r2, #8
    4512:	e62e      	b.n	4172 <_svfprintf_r+0xdbe>
    4514:	4ac1      	ldr	r2, [pc, #772]	(481c <_svfprintf_r+0x1468>)
    4516:	232d      	movs	r3, #45
    4518:	446a      	add	r2, sp
    451a:	7013      	strb	r3, [r2, #0]
    451c:	f7ff fa1c 	bl	3958 <_svfprintf_r+0x5a4>
    4520:	4ebd      	ldr	r6, [pc, #756]	(4818 <_svfprintf_r+0x1464>)
    4522:	f7ff f894 	bl	364e <_svfprintf_r+0x29a>
    4526:	9a0c      	ldr	r2, [sp, #48]
    4528:	1aba      	subs	r2, r7, r2
    452a:	4692      	mov	sl, r2
    452c:	f7ff f848 	bl	35c0 <_svfprintf_r+0x20c>
    4530:	4eb9      	ldr	r6, [pc, #740]	(4818 <_svfprintf_r+0x1464>)
    4532:	1c33      	adds	r3, r6, #0
    4534:	6054      	str	r4, [r2, #4]
    4536:	3310      	adds	r3, #16
    4538:	6013      	str	r3, [r2, #0]
    453a:	68bb      	ldr	r3, [r7, #8]
    453c:	18e3      	adds	r3, r4, r3
    453e:	60bb      	str	r3, [r7, #8]
    4540:	687b      	ldr	r3, [r7, #4]
    4542:	3301      	adds	r3, #1
    4544:	607b      	str	r3, [r7, #4]
    4546:	2b07      	cmp	r3, #7
    4548:	dcb3      	bgt.n	44b2 <_svfprintf_r+0x10fe>
    454a:	3208      	adds	r2, #8
    454c:	e7bb      	b.n	44c6 <_svfprintf_r+0x1112>
    454e:	4eb2      	ldr	r6, [pc, #712]	(4818 <_svfprintf_r+0x1464>)
    4550:	f7ff f932 	bl	37b8 <_svfprintf_r+0x404>
    4554:	4642      	mov	r2, r8
    4556:	2a06      	cmp	r2, #6
    4558:	d943      	bls.n	45e2 <_svfprintf_r+0x122e>
    455a:	4bb1      	ldr	r3, [pc, #708]	(4820 <_svfprintf_r+0x146c>)
    455c:	2406      	movs	r4, #6
    455e:	930c      	str	r3, [sp, #48]
    4560:	46a2      	mov	sl, r4
    4562:	9418      	str	r4, [sp, #96]
    4564:	f7fe ff9a 	bl	349c <_svfprintf_r+0xe8>
    4568:	9809      	ldr	r0, [sp, #36]
    456a:	9908      	ldr	r1, [sp, #32]
    456c:	1c3a      	adds	r2, r7, #0
    456e:	f7fe fe8b 	bl	3288 <__sprint_r>
    4572:	2800      	cmp	r0, #0
    4574:	d001      	beq.n	457a <_svfprintf_r+0x11c6>
    4576:	f7ff f952 	bl	381e <_svfprintf_r+0x46a>
    457a:	aa1f      	add	r2, sp, #124
    457c:	e5bc      	b.n	40f8 <_svfprintf_r+0xd44>
    457e:	9809      	ldr	r0, [sp, #36]
    4580:	9908      	ldr	r1, [sp, #32]
    4582:	1c3a      	adds	r2, r7, #0
    4584:	f7fe fe80 	bl	3288 <__sprint_r>
    4588:	2800      	cmp	r0, #0
    458a:	d001      	beq.n	4590 <_svfprintf_r+0x11dc>
    458c:	f7ff f947 	bl	381e <_svfprintf_r+0x46a>
    4590:	aa1f      	add	r2, sp, #124
    4592:	e451      	b.n	3e38 <_svfprintf_r+0xa84>
    4594:	9809      	ldr	r0, [sp, #36]
    4596:	9908      	ldr	r1, [sp, #32]
    4598:	1c3a      	adds	r2, r7, #0
    459a:	f7fe fe75 	bl	3288 <__sprint_r>
    459e:	2800      	cmp	r0, #0
    45a0:	d001      	beq.n	45a6 <_svfprintf_r+0x11f2>
    45a2:	f7ff f93c 	bl	381e <_svfprintf_r+0x46a>
    45a6:	a91f      	add	r1, sp, #124
    45a8:	e5b6      	b.n	4118 <_svfprintf_r+0xd64>
    45aa:	4e9b      	ldr	r6, [pc, #620]	(4818 <_svfprintf_r+0x1464>)
    45ac:	f7ff fb77 	bl	3c9e <_svfprintf_r+0x8ea>
    45b0:	9809      	ldr	r0, [sp, #36]
    45b2:	9908      	ldr	r1, [sp, #32]
    45b4:	1c3a      	adds	r2, r7, #0
    45b6:	f7fe fe67 	bl	3288 <__sprint_r>
    45ba:	2800      	cmp	r0, #0
    45bc:	d001      	beq.n	45c2 <_svfprintf_r+0x120e>
    45be:	f7ff f92e 	bl	381e <_svfprintf_r+0x46a>
    45c2:	aa1f      	add	r2, sp, #124
    45c4:	e60c      	b.n	41e0 <_svfprintf_r+0xe2c>
    45c6:	4642      	mov	r2, r8
    45c8:	2100      	movs	r1, #0
    45ca:	9218      	str	r2, [sp, #96]
    45cc:	46c2      	mov	sl, r8
    45ce:	9117      	str	r1, [sp, #92]
    45d0:	f7ff f800 	bl	35d4 <_svfprintf_r+0x220>
    45d4:	2100      	movs	r1, #0
    45d6:	4688      	mov	r8, r1
    45d8:	f7fe ff4e 	bl	3478 <_svfprintf_r+0xc4>
    45dc:	4b91      	ldr	r3, [pc, #580]	(4824 <_svfprintf_r+0x1470>)
    45de:	930c      	str	r3, [sp, #48]
    45e0:	e73a      	b.n	4458 <_svfprintf_r+0x10a4>
    45e2:	4641      	mov	r1, r8
    45e4:	9218      	str	r2, [sp, #96]
    45e6:	2900      	cmp	r1, #0
    45e8:	da00      	bge.n	45ec <_svfprintf_r+0x1238>
    45ea:	e0bd      	b.n	4768 <_svfprintf_r+0x13b4>
    45ec:	4b8c      	ldr	r3, [pc, #560]	(4820 <_svfprintf_r+0x146c>)
    45ee:	46c2      	mov	sl, r8
    45f0:	930c      	str	r3, [sp, #48]
    45f2:	f7fe ff53 	bl	349c <_svfprintf_r+0xe8>
    45f6:	4653      	mov	r3, sl
    45f8:	4651      	mov	r1, sl
    45fa:	9318      	str	r3, [sp, #96]
    45fc:	2900      	cmp	r1, #0
    45fe:	da00      	bge.n	4602 <_svfprintf_r+0x124e>
    4600:	e0e5      	b.n	47ce <_svfprintf_r+0x141a>
    4602:	2300      	movs	r3, #0
    4604:	9317      	str	r3, [sp, #92]
    4606:	f7fe ffe5 	bl	35d4 <_svfprintf_r+0x220>
    460a:	9842      	ldr	r0, [sp, #264]
    460c:	1cc4      	adds	r4, r0, #3
    460e:	db14      	blt.n	463a <_svfprintf_r+0x1286>
    4610:	4580      	cmp	r8, r0
    4612:	db12      	blt.n	463a <_svfprintf_r+0x1286>
    4614:	2467      	movs	r4, #103
    4616:	940b      	str	r4, [sp, #44]
    4618:	e689      	b.n	432e <_svfprintf_r+0xf7a>
    461a:	990d      	ldr	r1, [sp, #52]
    461c:	07c9      	lsls	r1, r1, #31
    461e:	d500      	bpl.n	4622 <_svfprintf_r+0x126e>
    4620:	e651      	b.n	42c6 <_svfprintf_r+0xf12>
    4622:	9b40      	ldr	r3, [sp, #256]
    4624:	e670      	b.n	4308 <_svfprintf_r+0xf54>
    4626:	990b      	ldr	r1, [sp, #44]
    4628:	2965      	cmp	r1, #101
    462a:	d100      	bne.n	462e <_svfprintf_r+0x127a>
    462c:	e086      	b.n	473c <_svfprintf_r+0x1388>
    462e:	2945      	cmp	r1, #69
    4630:	d100      	bne.n	4634 <_svfprintf_r+0x1280>
    4632:	e083      	b.n	473c <_svfprintf_r+0x1388>
    4634:	46c1      	mov	r9, r8
    4636:	2302      	movs	r3, #2
    4638:	e62e      	b.n	4298 <_svfprintf_r+0xee4>
    463a:	990b      	ldr	r1, [sp, #44]
    463c:	3902      	subs	r1, #2
    463e:	910b      	str	r1, [sp, #44]
    4640:	a90b      	add	r1, sp, #44
    4642:	23f9      	movs	r3, #249
    4644:	7809      	ldrb	r1, [r1, #0]
    4646:	446b      	add	r3, sp
    4648:	1e44      	subs	r4, r0, #1
    464a:	9442      	str	r4, [sp, #264]
    464c:	4698      	mov	r8, r3
    464e:	7019      	strb	r1, [r3, #0]
    4650:	2c00      	cmp	r4, #0
    4652:	da00      	bge.n	4656 <_svfprintf_r+0x12a2>
    4654:	e09c      	b.n	4790 <_svfprintf_r+0x13dc>
    4656:	232b      	movs	r3, #43
    4658:	4641      	mov	r1, r8
    465a:	704b      	strb	r3, [r1, #1]
    465c:	2c09      	cmp	r4, #9
    465e:	dc1e      	bgt.n	469e <_svfprintf_r+0x12ea>
    4660:	2330      	movs	r3, #48
    4662:	4642      	mov	r2, r8
    4664:	7093      	strb	r3, [r2, #2]
    4666:	1c23      	adds	r3, r4, #0
    4668:	3330      	adds	r3, #48
    466a:	70d3      	strb	r3, [r2, #3]
    466c:	466b      	mov	r3, sp
    466e:	33fd      	adds	r3, #253
    4670:	4644      	mov	r4, r8
    4672:	1b1c      	subs	r4, r3, r4
    4674:	9913      	ldr	r1, [sp, #76]
    4676:	46a2      	mov	sl, r4
    4678:	9412      	str	r4, [sp, #72]
    467a:	448a      	add	sl, r1
    467c:	2901      	cmp	r1, #1
    467e:	dc00      	bgt.n	4682 <_svfprintf_r+0x12ce>
    4680:	e0a8      	b.n	47d4 <_svfprintf_r+0x1420>
    4682:	2301      	movs	r3, #1
    4684:	449a      	add	sl, r3
    4686:	4654      	mov	r4, sl
    4688:	4651      	mov	r1, sl
    468a:	9418      	str	r4, [sp, #96]
    468c:	2900      	cmp	r1, #0
    468e:	db00      	blt.n	4692 <_svfprintf_r+0x12de>
    4690:	e65a      	b.n	4348 <_svfprintf_r+0xf94>
    4692:	2200      	movs	r2, #0
    4694:	9218      	str	r2, [sp, #96]
    4696:	e657      	b.n	4348 <_svfprintf_r+0xf94>
    4698:	9640      	str	r6, [sp, #256]
    469a:	1c33      	adds	r3, r6, #0
    469c:	e634      	b.n	4308 <_svfprintf_r+0xf54>
    469e:	4646      	mov	r6, r8
    46a0:	1c20      	adds	r0, r4, #0
    46a2:	210a      	movs	r1, #10
    46a4:	f002 fd2e 	bl	7104 <__aeabi_idivmod>
    46a8:	3e01      	subs	r6, #1
    46aa:	3130      	adds	r1, #48
    46ac:	7031      	strb	r1, [r6, #0]
    46ae:	1c20      	adds	r0, r4, #0
    46b0:	210a      	movs	r1, #10
    46b2:	f002 fcd9 	bl	7068 <__aeabi_idiv>
    46b6:	1c04      	adds	r4, r0, #0
    46b8:	2809      	cmp	r0, #9
    46ba:	dcf1      	bgt.n	46a0 <_svfprintf_r+0x12ec>
    46bc:	1c03      	adds	r3, r0, #0
    46be:	3330      	adds	r3, #48
    46c0:	061b      	lsls	r3, r3, #24
    46c2:	1e72      	subs	r2, r6, #1
    46c4:	0e18      	lsrs	r0, r3, #24
    46c6:	7010      	strb	r0, [r2, #0]
    46c8:	4590      	cmp	r8, r2
    46ca:	d800      	bhi.n	46ce <_svfprintf_r+0x131a>
    46cc:	e09a      	b.n	4804 <_svfprintf_r+0x1450>
    46ce:	466b      	mov	r3, sp
    46d0:	33fb      	adds	r3, #251
    46d2:	e000      	b.n	46d6 <_svfprintf_r+0x1322>
    46d4:	7810      	ldrb	r0, [r2, #0]
    46d6:	3201      	adds	r2, #1
    46d8:	7018      	strb	r0, [r3, #0]
    46da:	3301      	adds	r3, #1
    46dc:	4590      	cmp	r8, r2
    46de:	d8f9      	bhi.n	46d4 <_svfprintf_r+0x1320>
    46e0:	e7c6      	b.n	4670 <_svfprintf_r+0x12bc>
    46e2:	4c51      	ldr	r4, [pc, #324]	(4828 <_svfprintf_r+0x1474>)
    46e4:	9b1b      	ldr	r3, [sp, #108]
    46e6:	9a1a      	ldr	r2, [sp, #104]
    46e8:	191c      	adds	r4, r3, r4
    46ea:	212d      	movs	r1, #45
    46ec:	4692      	mov	sl, r2
    46ee:	9406      	str	r4, [sp, #24]
    46f0:	9111      	str	r1, [sp, #68]
    46f2:	e5c2      	b.n	427a <_svfprintf_r+0xec6>
    46f4:	4642      	mov	r2, r8
    46f6:	2a00      	cmp	r2, #0
    46f8:	d000      	beq.n	46fc <_svfprintf_r+0x1348>
    46fa:	e5b0      	b.n	425e <_svfprintf_r+0xeaa>
    46fc:	2301      	movs	r3, #1
    46fe:	4698      	mov	r8, r3
    4700:	e5ad      	b.n	425e <_svfprintf_r+0xeaa>
    4702:	2406      	movs	r4, #6
    4704:	46a0      	mov	r8, r4
    4706:	e5aa      	b.n	425e <_svfprintf_r+0xeaa>
    4708:	2800      	cmp	r0, #0
    470a:	dd1e      	ble.n	474a <_svfprintf_r+0x1396>
    470c:	2001      	movs	r0, #1
    470e:	9b13      	ldr	r3, [sp, #76]
    4710:	181b      	adds	r3, r3, r0
    4712:	469a      	mov	sl, r3
    4714:	9318      	str	r3, [sp, #96]
    4716:	2b00      	cmp	r3, #0
    4718:	db00      	blt.n	471c <_svfprintf_r+0x1368>
    471a:	e615      	b.n	4348 <_svfprintf_r+0xf94>
    471c:	2100      	movs	r1, #0
    471e:	9118      	str	r1, [sp, #96]
    4720:	e612      	b.n	4348 <_svfprintf_r+0xf94>
    4722:	9c42      	ldr	r4, [sp, #264]
    4724:	46a2      	mov	sl, r4
    4726:	2c00      	cmp	r4, #0
    4728:	dc00      	bgt.n	472c <_svfprintf_r+0x1378>
    472a:	e07f      	b.n	482c <_svfprintf_r+0x1478>
    472c:	4641      	mov	r1, r8
    472e:	2900      	cmp	r1, #0
    4730:	d10e      	bne.n	4750 <_svfprintf_r+0x139c>
    4732:	9a0d      	ldr	r2, [sp, #52]
    4734:	07d2      	lsls	r2, r2, #31
    4736:	d40b      	bmi.n	4750 <_svfprintf_r+0x139c>
    4738:	9418      	str	r4, [sp, #96]
    473a:	e605      	b.n	4348 <_svfprintf_r+0xf94>
    473c:	2201      	movs	r2, #1
    473e:	4691      	mov	r9, r2
    4740:	44c1      	add	r9, r8
    4742:	2302      	movs	r3, #2
    4744:	e5a8      	b.n	4298 <_svfprintf_r+0xee4>
    4746:	4e34      	ldr	r6, [pc, #208]	(4818 <_svfprintf_r+0x1464>)
    4748:	e419      	b.n	3f7e <_svfprintf_r+0xbca>
    474a:	2302      	movs	r3, #2
    474c:	1a18      	subs	r0, r3, r0
    474e:	e7de      	b.n	470e <_svfprintf_r+0x135a>
    4750:	4653      	mov	r3, sl
    4752:	3301      	adds	r3, #1
    4754:	469a      	mov	sl, r3
    4756:	44c2      	add	sl, r8
    4758:	4652      	mov	r2, sl
    475a:	4651      	mov	r1, sl
    475c:	9218      	str	r2, [sp, #96]
    475e:	2900      	cmp	r1, #0
    4760:	db4d      	blt.n	47fe <_svfprintf_r+0x144a>
    4762:	2366      	movs	r3, #102
    4764:	930b      	str	r3, [sp, #44]
    4766:	e5ef      	b.n	4348 <_svfprintf_r+0xf94>
    4768:	2200      	movs	r2, #0
    476a:	9218      	str	r2, [sp, #96]
    476c:	e73e      	b.n	45ec <_svfprintf_r+0x1238>
    476e:	9b1d      	ldr	r3, [sp, #116]
    4770:	9a1d      	ldr	r2, [sp, #116]
    4772:	681b      	ldr	r3, [r3, #0]
    4774:	3204      	adds	r2, #4
    4776:	4698      	mov	r8, r3
    4778:	2b00      	cmp	r3, #0
    477a:	db01      	blt.n	4780 <_svfprintf_r+0x13cc>
    477c:	f7ff f8a4 	bl	38c8 <_svfprintf_r+0x514>
    4780:	4659      	mov	r1, fp
    4782:	780b      	ldrb	r3, [r1, #0]
    4784:	2101      	movs	r1, #1
    4786:	4249      	negs	r1, r1
    4788:	4688      	mov	r8, r1
    478a:	921d      	str	r2, [sp, #116]
    478c:	f7fe fe71 	bl	3472 <_svfprintf_r+0xbe>
    4790:	232d      	movs	r3, #45
    4792:	4642      	mov	r2, r8
    4794:	4264      	negs	r4, r4
    4796:	7053      	strb	r3, [r2, #1]
    4798:	e760      	b.n	465c <_svfprintf_r+0x12a8>
    479a:	9c06      	ldr	r4, [sp, #24]
    479c:	4650      	mov	r0, sl
    479e:	1c21      	adds	r1, r4, #0
    47a0:	4b1c      	ldr	r3, [pc, #112]	(4814 <_svfprintf_r+0x1460>)
    47a2:	4a1b      	ldr	r2, [pc, #108]	(4810 <_svfprintf_r+0x145c>)
    47a4:	f003 e97c 	blx	7aa0 <__aeabi_dcmpeq>
    47a8:	2800      	cmp	r0, #0
    47aa:	d000      	beq.n	47ae <_svfprintf_r+0x13fa>
    47ac:	e595      	b.n	42da <_svfprintf_r+0xf26>
    47ae:	2301      	movs	r3, #1
    47b0:	4649      	mov	r1, r9
    47b2:	1a5b      	subs	r3, r3, r1
    47b4:	9342      	str	r3, [sp, #264]
    47b6:	e590      	b.n	42da <_svfprintf_r+0xf26>
    47b8:	2201      	movs	r2, #1
    47ba:	4492      	add	sl, r2
    47bc:	4653      	mov	r3, sl
    47be:	4651      	mov	r1, sl
    47c0:	9318      	str	r3, [sp, #96]
    47c2:	2900      	cmp	r1, #0
    47c4:	db00      	blt.n	47c8 <_svfprintf_r+0x1414>
    47c6:	e5bf      	b.n	4348 <_svfprintf_r+0xf94>
    47c8:	e763      	b.n	4692 <_svfprintf_r+0x12de>
    47ca:	9842      	ldr	r0, [sp, #264]
    47cc:	e738      	b.n	4640 <_svfprintf_r+0x128c>
    47ce:	2200      	movs	r2, #0
    47d0:	9218      	str	r2, [sp, #96]
    47d2:	e716      	b.n	4602 <_svfprintf_r+0x124e>
    47d4:	9a0d      	ldr	r2, [sp, #52]
    47d6:	07d2      	lsls	r2, r2, #31
    47d8:	d500      	bpl.n	47dc <_svfprintf_r+0x1428>
    47da:	e752      	b.n	4682 <_svfprintf_r+0x12ce>
    47dc:	e7ee      	b.n	47bc <_svfprintf_r+0x1408>
    47de:	9c09      	ldr	r4, [sp, #36]
    47e0:	2101      	movs	r1, #1
    47e2:	230c      	movs	r3, #12
    47e4:	4249      	negs	r1, r1
    47e6:	6023      	str	r3, [r4, #0]
    47e8:	910e      	str	r1, [sp, #56]
    47ea:	f7ff f81f 	bl	382c <_svfprintf_r+0x478>
    47ee:	2302      	movs	r3, #2
    47f0:	469a      	mov	sl, r3
    47f2:	44c2      	add	sl, r8
    47f4:	4654      	mov	r4, sl
    47f6:	4651      	mov	r1, sl
    47f8:	9418      	str	r4, [sp, #96]
    47fa:	2900      	cmp	r1, #0
    47fc:	dab1      	bge.n	4762 <_svfprintf_r+0x13ae>
    47fe:	2200      	movs	r2, #0
    4800:	9218      	str	r2, [sp, #96]
    4802:	e7ae      	b.n	4762 <_svfprintf_r+0x13ae>
    4804:	466b      	mov	r3, sp
    4806:	33fb      	adds	r3, #251
    4808:	e732      	b.n	4670 <_svfprintf_r+0x12bc>
    480a:	46c0      	nop			(mov r8, r8)
    480c:	46c0      	nop			(mov r8, r8)
    480e:	46c0      	nop			(mov r8, r8)
	...
    4818:	00008c84 	.word	0x00008c84
    481c:	0000010f 	.word	0x0000010f
    4820:	00008cdc 	.word	0x00008cdc
    4824:	00008cc4 	.word	0x00008cc4
    4828:	80000000 	.word	0x80000000
    482c:	4644      	mov	r4, r8
    482e:	2c00      	cmp	r4, #0
    4830:	d1dd      	bne.n	47ee <_svfprintf_r+0x143a>
    4832:	990d      	ldr	r1, [sp, #52]
    4834:	07c9      	lsls	r1, r1, #31
    4836:	d4da      	bmi.n	47ee <_svfprintf_r+0x143a>
    4838:	2201      	movs	r2, #1
    483a:	4692      	mov	sl, r2
    483c:	9218      	str	r2, [sp, #96]
    483e:	e583      	b.n	4348 <_svfprintf_r+0xf94>

00004840 <quorem>:
    4840:	b5f0      	push	{r4, r5, r6, r7, lr}
    4842:	465f      	mov	r7, fp
    4844:	4656      	mov	r6, sl
    4846:	464d      	mov	r5, r9
    4848:	4644      	mov	r4, r8
    484a:	b4f0      	push	{r4, r5, r6, r7}
    484c:	690a      	ldr	r2, [r1, #16]
    484e:	6903      	ldr	r3, [r0, #16]
    4850:	b085      	sub	sp, #20
    4852:	4683      	mov	fp, r0
    4854:	9101      	str	r1, [sp, #4]
    4856:	429a      	cmp	r2, r3
    4858:	dd00      	ble.n	485c <quorem+0x1c>
    485a:	e0a4      	b.n	49a6 <quorem+0x166>
    485c:	9901      	ldr	r1, [sp, #4]
    485e:	1e53      	subs	r3, r2, #1
    4860:	4688      	mov	r8, r1
    4862:	2114      	movs	r1, #20
    4864:	4488      	add	r8, r1
    4866:	4699      	mov	r9, r3
    4868:	9901      	ldr	r1, [sp, #4]
    486a:	1cd3      	adds	r3, r2, #3
    486c:	009b      	lsls	r3, r3, #2
    486e:	18ca      	adds	r2, r1, r3
    4870:	1d11      	adds	r1, r2, #4
    4872:	9102      	str	r1, [sp, #8]
    4874:	4659      	mov	r1, fp
    4876:	3114      	adds	r1, #20
    4878:	9103      	str	r1, [sp, #12]
    487a:	6851      	ldr	r1, [r2, #4]
    487c:	445b      	add	r3, fp
    487e:	3101      	adds	r1, #1
    4880:	6858      	ldr	r0, [r3, #4]
    4882:	f002 fba7 	bl	6fd4 <__aeabi_uidiv>
    4886:	4682      	mov	sl, r0
    4888:	2800      	cmp	r0, #0
    488a:	d148      	bne.n	491e <quorem+0xde>
    488c:	464f      	mov	r7, r9
    488e:	4658      	mov	r0, fp
    4890:	9901      	ldr	r1, [sp, #4]
    4892:	f001 fc7d 	bl	6190 <__mcmp>
    4896:	2800      	cmp	r0, #0
    4898:	db37      	blt.n	490a <quorem+0xca>
    489a:	2201      	movs	r2, #1
    489c:	9c03      	ldr	r4, [sp, #12]
    489e:	4d43      	ldr	r5, [pc, #268]	(49ac <quorem+0x16c>)
    48a0:	4492      	add	sl, r2
    48a2:	2600      	movs	r6, #0
    48a4:	4643      	mov	r3, r8
    48a6:	3304      	adds	r3, #4
    48a8:	4698      	mov	r8, r3
    48aa:	3b04      	subs	r3, #4
    48ac:	cb01      	ldmia	r3!, {r0}
    48ae:	6823      	ldr	r3, [r4, #0]
    48b0:	1c01      	adds	r1, r0, #0
    48b2:	1c1a      	adds	r2, r3, #0
    48b4:	4029      	ands	r1, r5
    48b6:	402a      	ands	r2, r5
    48b8:	1a52      	subs	r2, r2, r1
    48ba:	1992      	adds	r2, r2, r6
    48bc:	0c1b      	lsrs	r3, r3, #16
    48be:	0c00      	lsrs	r0, r0, #16
    48c0:	1411      	asrs	r1, r2, #16
    48c2:	1a1b      	subs	r3, r3, r0
    48c4:	185b      	adds	r3, r3, r1
    48c6:	141e      	asrs	r6, r3, #16
    48c8:	402a      	ands	r2, r5
    48ca:	041b      	lsls	r3, r3, #16
    48cc:	9902      	ldr	r1, [sp, #8]
    48ce:	4313      	orrs	r3, r2
    48d0:	c408      	stmia	r4!, {r3}
    48d2:	4541      	cmp	r1, r8
    48d4:	d2e6      	bcs.n	48a4 <quorem+0x64>
    48d6:	464b      	mov	r3, r9
    48d8:	3304      	adds	r3, #4
    48da:	009b      	lsls	r3, r3, #2
    48dc:	465a      	mov	r2, fp
    48de:	18d1      	adds	r1, r2, r3
    48e0:	684b      	ldr	r3, [r1, #4]
    48e2:	2b00      	cmp	r3, #0
    48e4:	d111      	bne.n	490a <quorem+0xca>
    48e6:	9b03      	ldr	r3, [sp, #12]
    48e8:	1c0a      	adds	r2, r1, #0
    48ea:	4293      	cmp	r3, r2
    48ec:	d20b      	bcs.n	4906 <quorem+0xc6>
    48ee:	680b      	ldr	r3, [r1, #0]
    48f0:	2b00      	cmp	r3, #0
    48f2:	d003      	beq.n	48fc <quorem+0xbc>
    48f4:	e007      	b.n	4906 <quorem+0xc6>
    48f6:	6813      	ldr	r3, [r2, #0]
    48f8:	2b00      	cmp	r3, #0
    48fa:	d104      	bne.n	4906 <quorem+0xc6>
    48fc:	9903      	ldr	r1, [sp, #12]
    48fe:	3a04      	subs	r2, #4
    4900:	3f01      	subs	r7, #1
    4902:	4291      	cmp	r1, r2
    4904:	d3f7      	bcc.n	48f6 <quorem+0xb6>
    4906:	465a      	mov	r2, fp
    4908:	6117      	str	r7, [r2, #16]
    490a:	4650      	mov	r0, sl
    490c:	b005      	add	sp, #20
    490e:	bc3c      	pop	{r2, r3, r4, r5}
    4910:	4690      	mov	r8, r2
    4912:	4699      	mov	r9, r3
    4914:	46a2      	mov	sl, r4
    4916:	46ab      	mov	fp, r5
    4918:	bcf0      	pop	{r4, r5, r6, r7}
    491a:	bc02      	pop	{r1}
    491c:	4708      	bx	r1
    491e:	2700      	movs	r7, #0
    4920:	9d03      	ldr	r5, [sp, #12]
    4922:	4e22      	ldr	r6, [pc, #136]	(49ac <quorem+0x16c>)
    4924:	4644      	mov	r4, r8
    4926:	46bc      	mov	ip, r7
    4928:	cc04      	ldmia	r4!, {r2}
    492a:	1c13      	adds	r3, r2, #0
    492c:	4033      	ands	r3, r6
    492e:	4651      	mov	r1, sl
    4930:	4359      	muls	r1, r3
    4932:	0c12      	lsrs	r2, r2, #16
    4934:	4653      	mov	r3, sl
    4936:	4353      	muls	r3, r2
    4938:	4461      	add	r1, ip
    493a:	0c08      	lsrs	r0, r1, #16
    493c:	18c0      	adds	r0, r0, r3
    493e:	682b      	ldr	r3, [r5, #0]
    4940:	0c02      	lsrs	r2, r0, #16
    4942:	4694      	mov	ip, r2
    4944:	1c1a      	adds	r2, r3, #0
    4946:	4032      	ands	r2, r6
    4948:	18ba      	adds	r2, r7, r2
    494a:	4031      	ands	r1, r6
    494c:	1a52      	subs	r2, r2, r1
    494e:	0c1b      	lsrs	r3, r3, #16
    4950:	4030      	ands	r0, r6
    4952:	1411      	asrs	r1, r2, #16
    4954:	1a1b      	subs	r3, r3, r0
    4956:	185b      	adds	r3, r3, r1
    4958:	141f      	asrs	r7, r3, #16
    495a:	4032      	ands	r2, r6
    495c:	041b      	lsls	r3, r3, #16
    495e:	4313      	orrs	r3, r2
    4960:	c508      	stmia	r5!, {r3}
    4962:	9b02      	ldr	r3, [sp, #8]
    4964:	42a3      	cmp	r3, r4
    4966:	d2df      	bcs.n	4928 <quorem+0xe8>
    4968:	464b      	mov	r3, r9
    496a:	3304      	adds	r3, #4
    496c:	009b      	lsls	r3, r3, #2
    496e:	465a      	mov	r2, fp
    4970:	18d1      	adds	r1, r2, r3
    4972:	684b      	ldr	r3, [r1, #4]
    4974:	2b00      	cmp	r3, #0
    4976:	d000      	beq.n	497a <quorem+0x13a>
    4978:	e788      	b.n	488c <quorem+0x4c>
    497a:	9b03      	ldr	r3, [sp, #12]
    497c:	1c0a      	adds	r2, r1, #0
    497e:	4293      	cmp	r3, r2
    4980:	d20d      	bcs.n	499e <quorem+0x15e>
    4982:	680b      	ldr	r3, [r1, #0]
    4984:	2b00      	cmp	r3, #0
    4986:	d003      	beq.n	4990 <quorem+0x150>
    4988:	e009      	b.n	499e <quorem+0x15e>
    498a:	6813      	ldr	r3, [r2, #0]
    498c:	2b00      	cmp	r3, #0
    498e:	d106      	bne.n	499e <quorem+0x15e>
    4990:	2101      	movs	r1, #1
    4992:	9b03      	ldr	r3, [sp, #12]
    4994:	4249      	negs	r1, r1
    4996:	3a04      	subs	r2, #4
    4998:	4489      	add	r9, r1
    499a:	4293      	cmp	r3, r2
    499c:	d3f5      	bcc.n	498a <quorem+0x14a>
    499e:	464f      	mov	r7, r9
    49a0:	4659      	mov	r1, fp
    49a2:	610f      	str	r7, [r1, #16]
    49a4:	e773      	b.n	488e <quorem+0x4e>
    49a6:	2000      	movs	r0, #0
    49a8:	e7b0      	b.n	490c <quorem+0xcc>
    49aa:	46c0      	nop			(mov r8, r8)
    49ac:	0000ffff 	.word	0x0000ffff

000049b0 <_dtoa_r>:
    49b0:	b5f0      	push	{r4, r5, r6, r7, lr}
    49b2:	465f      	mov	r7, fp
    49b4:	4656      	mov	r6, sl
    49b6:	464d      	mov	r5, r9
    49b8:	4644      	mov	r4, r8
    49ba:	b4f0      	push	{r4, r5, r6, r7}
    49bc:	6c01      	ldr	r1, [r0, #64]
    49be:	b0a3      	sub	sp, #140
    49c0:	4683      	mov	fp, r0
    49c2:	9d2f      	ldr	r5, [sp, #188]
    49c4:	9204      	str	r2, [sp, #16]
    49c6:	9305      	str	r3, [sp, #20]
    49c8:	2900      	cmp	r1, #0
    49ca:	d00a      	beq.n	49e2 <_dtoa_r+0x32>
    49cc:	6c43      	ldr	r3, [r0, #68]
    49ce:	604b      	str	r3, [r1, #4]
    49d0:	6c42      	ldr	r2, [r0, #68]
    49d2:	2301      	movs	r3, #1
    49d4:	4093      	lsls	r3, r2
    49d6:	608b      	str	r3, [r1, #8]
    49d8:	f001 fb6e 	bl	60b8 <_Bfree>
    49dc:	2300      	movs	r3, #0
    49de:	4659      	mov	r1, fp
    49e0:	640b      	str	r3, [r1, #64]
    49e2:	9c05      	ldr	r4, [sp, #20]
    49e4:	2c00      	cmp	r4, #0
    49e6:	da00      	bge.n	49ea <_dtoa_r+0x3a>
    49e8:	e1be      	b.n	4d68 <_dtoa_r+0x3b8>
    49ea:	2300      	movs	r3, #0
    49ec:	602b      	str	r3, [r5, #0]
    49ee:	4ad2      	ldr	r2, [pc, #840]	(4d38 <_dtoa_r+0x388>)
    49f0:	1c23      	adds	r3, r4, #0
    49f2:	4013      	ands	r3, r2
    49f4:	4293      	cmp	r3, r2
    49f6:	d100      	bne.n	49fa <_dtoa_r+0x4a>
    49f8:	e164      	b.n	4cc4 <_dtoa_r+0x314>
    49fa:	9904      	ldr	r1, [sp, #16]
    49fc:	9a05      	ldr	r2, [sp, #20]
    49fe:	911c      	str	r1, [sp, #112]
    4a00:	921d      	str	r2, [sp, #116]
    4a02:	1c08      	adds	r0, r1, #0
    4a04:	1c11      	adds	r1, r2, #0
    4a06:	4bbb      	ldr	r3, [pc, #748]	(4cf4 <_dtoa_r+0x344>)
    4a08:	4ab9      	ldr	r2, [pc, #740]	(4cf0 <_dtoa_r+0x340>)
    4a0a:	f003 e84a 	blx	7aa0 <__aeabi_dcmpeq>
    4a0e:	2800      	cmp	r0, #0
    4a10:	d013      	beq.n	4a3a <_dtoa_r+0x8a>
    4a12:	9a2e      	ldr	r2, [sp, #184]
    4a14:	2301      	movs	r3, #1
    4a16:	6013      	str	r3, [r2, #0]
    4a18:	9b30      	ldr	r3, [sp, #192]
    4a1a:	2b00      	cmp	r3, #0
    4a1c:	d100      	bne.n	4a20 <_dtoa_r+0x70>
    4a1e:	e28c      	b.n	4f3a <_dtoa_r+0x58a>
    4a20:	4bc6      	ldr	r3, [pc, #792]	(4d3c <_dtoa_r+0x38c>)
    4a22:	9c30      	ldr	r4, [sp, #192]
    4a24:	6023      	str	r3, [r4, #0]
    4a26:	1e58      	subs	r0, r3, #1
    4a28:	b023      	add	sp, #140
    4a2a:	bc3c      	pop	{r2, r3, r4, r5}
    4a2c:	4690      	mov	r8, r2
    4a2e:	4699      	mov	r9, r3
    4a30:	46a2      	mov	sl, r4
    4a32:	46ab      	mov	fp, r5
    4a34:	bcf0      	pop	{r4, r5, r6, r7}
    4a36:	bc02      	pop	{r1}
    4a38:	4708      	bx	r1
    4a3a:	ab20      	add	r3, sp, #128
    4a3c:	9300      	str	r3, [sp, #0]
    4a3e:	ab21      	add	r3, sp, #132
    4a40:	9301      	str	r3, [sp, #4]
    4a42:	4658      	mov	r0, fp
    4a44:	9a1c      	ldr	r2, [sp, #112]
    4a46:	9b1d      	ldr	r3, [sp, #116]
    4a48:	f001 fd12 	bl	6470 <__d2b>
    4a4c:	0063      	lsls	r3, r4, #1
    4a4e:	0d5d      	lsrs	r5, r3, #21
    4a50:	9016      	str	r0, [sp, #88]
    4a52:	2d00      	cmp	r5, #0
    4a54:	d000      	beq.n	4a58 <_dtoa_r+0xa8>
    4a56:	e191      	b.n	4d7c <_dtoa_r+0x3cc>
    4a58:	9f21      	ldr	r7, [sp, #132]
    4a5a:	9b20      	ldr	r3, [sp, #128]
    4a5c:	49b8      	ldr	r1, [pc, #736]	(4d40 <_dtoa_r+0x390>)
    4a5e:	18fb      	adds	r3, r7, r3
    4a60:	185d      	adds	r5, r3, r1
    4a62:	2d20      	cmp	r5, #32
    4a64:	dc00      	bgt.n	4a68 <_dtoa_r+0xb8>
    4a66:	e37c      	b.n	5162 <_dtoa_r+0x7b2>
    4a68:	2240      	movs	r2, #64
    4a6a:	1b52      	subs	r2, r2, r5
    4a6c:	4094      	lsls	r4, r2
    4a6e:	1c22      	adds	r2, r4, #0
    4a70:	4cb4      	ldr	r4, [pc, #720]	(4d44 <_dtoa_r+0x394>)
    4a72:	9904      	ldr	r1, [sp, #16]
    4a74:	191b      	adds	r3, r3, r4
    4a76:	40d9      	lsrs	r1, r3
    4a78:	1c10      	adds	r0, r2, #0
    4a7a:	4308      	orrs	r0, r1
    4a7c:	f002 ecdc 	blx	7438 <__aeabi_ui2d>
    4a80:	2401      	movs	r4, #1
    4a82:	4ab1      	ldr	r2, [pc, #708]	(4d48 <_dtoa_r+0x398>)
    4a84:	4bb1      	ldr	r3, [pc, #708]	(4d4c <_dtoa_r+0x39c>)
    4a86:	9415      	str	r4, [sp, #84]
    4a88:	1889      	adds	r1, r1, r2
    4a8a:	18ee      	adds	r6, r5, r3
    4a8c:	4a9a      	ldr	r2, [pc, #616]	(4cf8 <_dtoa_r+0x348>)
    4a8e:	4b9b      	ldr	r3, [pc, #620]	(4cfc <_dtoa_r+0x34c>)
    4a90:	f002 eb48 	blx	7124 <__aeabi_dsub>
    4a94:	4a9a      	ldr	r2, [pc, #616]	(4d00 <_dtoa_r+0x350>)
    4a96:	4b9b      	ldr	r3, [pc, #620]	(4d04 <_dtoa_r+0x354>)
    4a98:	f002 ed4e 	blx	7538 <__aeabi_dmul>
    4a9c:	4a9a      	ldr	r2, [pc, #616]	(4d08 <_dtoa_r+0x358>)
    4a9e:	4b9b      	ldr	r3, [pc, #620]	(4d0c <_dtoa_r+0x35c>)
    4aa0:	f002 eb42 	blx	7128 <__adddf3>
    4aa4:	1c04      	adds	r4, r0, #0
    4aa6:	1c30      	adds	r0, r6, #0
    4aa8:	1c0d      	adds	r5, r1, #0
    4aaa:	f002 ecd8 	blx	745c <__aeabi_i2d>
    4aae:	4a98      	ldr	r2, [pc, #608]	(4d10 <_dtoa_r+0x360>)
    4ab0:	4b98      	ldr	r3, [pc, #608]	(4d14 <_dtoa_r+0x364>)
    4ab2:	f002 ed42 	blx	7538 <__aeabi_dmul>
    4ab6:	1c02      	adds	r2, r0, #0
    4ab8:	1c0b      	adds	r3, r1, #0
    4aba:	1c20      	adds	r0, r4, #0
    4abc:	1c29      	adds	r1, r5, #0
    4abe:	f002 eb34 	blx	7128 <__adddf3>
    4ac2:	1c04      	adds	r4, r0, #0
    4ac4:	1c0d      	adds	r5, r1, #0
    4ac6:	f003 e828 	blx	7b18 <__aeabi_d2iz>
    4aca:	1c29      	adds	r1, r5, #0
    4acc:	901b      	str	r0, [sp, #108]
    4ace:	4b89      	ldr	r3, [pc, #548]	(4cf4 <_dtoa_r+0x344>)
    4ad0:	4a87      	ldr	r2, [pc, #540]	(4cf0 <_dtoa_r+0x340>)
    4ad2:	1c20      	adds	r0, r4, #0
    4ad4:	f002 eff0 	blx	7ab8 <__aeabi_dcmplt>
    4ad8:	2800      	cmp	r0, #0
    4ada:	d000      	beq.n	4ade <_dtoa_r+0x12e>
    4adc:	e325      	b.n	512a <_dtoa_r+0x77a>
    4ade:	9a1b      	ldr	r2, [sp, #108]
    4ae0:	2a16      	cmp	r2, #22
    4ae2:	d800      	bhi.n	4ae6 <_dtoa_r+0x136>
    4ae4:	e219      	b.n	4f1a <_dtoa_r+0x56a>
    4ae6:	2301      	movs	r3, #1
    4ae8:	9311      	str	r3, [sp, #68]
    4aea:	1e7b      	subs	r3, r7, #1
    4aec:	1b9a      	subs	r2, r3, r6
    4aee:	d500      	bpl.n	4af2 <_dtoa_r+0x142>
    4af0:	e329      	b.n	5146 <_dtoa_r+0x796>
    4af2:	2400      	movs	r4, #0
    4af4:	9213      	str	r2, [sp, #76]
    4af6:	940d      	str	r4, [sp, #52]
    4af8:	9a1b      	ldr	r2, [sp, #108]
    4afa:	2a00      	cmp	r2, #0
    4afc:	da00      	bge.n	4b00 <_dtoa_r+0x150>
    4afe:	e327      	b.n	5150 <_dtoa_r+0x7a0>
    4b00:	9b13      	ldr	r3, [sp, #76]
    4b02:	2400      	movs	r4, #0
    4b04:	189b      	adds	r3, r3, r2
    4b06:	9313      	str	r3, [sp, #76]
    4b08:	9214      	str	r2, [sp, #80]
    4b0a:	940e      	str	r4, [sp, #56]
    4b0c:	992c      	ldr	r1, [sp, #176]
    4b0e:	2909      	cmp	r1, #9
    4b10:	d800      	bhi.n	4b14 <_dtoa_r+0x164>
    4b12:	e1d6      	b.n	4ec2 <_dtoa_r+0x512>
    4b14:	2200      	movs	r2, #0
    4b16:	922c      	str	r2, [sp, #176]
    4b18:	2501      	movs	r5, #1
    4b1a:	2101      	movs	r1, #1
    4b1c:	4249      	negs	r1, r1
    4b1e:	2400      	movs	r4, #0
    4b20:	2201      	movs	r2, #1
    4b22:	942d      	str	r4, [sp, #180]
    4b24:	911f      	str	r1, [sp, #124]
    4b26:	910f      	str	r1, [sp, #60]
    4b28:	9212      	str	r2, [sp, #72]
    4b2a:	2300      	movs	r3, #0
    4b2c:	465a      	mov	r2, fp
    4b2e:	6453      	str	r3, [r2, #68]
    4b30:	465a      	mov	r2, fp
    4b32:	6c51      	ldr	r1, [r2, #68]
    4b34:	4658      	mov	r0, fp
    4b36:	f001 fc71 	bl	641c <_Balloc>
    4b3a:	465b      	mov	r3, fp
    4b3c:	9007      	str	r0, [sp, #28]
    4b3e:	6418      	str	r0, [r3, #64]
    4b40:	2c00      	cmp	r4, #0
    4b42:	d100      	bne.n	4b46 <_dtoa_r+0x196>
    4b44:	e12b      	b.n	4d9e <_dtoa_r+0x3ee>
    4b46:	2d00      	cmp	r5, #0
    4b48:	d100      	bne.n	4b4c <_dtoa_r+0x19c>
    4b4a:	e128      	b.n	4d9e <_dtoa_r+0x3ee>
    4b4c:	9c1b      	ldr	r4, [sp, #108]
    4b4e:	2c00      	cmp	r4, #0
    4b50:	dc01      	bgt.n	4b56 <_dtoa_r+0x1a6>
    4b52:	f000 fc1f 	bl	5394 <_dtoa_r+0x9e4>
    4b56:	1c23      	adds	r3, r4, #0
    4b58:	210f      	movs	r1, #15
    4b5a:	4a7d      	ldr	r2, [pc, #500]	(4d50 <_dtoa_r+0x3a0>)
    4b5c:	400b      	ands	r3, r1
    4b5e:	00db      	lsls	r3, r3, #3
    4b60:	18d2      	adds	r2, r2, r3
    4b62:	1124      	asrs	r4, r4, #4
    4b64:	6816      	ldr	r6, [r2, #0]
    4b66:	6857      	ldr	r7, [r2, #4]
    4b68:	06e2      	lsls	r2, r4, #27
    4b6a:	d500      	bpl.n	4b6e <_dtoa_r+0x1be>
    4b6c:	e308      	b.n	5180 <_dtoa_r+0x7d0>
    4b6e:	991c      	ldr	r1, [sp, #112]
    4b70:	9a1d      	ldr	r2, [sp, #116]
    4b72:	9118      	str	r1, [sp, #96]
    4b74:	9219      	str	r2, [sp, #100]
    4b76:	2202      	movs	r2, #2
    4b78:	4690      	mov	r8, r2
    4b7a:	2c00      	cmp	r4, #0
    4b7c:	d013      	beq.n	4ba6 <_dtoa_r+0x1f6>
    4b7e:	2101      	movs	r1, #1
    4b80:	4d74      	ldr	r5, [pc, #464]	(4d54 <_dtoa_r+0x3a4>)
    4b82:	4689      	mov	r9, r1
    4b84:	464a      	mov	r2, r9
    4b86:	4214      	tst	r4, r2
    4b88:	d009      	beq.n	4b9e <_dtoa_r+0x1ee>
    4b8a:	2301      	movs	r3, #1
    4b8c:	1c30      	adds	r0, r6, #0
    4b8e:	1c39      	adds	r1, r7, #0
    4b90:	4498      	add	r8, r3
    4b92:	682a      	ldr	r2, [r5, #0]
    4b94:	686b      	ldr	r3, [r5, #4]
    4b96:	f002 ecd0 	blx	7538 <__aeabi_dmul>
    4b9a:	1c06      	adds	r6, r0, #0
    4b9c:	1c0f      	adds	r7, r1, #0
    4b9e:	1064      	asrs	r4, r4, #1
    4ba0:	3508      	adds	r5, #8
    4ba2:	2c00      	cmp	r4, #0
    4ba4:	d1ee      	bne.n	4b84 <_dtoa_r+0x1d4>
    4ba6:	1c32      	adds	r2, r6, #0
    4ba8:	1c3b      	adds	r3, r7, #0
    4baa:	9818      	ldr	r0, [sp, #96]
    4bac:	9919      	ldr	r1, [sp, #100]
    4bae:	f002 ee0c 	blx	77c8 <__aeabi_ddiv>
    4bb2:	1c06      	adds	r6, r0, #0
    4bb4:	1c0f      	adds	r7, r1, #0
    4bb6:	9a11      	ldr	r2, [sp, #68]
    4bb8:	2a00      	cmp	r2, #0
    4bba:	d100      	bne.n	4bbe <_dtoa_r+0x20e>
    4bbc:	e350      	b.n	5260 <_dtoa_r+0x8b0>
    4bbe:	1c30      	adds	r0, r6, #0
    4bc0:	1c39      	adds	r1, r7, #0
    4bc2:	4a55      	ldr	r2, [pc, #340]	(4d18 <_dtoa_r+0x368>)
    4bc4:	4b55      	ldr	r3, [pc, #340]	(4d1c <_dtoa_r+0x36c>)
    4bc6:	f002 ef78 	blx	7ab8 <__aeabi_dcmplt>
    4bca:	2800      	cmp	r0, #0
    4bcc:	d100      	bne.n	4bd0 <_dtoa_r+0x220>
    4bce:	e347      	b.n	5260 <_dtoa_r+0x8b0>
    4bd0:	9b1f      	ldr	r3, [sp, #124]
    4bd2:	2b00      	cmp	r3, #0
    4bd4:	dc00      	bgt.n	4bd8 <_dtoa_r+0x228>
    4bd6:	e343      	b.n	5260 <_dtoa_r+0x8b0>
    4bd8:	9c0f      	ldr	r4, [sp, #60]
    4bda:	2c00      	cmp	r4, #0
    4bdc:	dc00      	bgt.n	4be0 <_dtoa_r+0x230>
    4bde:	e0da      	b.n	4d96 <_dtoa_r+0x3e6>
    4be0:	991b      	ldr	r1, [sp, #108]
    4be2:	3901      	subs	r1, #1
    4be4:	9110      	str	r1, [sp, #64]
    4be6:	1c30      	adds	r0, r6, #0
    4be8:	1c39      	adds	r1, r7, #0
    4bea:	4a4d      	ldr	r2, [pc, #308]	(4d20 <_dtoa_r+0x370>)
    4bec:	4b4d      	ldr	r3, [pc, #308]	(4d24 <_dtoa_r+0x374>)
    4bee:	f002 eca4 	blx	7538 <__aeabi_dmul>
    4bf2:	2201      	movs	r2, #1
    4bf4:	1c06      	adds	r6, r0, #0
    4bf6:	1c0f      	adds	r7, r1, #0
    4bf8:	4490      	add	r8, r2
    4bfa:	46a2      	mov	sl, r4
    4bfc:	4640      	mov	r0, r8
    4bfe:	f002 ec2e 	blx	745c <__aeabi_i2d>
    4c02:	1c32      	adds	r2, r6, #0
    4c04:	1c3b      	adds	r3, r7, #0
    4c06:	f002 ec98 	blx	7538 <__aeabi_dmul>
    4c0a:	4a47      	ldr	r2, [pc, #284]	(4d28 <_dtoa_r+0x378>)
    4c0c:	4b47      	ldr	r3, [pc, #284]	(4d2c <_dtoa_r+0x37c>)
    4c0e:	f002 ea8c 	blx	7128 <__adddf3>
    4c12:	1c0d      	adds	r5, r1, #0
    4c14:	4950      	ldr	r1, [pc, #320]	(4d58 <_dtoa_r+0x3a8>)
    4c16:	4652      	mov	r2, sl
    4c18:	1c04      	adds	r4, r0, #0
    4c1a:	186d      	adds	r5, r5, r1
    4c1c:	2a00      	cmp	r2, #0
    4c1e:	d000      	beq.n	4c22 <_dtoa_r+0x272>
    4c20:	e329      	b.n	5276 <_dtoa_r+0x8c6>
    4c22:	4a43      	ldr	r2, [pc, #268]	(4d30 <_dtoa_r+0x380>)
    4c24:	4b43      	ldr	r3, [pc, #268]	(4d34 <_dtoa_r+0x384>)
    4c26:	1c30      	adds	r0, r6, #0
    4c28:	1c39      	adds	r1, r7, #0
    4c2a:	f002 ea7c 	blx	7124 <__aeabi_dsub>
    4c2e:	1c22      	adds	r2, r4, #0
    4c30:	1c2b      	adds	r3, r5, #0
    4c32:	1c06      	adds	r6, r0, #0
    4c34:	1c0f      	adds	r7, r1, #0
    4c36:	f002 ef64 	blx	7b00 <__aeabi_dcmpgt>
    4c3a:	2800      	cmp	r0, #0
    4c3c:	d001      	beq.n	4c42 <_dtoa_r+0x292>
    4c3e:	f000 fc3b 	bl	54b8 <_dtoa_r+0xb08>
    4c42:	4b46      	ldr	r3, [pc, #280]	(4d5c <_dtoa_r+0x3ac>)
    4c44:	18ea      	adds	r2, r5, r3
    4c46:	46a4      	mov	ip, r4
    4c48:	1c14      	adds	r4, r2, #0
    4c4a:	1c30      	adds	r0, r6, #0
    4c4c:	1c39      	adds	r1, r7, #0
    4c4e:	4662      	mov	r2, ip
    4c50:	1c23      	adds	r3, r4, #0
    4c52:	f002 ef32 	blx	7ab8 <__aeabi_dcmplt>
    4c56:	2800      	cmp	r0, #0
    4c58:	d100      	bne.n	4c5c <_dtoa_r+0x2ac>
    4c5a:	e09c      	b.n	4d96 <_dtoa_r+0x3e6>
    4c5c:	2700      	movs	r7, #0
    4c5e:	9717      	str	r7, [sp, #92]
    4c60:	9a2d      	ldr	r2, [sp, #180]
    4c62:	9b07      	ldr	r3, [sp, #28]
    4c64:	43d2      	mvns	r2, r2
    4c66:	2400      	movs	r4, #0
    4c68:	921b      	str	r2, [sp, #108]
    4c6a:	46ba      	mov	sl, r7
    4c6c:	4699      	mov	r9, r3
    4c6e:	46a0      	mov	r8, r4
    4c70:	4658      	mov	r0, fp
    4c72:	9917      	ldr	r1, [sp, #92]
    4c74:	f001 fa20 	bl	60b8 <_Bfree>
    4c78:	4653      	mov	r3, sl
    4c7a:	2b00      	cmp	r3, #0
    4c7c:	d100      	bne.n	4c80 <_dtoa_r+0x2d0>
    4c7e:	e11d      	b.n	4ebc <_dtoa_r+0x50c>
    4c80:	4644      	mov	r4, r8
    4c82:	2c00      	cmp	r4, #0
    4c84:	d005      	beq.n	4c92 <_dtoa_r+0x2e2>
    4c86:	45d0      	cmp	r8, sl
    4c88:	d003      	beq.n	4c92 <_dtoa_r+0x2e2>
    4c8a:	4658      	mov	r0, fp
    4c8c:	4641      	mov	r1, r8
    4c8e:	f001 fa13 	bl	60b8 <_Bfree>
    4c92:	4651      	mov	r1, sl
    4c94:	4658      	mov	r0, fp
    4c96:	f001 fa0f 	bl	60b8 <_Bfree>
    4c9a:	991b      	ldr	r1, [sp, #108]
    4c9c:	9110      	str	r1, [sp, #64]
    4c9e:	9916      	ldr	r1, [sp, #88]
    4ca0:	4658      	mov	r0, fp
    4ca2:	f001 fa09 	bl	60b8 <_Bfree>
    4ca6:	464c      	mov	r4, r9
    4ca8:	2300      	movs	r3, #0
    4caa:	7023      	strb	r3, [r4, #0]
    4cac:	9b10      	ldr	r3, [sp, #64]
    4cae:	992e      	ldr	r1, [sp, #184]
    4cb0:	9a30      	ldr	r2, [sp, #192]
    4cb2:	3301      	adds	r3, #1
    4cb4:	600b      	str	r3, [r1, #0]
    4cb6:	2a00      	cmp	r2, #0
    4cb8:	d002      	beq.n	4cc0 <_dtoa_r+0x310>
    4cba:	9c30      	ldr	r4, [sp, #192]
    4cbc:	464b      	mov	r3, r9
    4cbe:	6023      	str	r3, [r4, #0]
    4cc0:	9807      	ldr	r0, [sp, #28]
    4cc2:	e6b1      	b.n	4a28 <_dtoa_r+0x78>
    4cc4:	4b26      	ldr	r3, [pc, #152]	(4d60 <_dtoa_r+0x3b0>)
    4cc6:	9a2e      	ldr	r2, [sp, #184]
    4cc8:	6013      	str	r3, [r2, #0]
    4cca:	9b04      	ldr	r3, [sp, #16]
    4ccc:	2b00      	cmp	r3, #0
    4cce:	d051      	beq.n	4d74 <_dtoa_r+0x3c4>
    4cd0:	4824      	ldr	r0, [pc, #144]	(4d64 <_dtoa_r+0x3b4>)
    4cd2:	9a30      	ldr	r2, [sp, #192]
    4cd4:	2a00      	cmp	r2, #0
    4cd6:	d100      	bne.n	4cda <_dtoa_r+0x32a>
    4cd8:	e6a6      	b.n	4a28 <_dtoa_r+0x78>
    4cda:	78c3      	ldrb	r3, [r0, #3]
    4cdc:	1cc2      	adds	r2, r0, #3
    4cde:	2b00      	cmp	r3, #0
    4ce0:	d000      	beq.n	4ce4 <_dtoa_r+0x334>
    4ce2:	3205      	adds	r2, #5
    4ce4:	9b30      	ldr	r3, [sp, #192]
    4ce6:	601a      	str	r2, [r3, #0]
    4ce8:	e69e      	b.n	4a28 <_dtoa_r+0x78>
    4cea:	46c0      	nop			(mov r8, r8)
    4cec:	46c0      	nop			(mov r8, r8)
    4cee:	46c0      	nop			(mov r8, r8)
	...
    4cfc:	3ff80000 	.word	0x3ff80000
    4d00:	636f4361 	.word	0x636f4361
    4d04:	3fd287a7 	.word	0x3fd287a7
    4d08:	8b60c8b3 	.word	0x8b60c8b3
    4d0c:	3fc68a28 	.word	0x3fc68a28
    4d10:	509f79fb 	.word	0x509f79fb
    4d14:	3fd34413 	.word	0x3fd34413
    4d18:	00000000 	.word	0x00000000
    4d1c:	3ff00000 	.word	0x3ff00000
    4d20:	00000000 	.word	0x00000000
    4d24:	40240000 	.word	0x40240000
    4d28:	00000000 	.word	0x00000000
    4d2c:	401c0000 	.word	0x401c0000
    4d30:	00000000 	.word	0x00000000
    4d34:	40140000 	.word	0x40140000
    4d38:	7ff00000 	.word	0x7ff00000
    4d3c:	00008d01 	.word	0x00008d01
    4d40:	00000432 	.word	0x00000432
    4d44:	00000412 	.word	0x00000412
    4d48:	fe100000 	.word	0xfe100000
    4d4c:	fffffbcd 	.word	0xfffffbcd
    4d50:	00008d78 	.word	0x00008d78
    4d54:	00008e50 	.word	0x00008e50
    4d58:	fcc00000 	.word	0xfcc00000
    4d5c:	80000000 	.word	0x80000000
    4d60:	0000270f 	.word	0x0000270f
    4d64:	00008d28 	.word	0x00008d28
    4d68:	2301      	movs	r3, #1
    4d6a:	602b      	str	r3, [r5, #0]
    4d6c:	4b78      	ldr	r3, [pc, #480]	(4f50 <_dtoa_r+0x5a0>)
    4d6e:	401c      	ands	r4, r3
    4d70:	9405      	str	r4, [sp, #20]
    4d72:	e63c      	b.n	49ee <_dtoa_r+0x3e>
    4d74:	0321      	lsls	r1, r4, #12
    4d76:	d1ab      	bne.n	4cd0 <_dtoa_r+0x320>
    4d78:	4876      	ldr	r0, [pc, #472]	(4f54 <_dtoa_r+0x5a4>)
    4d7a:	e7aa      	b.n	4cd2 <_dtoa_r+0x322>
    4d7c:	981c      	ldr	r0, [sp, #112]
    4d7e:	991d      	ldr	r1, [sp, #116]
    4d80:	4b75      	ldr	r3, [pc, #468]	(4f58 <_dtoa_r+0x5a8>)
    4d82:	4a76      	ldr	r2, [pc, #472]	(4f5c <_dtoa_r+0x5ac>)
    4d84:	400b      	ands	r3, r1
    4d86:	1c19      	adds	r1, r3, #0
    4d88:	4311      	orrs	r1, r2
    4d8a:	4a75      	ldr	r2, [pc, #468]	(4f60 <_dtoa_r+0x5b0>)
    4d8c:	2300      	movs	r3, #0
    4d8e:	18ae      	adds	r6, r5, r2
    4d90:	9315      	str	r3, [sp, #84]
    4d92:	9f21      	ldr	r7, [sp, #132]
    4d94:	e67a      	b.n	4a8c <_dtoa_r+0xdc>
    4d96:	9b1c      	ldr	r3, [sp, #112]
    4d98:	9c1d      	ldr	r4, [sp, #116]
    4d9a:	9304      	str	r3, [sp, #16]
    4d9c:	9405      	str	r4, [sp, #20]
    4d9e:	9b20      	ldr	r3, [sp, #128]
    4da0:	2b00      	cmp	r3, #0
    4da2:	da00      	bge.n	4da6 <_dtoa_r+0x3f6>
    4da4:	e0e2      	b.n	4f6c <_dtoa_r+0x5bc>
    4da6:	9c1b      	ldr	r4, [sp, #108]
    4da8:	2c0e      	cmp	r4, #14
    4daa:	dd00      	ble.n	4dae <_dtoa_r+0x3fe>
    4dac:	e0de      	b.n	4f6c <_dtoa_r+0x5bc>
    4dae:	4b6d      	ldr	r3, [pc, #436]	(4f64 <_dtoa_r+0x5b4>)
    4db0:	00e2      	lsls	r2, r4, #3
    4db2:	992d      	ldr	r1, [sp, #180]
    4db4:	189b      	adds	r3, r3, r2
    4db6:	681e      	ldr	r6, [r3, #0]
    4db8:	685f      	ldr	r7, [r3, #4]
    4dba:	2900      	cmp	r1, #0
    4dbc:	da01      	bge.n	4dc2 <_dtoa_r+0x412>
    4dbe:	f000 fc40 	bl	5642 <_dtoa_r+0xc92>
    4dc2:	9c04      	ldr	r4, [sp, #16]
    4dc4:	9d05      	ldr	r5, [sp, #20]
    4dc6:	1c32      	adds	r2, r6, #0
    4dc8:	1c3b      	adds	r3, r7, #0
    4dca:	1c20      	adds	r0, r4, #0
    4dcc:	1c29      	adds	r1, r5, #0
    4dce:	f002 ecfc 	blx	77c8 <__aeabi_ddiv>
    4dd2:	f002 eea2 	blx	7b18 <__aeabi_d2iz>
    4dd6:	4682      	mov	sl, r0
    4dd8:	f002 eb40 	blx	745c <__aeabi_i2d>
    4ddc:	1c32      	adds	r2, r6, #0
    4dde:	1c3b      	adds	r3, r7, #0
    4de0:	f002 ebaa 	blx	7538 <__aeabi_dmul>
    4de4:	1c02      	adds	r2, r0, #0
    4de6:	1c0b      	adds	r3, r1, #0
    4de8:	1c20      	adds	r0, r4, #0
    4dea:	1c29      	adds	r1, r5, #0
    4dec:	f002 e99a 	blx	7124 <__aeabi_dsub>
    4df0:	9a07      	ldr	r2, [sp, #28]
    4df2:	4653      	mov	r3, sl
    4df4:	3330      	adds	r3, #48
    4df6:	7013      	strb	r3, [r2, #0]
    4df8:	4691      	mov	r9, r2
    4dfa:	9a1f      	ldr	r2, [sp, #124]
    4dfc:	2301      	movs	r3, #1
    4dfe:	1c04      	adds	r4, r0, #0
    4e00:	1c0d      	adds	r5, r1, #0
    4e02:	4499      	add	r9, r3
    4e04:	2a01      	cmp	r2, #1
    4e06:	d03c      	beq.n	4e82 <_dtoa_r+0x4d2>
    4e08:	4b4e      	ldr	r3, [pc, #312]	(4f44 <_dtoa_r+0x594>)
    4e0a:	4a4d      	ldr	r2, [pc, #308]	(4f40 <_dtoa_r+0x590>)
    4e0c:	f002 eb94 	blx	7538 <__aeabi_dmul>
    4e10:	4a4d      	ldr	r2, [pc, #308]	(4f48 <_dtoa_r+0x598>)
    4e12:	4b4e      	ldr	r3, [pc, #312]	(4f4c <_dtoa_r+0x59c>)
    4e14:	1c04      	adds	r4, r0, #0
    4e16:	1c0d      	adds	r5, r1, #0
    4e18:	f002 ee42 	blx	7aa0 <__aeabi_dcmpeq>
    4e1c:	2800      	cmp	r0, #0
    4e1e:	d14d      	bne.n	4ebc <_dtoa_r+0x50c>
    4e20:	2101      	movs	r1, #1
    4e22:	4688      	mov	r8, r1
    4e24:	e00b      	b.n	4e3e <_dtoa_r+0x48e>
    4e26:	4b47      	ldr	r3, [pc, #284]	(4f44 <_dtoa_r+0x594>)
    4e28:	4a45      	ldr	r2, [pc, #276]	(4f40 <_dtoa_r+0x590>)
    4e2a:	f002 eb86 	blx	7538 <__aeabi_dmul>
    4e2e:	4a46      	ldr	r2, [pc, #280]	(4f48 <_dtoa_r+0x598>)
    4e30:	4b46      	ldr	r3, [pc, #280]	(4f4c <_dtoa_r+0x59c>)
    4e32:	1c04      	adds	r4, r0, #0
    4e34:	1c0d      	adds	r5, r1, #0
    4e36:	f002 ee34 	blx	7aa0 <__aeabi_dcmpeq>
    4e3a:	2800      	cmp	r0, #0
    4e3c:	d13e      	bne.n	4ebc <_dtoa_r+0x50c>
    4e3e:	2101      	movs	r1, #1
    4e40:	1c32      	adds	r2, r6, #0
    4e42:	1c3b      	adds	r3, r7, #0
    4e44:	1c20      	adds	r0, r4, #0
    4e46:	4488      	add	r8, r1
    4e48:	1c29      	adds	r1, r5, #0
    4e4a:	f002 ecbe 	blx	77c8 <__aeabi_ddiv>
    4e4e:	f002 ee64 	blx	7b18 <__aeabi_d2iz>
    4e52:	4682      	mov	sl, r0
    4e54:	f002 eb02 	blx	745c <__aeabi_i2d>
    4e58:	1c32      	adds	r2, r6, #0
    4e5a:	1c3b      	adds	r3, r7, #0
    4e5c:	f002 eb6c 	blx	7538 <__aeabi_dmul>
    4e60:	1c02      	adds	r2, r0, #0
    4e62:	1c0b      	adds	r3, r1, #0
    4e64:	1c20      	adds	r0, r4, #0
    4e66:	1c29      	adds	r1, r5, #0
    4e68:	f002 e95c 	blx	7124 <__aeabi_dsub>
    4e6c:	4653      	mov	r3, sl
    4e6e:	464a      	mov	r2, r9
    4e70:	3330      	adds	r3, #48
    4e72:	7013      	strb	r3, [r2, #0]
    4e74:	9a1f      	ldr	r2, [sp, #124]
    4e76:	2301      	movs	r3, #1
    4e78:	1c04      	adds	r4, r0, #0
    4e7a:	1c0d      	adds	r5, r1, #0
    4e7c:	4499      	add	r9, r3
    4e7e:	4542      	cmp	r2, r8
    4e80:	d1d1      	bne.n	4e26 <_dtoa_r+0x476>
    4e82:	1c22      	adds	r2, r4, #0
    4e84:	1c2b      	adds	r3, r5, #0
    4e86:	1c20      	adds	r0, r4, #0
    4e88:	1c29      	adds	r1, r5, #0
    4e8a:	f002 e94e 	blx	7128 <__adddf3>
    4e8e:	1c04      	adds	r4, r0, #0
    4e90:	1c0d      	adds	r5, r1, #0
    4e92:	1c30      	adds	r0, r6, #0
    4e94:	1c39      	adds	r1, r7, #0
    4e96:	1c22      	adds	r2, r4, #0
    4e98:	1c2b      	adds	r3, r5, #0
    4e9a:	f002 ee0e 	blx	7ab8 <__aeabi_dcmplt>
    4e9e:	2800      	cmp	r0, #0
    4ea0:	d000      	beq.n	4ea4 <_dtoa_r+0x4f4>
    4ea2:	e1ac      	b.n	51fe <_dtoa_r+0x84e>
    4ea4:	1c30      	adds	r0, r6, #0
    4ea6:	1c39      	adds	r1, r7, #0
    4ea8:	1c22      	adds	r2, r4, #0
    4eaa:	1c2b      	adds	r3, r5, #0
    4eac:	f002 edf8 	blx	7aa0 <__aeabi_dcmpeq>
    4eb0:	2800      	cmp	r0, #0
    4eb2:	d003      	beq.n	4ebc <_dtoa_r+0x50c>
    4eb4:	4652      	mov	r2, sl
    4eb6:	07d2      	lsls	r2, r2, #31
    4eb8:	d500      	bpl.n	4ebc <_dtoa_r+0x50c>
    4eba:	e1a0      	b.n	51fe <_dtoa_r+0x84e>
    4ebc:	9a1b      	ldr	r2, [sp, #108]
    4ebe:	9210      	str	r2, [sp, #64]
    4ec0:	e6ed      	b.n	4c9e <_dtoa_r+0x2ee>
    4ec2:	9b2c      	ldr	r3, [sp, #176]
    4ec4:	2b05      	cmp	r3, #5
    4ec6:	dc01      	bgt.n	4ecc <_dtoa_r+0x51c>
    4ec8:	f000 fc6c 	bl	57a4 <_dtoa_r+0xdf4>
    4ecc:	9c2c      	ldr	r4, [sp, #176]
    4ece:	3c04      	subs	r4, #4
    4ed0:	942c      	str	r4, [sp, #176]
    4ed2:	2500      	movs	r5, #0
    4ed4:	992c      	ldr	r1, [sp, #176]
    4ed6:	2905      	cmp	r1, #5
    4ed8:	d800      	bhi.n	4edc <_dtoa_r+0x52c>
    4eda:	e147      	b.n	516c <_dtoa_r+0x7bc>
    4edc:	2401      	movs	r4, #1
    4ede:	4264      	negs	r4, r4
    4ee0:	2101      	movs	r1, #1
    4ee2:	941f      	str	r4, [sp, #124]
    4ee4:	940f      	str	r4, [sp, #60]
    4ee6:	9112      	str	r1, [sp, #72]
    4ee8:	2200      	movs	r2, #0
    4eea:	465b      	mov	r3, fp
    4eec:	645a      	str	r2, [r3, #68]
    4eee:	2e17      	cmp	r6, #23
    4ef0:	d801      	bhi.n	4ef6 <_dtoa_r+0x546>
    4ef2:	f000 fc4b 	bl	578c <_dtoa_r+0xddc>
    4ef6:	2104      	movs	r1, #4
    4ef8:	2201      	movs	r2, #1
    4efa:	0049      	lsls	r1, r1, #1
    4efc:	1c0b      	adds	r3, r1, #0
    4efe:	3314      	adds	r3, #20
    4f00:	1c10      	adds	r0, r2, #0
    4f02:	3201      	adds	r2, #1
    4f04:	42b3      	cmp	r3, r6
    4f06:	d9f8      	bls.n	4efa <_dtoa_r+0x54a>
    4f08:	9c1f      	ldr	r4, [sp, #124]
    4f0a:	2300      	movs	r3, #0
    4f0c:	220e      	movs	r2, #14
    4f0e:	4659      	mov	r1, fp
    4f10:	42a2      	cmp	r2, r4
    4f12:	415b      	adcs	r3, r3
    4f14:	6448      	str	r0, [r1, #68]
    4f16:	1c1c      	adds	r4, r3, #0
    4f18:	e60a      	b.n	4b30 <_dtoa_r+0x180>
    4f1a:	9c1b      	ldr	r4, [sp, #108]
    4f1c:	4b11      	ldr	r3, [pc, #68]	(4f64 <_dtoa_r+0x5b4>)
    4f1e:	00e2      	lsls	r2, r4, #3
    4f20:	189b      	adds	r3, r3, r2
    4f22:	981c      	ldr	r0, [sp, #112]
    4f24:	991d      	ldr	r1, [sp, #116]
    4f26:	681a      	ldr	r2, [r3, #0]
    4f28:	685b      	ldr	r3, [r3, #4]
    4f2a:	f002 edc6 	blx	7ab8 <__aeabi_dcmplt>
    4f2e:	2800      	cmp	r0, #0
    4f30:	d000      	beq.n	4f34 <_dtoa_r+0x584>
    4f32:	e11f      	b.n	5174 <_dtoa_r+0x7c4>
    4f34:	2100      	movs	r1, #0
    4f36:	9111      	str	r1, [sp, #68]
    4f38:	e5d7      	b.n	4aea <_dtoa_r+0x13a>
    4f3a:	480b      	ldr	r0, [pc, #44]	(4f68 <_dtoa_r+0x5b8>)
    4f3c:	e574      	b.n	4a28 <_dtoa_r+0x78>
    4f3e:	46c0      	nop			(mov r8, r8)
    4f40:	00000000 	.word	0x00000000
    4f44:	40240000 	.word	0x40240000
	...
    4f50:	7fffffff 	.word	0x7fffffff
    4f54:	00008d1c 	.word	0x00008d1c
    4f58:	000fffff 	.word	0x000fffff
    4f5c:	3ff00000 	.word	0x3ff00000
    4f60:	fffffc01 	.word	0xfffffc01
    4f64:	00008d78 	.word	0x00008d78
    4f68:	00008d00 	.word	0x00008d00
    4f6c:	9c12      	ldr	r4, [sp, #72]
    4f6e:	2c00      	cmp	r4, #0
    4f70:	d000      	beq.n	4f74 <_dtoa_r+0x5c4>
    4f72:	e112      	b.n	519a <_dtoa_r+0x7ea>
    4f74:	9d0d      	ldr	r5, [sp, #52]
    4f76:	9e0e      	ldr	r6, [sp, #56]
    4f78:	2700      	movs	r7, #0
    4f7a:	2d00      	cmp	r5, #0
    4f7c:	dd0c      	ble.n	4f98 <_dtoa_r+0x5e8>
    4f7e:	9b13      	ldr	r3, [sp, #76]
    4f80:	2b00      	cmp	r3, #0
    4f82:	dd09      	ble.n	4f98 <_dtoa_r+0x5e8>
    4f84:	42ab      	cmp	r3, r5
    4f86:	dd00      	ble.n	4f8a <_dtoa_r+0x5da>
    4f88:	1c2b      	adds	r3, r5, #0
    4f8a:	9c0d      	ldr	r4, [sp, #52]
    4f8c:	9913      	ldr	r1, [sp, #76]
    4f8e:	1ae4      	subs	r4, r4, r3
    4f90:	1ac9      	subs	r1, r1, r3
    4f92:	940d      	str	r4, [sp, #52]
    4f94:	9113      	str	r1, [sp, #76]
    4f96:	1aed      	subs	r5, r5, r3
    4f98:	9a0e      	ldr	r2, [sp, #56]
    4f9a:	2a00      	cmp	r2, #0
    4f9c:	dd1b      	ble.n	4fd6 <_dtoa_r+0x626>
    4f9e:	9b12      	ldr	r3, [sp, #72]
    4fa0:	2b00      	cmp	r3, #0
    4fa2:	d100      	bne.n	4fa6 <_dtoa_r+0x5f6>
    4fa4:	e32f      	b.n	5606 <_dtoa_r+0xc56>
    4fa6:	2e00      	cmp	r6, #0
    4fa8:	dd10      	ble.n	4fcc <_dtoa_r+0x61c>
    4faa:	1c39      	adds	r1, r7, #0
    4fac:	1c32      	adds	r2, r6, #0
    4fae:	4658      	mov	r0, fp
    4fb0:	f001 fcc8 	bl	6944 <__pow5mult>
    4fb4:	1c07      	adds	r7, r0, #0
    4fb6:	1c39      	adds	r1, r7, #0
    4fb8:	9a16      	ldr	r2, [sp, #88]
    4fba:	4658      	mov	r0, fp
    4fbc:	f001 fbb2 	bl	6724 <__multiply>
    4fc0:	9916      	ldr	r1, [sp, #88]
    4fc2:	1c04      	adds	r4, r0, #0
    4fc4:	4658      	mov	r0, fp
    4fc6:	f001 f877 	bl	60b8 <_Bfree>
    4fca:	9416      	str	r4, [sp, #88]
    4fcc:	9c0e      	ldr	r4, [sp, #56]
    4fce:	1ba2      	subs	r2, r4, r6
    4fd0:	2a00      	cmp	r2, #0
    4fd2:	d000      	beq.n	4fd6 <_dtoa_r+0x626>
    4fd4:	e357      	b.n	5686 <_dtoa_r+0xcd6>
    4fd6:	2101      	movs	r1, #1
    4fd8:	4658      	mov	r0, fp
    4fda:	f001 fc53 	bl	6884 <__i2b>
    4fde:	9914      	ldr	r1, [sp, #80]
    4fe0:	9017      	str	r0, [sp, #92]
    4fe2:	2900      	cmp	r1, #0
    4fe4:	dd05      	ble.n	4ff2 <_dtoa_r+0x642>
    4fe6:	4658      	mov	r0, fp
    4fe8:	9917      	ldr	r1, [sp, #92]
    4fea:	9a14      	ldr	r2, [sp, #80]
    4fec:	f001 fcaa 	bl	6944 <__pow5mult>
    4ff0:	9017      	str	r0, [sp, #92]
    4ff2:	9a2c      	ldr	r2, [sp, #176]
    4ff4:	2a01      	cmp	r2, #1
    4ff6:	dc00      	bgt.n	4ffa <_dtoa_r+0x64a>
    4ff8:	e0ec      	b.n	51d4 <_dtoa_r+0x824>
    4ffa:	2400      	movs	r4, #0
    4ffc:	9b14      	ldr	r3, [sp, #80]
    4ffe:	2b00      	cmp	r3, #0
    5000:	d000      	beq.n	5004 <_dtoa_r+0x654>
    5002:	e2bd      	b.n	5580 <_dtoa_r+0xbd0>
    5004:	2201      	movs	r2, #1
    5006:	9b13      	ldr	r3, [sp, #76]
    5008:	18d2      	adds	r2, r2, r3
    500a:	231f      	movs	r3, #31
    500c:	401a      	ands	r2, r3
    500e:	d000      	beq.n	5012 <_dtoa_r+0x662>
    5010:	e1b2      	b.n	5378 <_dtoa_r+0x9c8>
    5012:	221c      	movs	r2, #28
    5014:	9b0d      	ldr	r3, [sp, #52]
    5016:	9913      	ldr	r1, [sp, #76]
    5018:	189b      	adds	r3, r3, r2
    501a:	1889      	adds	r1, r1, r2
    501c:	930d      	str	r3, [sp, #52]
    501e:	9113      	str	r1, [sp, #76]
    5020:	18ad      	adds	r5, r5, r2
    5022:	9a0d      	ldr	r2, [sp, #52]
    5024:	2a00      	cmp	r2, #0
    5026:	dd04      	ble.n	5032 <_dtoa_r+0x682>
    5028:	4658      	mov	r0, fp
    502a:	9916      	ldr	r1, [sp, #88]
    502c:	f001 fb1a 	bl	6664 <__lshift>
    5030:	9016      	str	r0, [sp, #88]
    5032:	9b13      	ldr	r3, [sp, #76]
    5034:	2b00      	cmp	r3, #0
    5036:	dd05      	ble.n	5044 <_dtoa_r+0x694>
    5038:	4658      	mov	r0, fp
    503a:	9917      	ldr	r1, [sp, #92]
    503c:	1c1a      	adds	r2, r3, #0
    503e:	f001 fb11 	bl	6664 <__lshift>
    5042:	9017      	str	r0, [sp, #92]
    5044:	9911      	ldr	r1, [sp, #68]
    5046:	2900      	cmp	r1, #0
    5048:	d000      	beq.n	504c <_dtoa_r+0x69c>
    504a:	e281      	b.n	5550 <_dtoa_r+0xba0>
    504c:	9b1f      	ldr	r3, [sp, #124]
    504e:	2b00      	cmp	r3, #0
    5050:	dc00      	bgt.n	5054 <_dtoa_r+0x6a4>
    5052:	e2df      	b.n	5614 <_dtoa_r+0xc64>
    5054:	9a12      	ldr	r2, [sp, #72]
    5056:	2a00      	cmp	r2, #0
    5058:	d100      	bne.n	505c <_dtoa_r+0x6ac>
    505a:	e23f      	b.n	54dc <_dtoa_r+0xb2c>
    505c:	2d00      	cmp	r5, #0
    505e:	dd05      	ble.n	506c <_dtoa_r+0x6bc>
    5060:	1c39      	adds	r1, r7, #0
    5062:	4658      	mov	r0, fp
    5064:	1c2a      	adds	r2, r5, #0
    5066:	f001 fafd 	bl	6664 <__lshift>
    506a:	1c07      	adds	r7, r0, #0
    506c:	2c00      	cmp	r4, #0
    506e:	d000      	beq.n	5072 <_dtoa_r+0x6c2>
    5070:	e341      	b.n	56f6 <_dtoa_r+0xd46>
    5072:	46ba      	mov	sl, r7
    5074:	9907      	ldr	r1, [sp, #28]
    5076:	9c04      	ldr	r4, [sp, #16]
    5078:	2301      	movs	r3, #1
    507a:	401c      	ands	r4, r3
    507c:	424a      	negs	r2, r1
    507e:	940c      	str	r4, [sp, #48]
    5080:	9202      	str	r2, [sp, #8]
    5082:	46b8      	mov	r8, r7
    5084:	4689      	mov	r9, r1
    5086:	9917      	ldr	r1, [sp, #92]
    5088:	9816      	ldr	r0, [sp, #88]
    508a:	f7ff fbd9 	bl	4840 <quorem>
    508e:	4641      	mov	r1, r8
    5090:	1c05      	adds	r5, r0, #0
    5092:	9816      	ldr	r0, [sp, #88]
    5094:	f001 f87c 	bl	6190 <__mcmp>
    5098:	9917      	ldr	r1, [sp, #92]
    509a:	1c07      	adds	r7, r0, #0
    509c:	4652      	mov	r2, sl
    509e:	4658      	mov	r0, fp
    50a0:	f001 fa50 	bl	6544 <__mdiff>
    50a4:	68c3      	ldr	r3, [r0, #12]
    50a6:	3530      	adds	r5, #48
    50a8:	1c04      	adds	r4, r0, #0
    50aa:	2b00      	cmp	r3, #0
    50ac:	d100      	bne.n	50b0 <_dtoa_r+0x700>
    50ae:	e0dc      	b.n	526a <_dtoa_r+0x8ba>
    50b0:	2601      	movs	r6, #1
    50b2:	4658      	mov	r0, fp
    50b4:	1c21      	adds	r1, r4, #0
    50b6:	f000 ffff 	bl	60b8 <_Bfree>
    50ba:	9b2c      	ldr	r3, [sp, #176]
    50bc:	4333      	orrs	r3, r6
    50be:	d103      	bne.n	50c8 <_dtoa_r+0x718>
    50c0:	9c0c      	ldr	r4, [sp, #48]
    50c2:	2c00      	cmp	r4, #0
    50c4:	d100      	bne.n	50c8 <_dtoa_r+0x718>
    50c6:	e343      	b.n	5750 <_dtoa_r+0xda0>
    50c8:	2f00      	cmp	r7, #0
    50ca:	da00      	bge.n	50ce <_dtoa_r+0x71e>
    50cc:	e2ee      	b.n	56ac <_dtoa_r+0xcfc>
    50ce:	9b2c      	ldr	r3, [sp, #176]
    50d0:	433b      	orrs	r3, r7
    50d2:	d103      	bne.n	50dc <_dtoa_r+0x72c>
    50d4:	9c0c      	ldr	r4, [sp, #48]
    50d6:	2c00      	cmp	r4, #0
    50d8:	d100      	bne.n	50dc <_dtoa_r+0x72c>
    50da:	e2e7      	b.n	56ac <_dtoa_r+0xcfc>
    50dc:	2e00      	cmp	r6, #0
    50de:	dd00      	ble.n	50e2 <_dtoa_r+0x732>
    50e0:	e327      	b.n	5732 <_dtoa_r+0xd82>
    50e2:	464c      	mov	r4, r9
    50e4:	7025      	strb	r5, [r4, #0]
    50e6:	9a02      	ldr	r2, [sp, #8]
    50e8:	2101      	movs	r1, #1
    50ea:	4489      	add	r9, r1
    50ec:	1c13      	adds	r3, r2, #0
    50ee:	9c1f      	ldr	r4, [sp, #124]
    50f0:	444b      	add	r3, r9
    50f2:	42a3      	cmp	r3, r4
    50f4:	d100      	bne.n	50f8 <_dtoa_r+0x748>
    50f6:	e20d      	b.n	5514 <_dtoa_r+0xb64>
    50f8:	4658      	mov	r0, fp
    50fa:	9916      	ldr	r1, [sp, #88]
    50fc:	220a      	movs	r2, #10
    50fe:	2300      	movs	r3, #0
    5100:	f001 fbcc 	bl	689c <__multadd>
    5104:	9016      	str	r0, [sp, #88]
    5106:	45d0      	cmp	r8, sl
    5108:	d100      	bne.n	510c <_dtoa_r+0x75c>
    510a:	e14e      	b.n	53aa <_dtoa_r+0x9fa>
    510c:	4641      	mov	r1, r8
    510e:	220a      	movs	r2, #10
    5110:	2300      	movs	r3, #0
    5112:	4658      	mov	r0, fp
    5114:	f001 fbc2 	bl	689c <__multadd>
    5118:	4651      	mov	r1, sl
    511a:	4680      	mov	r8, r0
    511c:	220a      	movs	r2, #10
    511e:	4658      	mov	r0, fp
    5120:	2300      	movs	r3, #0
    5122:	f001 fbbb 	bl	689c <__multadd>
    5126:	4682      	mov	sl, r0
    5128:	e7ad      	b.n	5086 <_dtoa_r+0x6d6>
    512a:	981b      	ldr	r0, [sp, #108]
    512c:	f002 e996 	blx	745c <__aeabi_i2d>
    5130:	1c22      	adds	r2, r4, #0
    5132:	1c2b      	adds	r3, r5, #0
    5134:	f002 ecb4 	blx	7aa0 <__aeabi_dcmpeq>
    5138:	2800      	cmp	r0, #0
    513a:	d000      	beq.n	513e <_dtoa_r+0x78e>
    513c:	e4cf      	b.n	4ade <_dtoa_r+0x12e>
    513e:	991b      	ldr	r1, [sp, #108]
    5140:	3901      	subs	r1, #1
    5142:	911b      	str	r1, [sp, #108]
    5144:	e4cb      	b.n	4ade <_dtoa_r+0x12e>
    5146:	4252      	negs	r2, r2
    5148:	2100      	movs	r1, #0
    514a:	920d      	str	r2, [sp, #52]
    514c:	9113      	str	r1, [sp, #76]
    514e:	e4d3      	b.n	4af8 <_dtoa_r+0x148>
    5150:	990d      	ldr	r1, [sp, #52]
    5152:	9a1b      	ldr	r2, [sp, #108]
    5154:	2400      	movs	r4, #0
    5156:	1a89      	subs	r1, r1, r2
    5158:	4253      	negs	r3, r2
    515a:	910d      	str	r1, [sp, #52]
    515c:	930e      	str	r3, [sp, #56]
    515e:	9414      	str	r4, [sp, #80]
    5160:	e4d4      	b.n	4b0c <_dtoa_r+0x15c>
    5162:	2320      	movs	r3, #32
    5164:	9804      	ldr	r0, [sp, #16]
    5166:	1b5b      	subs	r3, r3, r5
    5168:	4098      	lsls	r0, r3
    516a:	e487      	b.n	4a7c <_dtoa_r+0xcc>
    516c:	4ace      	ldr	r2, [pc, #824]	(54a8 <_dtoa_r+0xaf8>)
    516e:	008b      	lsls	r3, r1, #2
    5170:	58d3      	ldr	r3, [r2, r3]
    5172:	469f      	mov	pc, r3
    5174:	9a1b      	ldr	r2, [sp, #108]
    5176:	2300      	movs	r3, #0
    5178:	3a01      	subs	r2, #1
    517a:	921b      	str	r2, [sp, #108]
    517c:	9311      	str	r3, [sp, #68]
    517e:	e4b4      	b.n	4aea <_dtoa_r+0x13a>
    5180:	4bca      	ldr	r3, [pc, #808]	(54ac <_dtoa_r+0xafc>)
    5182:	400c      	ands	r4, r1
    5184:	6a1a      	ldr	r2, [r3, #32]
    5186:	6a5b      	ldr	r3, [r3, #36]
    5188:	981c      	ldr	r0, [sp, #112]
    518a:	991d      	ldr	r1, [sp, #116]
    518c:	f002 eb1c 	blx	77c8 <__aeabi_ddiv>
    5190:	2303      	movs	r3, #3
    5192:	9018      	str	r0, [sp, #96]
    5194:	9119      	str	r1, [sp, #100]
    5196:	4698      	mov	r8, r3
    5198:	e4ef      	b.n	4b7a <_dtoa_r+0x1ca>
    519a:	992c      	ldr	r1, [sp, #176]
    519c:	2901      	cmp	r1, #1
    519e:	dc00      	bgt.n	51a2 <_dtoa_r+0x7f2>
    51a0:	e277      	b.n	5692 <_dtoa_r+0xce2>
    51a2:	9a1f      	ldr	r2, [sp, #124]
    51a4:	990e      	ldr	r1, [sp, #56]
    51a6:	3a01      	subs	r2, #1
    51a8:	4291      	cmp	r1, r2
    51aa:	da00      	bge.n	51ae <_dtoa_r+0x7fe>
    51ac:	e262      	b.n	5674 <_dtoa_r+0xcc4>
    51ae:	1a8e      	subs	r6, r1, r2
    51b0:	9a1f      	ldr	r2, [sp, #124]
    51b2:	2a00      	cmp	r2, #0
    51b4:	da00      	bge.n	51b8 <_dtoa_r+0x808>
    51b6:	e274      	b.n	56a2 <_dtoa_r+0xcf2>
    51b8:	9d0d      	ldr	r5, [sp, #52]
    51ba:	1c13      	adds	r3, r2, #0
    51bc:	990d      	ldr	r1, [sp, #52]
    51be:	9a13      	ldr	r2, [sp, #76]
    51c0:	18c9      	adds	r1, r1, r3
    51c2:	910d      	str	r1, [sp, #52]
    51c4:	18d2      	adds	r2, r2, r3
    51c6:	4658      	mov	r0, fp
    51c8:	2101      	movs	r1, #1
    51ca:	9213      	str	r2, [sp, #76]
    51cc:	f001 fb5a 	bl	6884 <__i2b>
    51d0:	1c07      	adds	r7, r0, #0
    51d2:	e6d2      	b.n	4f7a <_dtoa_r+0x5ca>
    51d4:	9b04      	ldr	r3, [sp, #16]
    51d6:	2b00      	cmp	r3, #0
    51d8:	d000      	beq.n	51dc <_dtoa_r+0x82c>
    51da:	e70e      	b.n	4ffa <_dtoa_r+0x64a>
    51dc:	9a05      	ldr	r2, [sp, #20]
    51de:	0314      	lsls	r4, r2, #12
    51e0:	d000      	beq.n	51e4 <_dtoa_r+0x834>
    51e2:	e70a      	b.n	4ffa <_dtoa_r+0x64a>
    51e4:	4bb2      	ldr	r3, [pc, #712]	(54b0 <_dtoa_r+0xb00>)
    51e6:	421a      	tst	r2, r3
    51e8:	d100      	bne.n	51ec <_dtoa_r+0x83c>
    51ea:	e706      	b.n	4ffa <_dtoa_r+0x64a>
    51ec:	990d      	ldr	r1, [sp, #52]
    51ee:	9a13      	ldr	r2, [sp, #76]
    51f0:	3101      	adds	r1, #1
    51f2:	3201      	adds	r2, #1
    51f4:	910d      	str	r1, [sp, #52]
    51f6:	9213      	str	r2, [sp, #76]
    51f8:	2401      	movs	r4, #1
    51fa:	e6ff      	b.n	4ffc <_dtoa_r+0x64c>
    51fc:	4691      	mov	r9, r2
    51fe:	464a      	mov	r2, r9
    5200:	3a01      	subs	r2, #1
    5202:	7813      	ldrb	r3, [r2, #0]
    5204:	2b39      	cmp	r3, #57
    5206:	d109      	bne.n	521c <_dtoa_r+0x86c>
    5208:	9b07      	ldr	r3, [sp, #28]
    520a:	429a      	cmp	r2, r3
    520c:	d1f6      	bne.n	51fc <_dtoa_r+0x84c>
    520e:	9c1b      	ldr	r4, [sp, #108]
    5210:	9907      	ldr	r1, [sp, #28]
    5212:	3401      	adds	r4, #1
    5214:	2330      	movs	r3, #48
    5216:	941b      	str	r4, [sp, #108]
    5218:	700b      	strb	r3, [r1, #0]
    521a:	9a07      	ldr	r2, [sp, #28]
    521c:	3301      	adds	r3, #1
    521e:	7013      	strb	r3, [r2, #0]
    5220:	9b1b      	ldr	r3, [sp, #108]
    5222:	9310      	str	r3, [sp, #64]
    5224:	e53b      	b.n	4c9e <_dtoa_r+0x2ee>
    5226:	2301      	movs	r3, #1
    5228:	9312      	str	r3, [sp, #72]
    522a:	9a1b      	ldr	r2, [sp, #108]
    522c:	9b2d      	ldr	r3, [sp, #180]
    522e:	18d2      	adds	r2, r2, r3
    5230:	1c16      	adds	r6, r2, #0
    5232:	3601      	adds	r6, #1
    5234:	920f      	str	r2, [sp, #60]
    5236:	2e00      	cmp	r6, #0
    5238:	dc00      	bgt.n	523c <_dtoa_r+0x88c>
    523a:	e1ac      	b.n	5596 <_dtoa_r+0xbe6>
    523c:	961f      	str	r6, [sp, #124]
    523e:	e653      	b.n	4ee8 <_dtoa_r+0x538>
    5240:	2201      	movs	r2, #1
    5242:	9212      	str	r2, [sp, #72]
    5244:	9c2d      	ldr	r4, [sp, #180]
    5246:	2c00      	cmp	r4, #0
    5248:	dc00      	bgt.n	524c <_dtoa_r+0x89c>
    524a:	e1ac      	b.n	55a6 <_dtoa_r+0xbf6>
    524c:	1c26      	adds	r6, r4, #0
    524e:	941f      	str	r4, [sp, #124]
    5250:	940f      	str	r4, [sp, #60]
    5252:	e649      	b.n	4ee8 <_dtoa_r+0x538>
    5254:	2100      	movs	r1, #0
    5256:	9112      	str	r1, [sp, #72]
    5258:	e7e7      	b.n	522a <_dtoa_r+0x87a>
    525a:	2300      	movs	r3, #0
    525c:	9312      	str	r3, [sp, #72]
    525e:	e7f1      	b.n	5244 <_dtoa_r+0x894>
    5260:	9b1f      	ldr	r3, [sp, #124]
    5262:	9c1b      	ldr	r4, [sp, #108]
    5264:	469a      	mov	sl, r3
    5266:	9410      	str	r4, [sp, #64]
    5268:	e4c8      	b.n	4bfc <_dtoa_r+0x24c>
    526a:	9816      	ldr	r0, [sp, #88]
    526c:	1c21      	adds	r1, r4, #0
    526e:	f000 ff8f 	bl	6190 <__mcmp>
    5272:	1c06      	adds	r6, r0, #0
    5274:	e71d      	b.n	50b2 <_dtoa_r+0x702>
    5276:	9912      	ldr	r1, [sp, #72]
    5278:	2900      	cmp	r1, #0
    527a:	d100      	bne.n	527e <_dtoa_r+0x8ce>
    527c:	e09e      	b.n	53bc <_dtoa_r+0xa0c>
    527e:	4653      	mov	r3, sl
    5280:	4a8c      	ldr	r2, [pc, #560]	(54b4 <_dtoa_r+0xb04>)
    5282:	3b01      	subs	r3, #1
    5284:	00db      	lsls	r3, r3, #3
    5286:	18d2      	adds	r2, r2, r3
    5288:	6853      	ldr	r3, [r2, #4]
    528a:	6812      	ldr	r2, [r2, #0]
    528c:	4981      	ldr	r1, [pc, #516]	(5494 <_dtoa_r+0xae4>)
    528e:	4880      	ldr	r0, [pc, #512]	(5490 <_dtoa_r+0xae0>)
    5290:	f002 ea9a 	blx	77c8 <__aeabi_ddiv>
    5294:	1c22      	adds	r2, r4, #0
    5296:	1c2b      	adds	r3, r5, #0
    5298:	f001 ef44 	blx	7124 <__aeabi_dsub>
    529c:	9008      	str	r0, [sp, #32]
    529e:	9109      	str	r1, [sp, #36]
    52a0:	1c30      	adds	r0, r6, #0
    52a2:	1c39      	adds	r1, r7, #0
    52a4:	f002 ec38 	blx	7b18 <__aeabi_d2iz>
    52a8:	1c04      	adds	r4, r0, #0
    52aa:	f002 e8d8 	blx	745c <__aeabi_i2d>
    52ae:	1c02      	adds	r2, r0, #0
    52b0:	1c0b      	adds	r3, r1, #0
    52b2:	1c30      	adds	r0, r6, #0
    52b4:	1c39      	adds	r1, r7, #0
    52b6:	f001 ef36 	blx	7124 <__aeabi_dsub>
    52ba:	9a07      	ldr	r2, [sp, #28]
    52bc:	3430      	adds	r4, #48
    52be:	4691      	mov	r9, r2
    52c0:	2301      	movs	r3, #1
    52c2:	7014      	strb	r4, [r2, #0]
    52c4:	4499      	add	r9, r3
    52c6:	9a08      	ldr	r2, [sp, #32]
    52c8:	9b09      	ldr	r3, [sp, #36]
    52ca:	1c05      	adds	r5, r0, #0
    52cc:	1c0e      	adds	r6, r1, #0
    52ce:	f002 ebf4 	blx	7ab8 <__aeabi_dcmplt>
    52d2:	2800      	cmp	r0, #0
    52d4:	d000      	beq.n	52d8 <_dtoa_r+0x928>
    52d6:	e4e2      	b.n	4c9e <_dtoa_r+0x2ee>
    52d8:	1c2a      	adds	r2, r5, #0
    52da:	1c33      	adds	r3, r6, #0
    52dc:	486e      	ldr	r0, [pc, #440]	(5498 <_dtoa_r+0xae8>)
    52de:	496f      	ldr	r1, [pc, #444]	(549c <_dtoa_r+0xaec>)
    52e0:	f001 ef20 	blx	7124 <__aeabi_dsub>
    52e4:	9a08      	ldr	r2, [sp, #32]
    52e6:	9b09      	ldr	r3, [sp, #36]
    52e8:	f002 ebe6 	blx	7ab8 <__aeabi_dcmplt>
    52ec:	2800      	cmp	r0, #0
    52ee:	d140      	bne.n	5372 <_dtoa_r+0x9c2>
    52f0:	4654      	mov	r4, sl
    52f2:	2c01      	cmp	r4, #1
    52f4:	dc00      	bgt.n	52f8 <_dtoa_r+0x948>
    52f6:	e54e      	b.n	4d96 <_dtoa_r+0x3e6>
    52f8:	2701      	movs	r7, #1
    52fa:	e003      	b.n	5304 <_dtoa_r+0x954>
    52fc:	3701      	adds	r7, #1
    52fe:	45ba      	cmp	sl, r7
    5300:	dc00      	bgt.n	5304 <_dtoa_r+0x954>
    5302:	e548      	b.n	4d96 <_dtoa_r+0x3e6>
    5304:	9808      	ldr	r0, [sp, #32]
    5306:	9909      	ldr	r1, [sp, #36]
    5308:	4a65      	ldr	r2, [pc, #404]	(54a0 <_dtoa_r+0xaf0>)
    530a:	4b66      	ldr	r3, [pc, #408]	(54a4 <_dtoa_r+0xaf4>)
    530c:	f002 e914 	blx	7538 <__aeabi_dmul>
    5310:	4a63      	ldr	r2, [pc, #396]	(54a0 <_dtoa_r+0xaf0>)
    5312:	4b64      	ldr	r3, [pc, #400]	(54a4 <_dtoa_r+0xaf4>)
    5314:	9008      	str	r0, [sp, #32]
    5316:	9109      	str	r1, [sp, #36]
    5318:	1c28      	adds	r0, r5, #0
    531a:	1c31      	adds	r1, r6, #0
    531c:	f002 e90c 	blx	7538 <__aeabi_dmul>
    5320:	1c0e      	adds	r6, r1, #0
    5322:	1c05      	adds	r5, r0, #0
    5324:	f002 ebf8 	blx	7b18 <__aeabi_d2iz>
    5328:	1c04      	adds	r4, r0, #0
    532a:	f002 e898 	blx	745c <__aeabi_i2d>
    532e:	1c02      	adds	r2, r0, #0
    5330:	1c0b      	adds	r3, r1, #0
    5332:	1c28      	adds	r0, r5, #0
    5334:	1c31      	adds	r1, r6, #0
    5336:	f001 eef6 	blx	7124 <__aeabi_dsub>
    533a:	3430      	adds	r4, #48
    533c:	1c0e      	adds	r6, r1, #0
    533e:	4649      	mov	r1, r9
    5340:	700c      	strb	r4, [r1, #0]
    5342:	2201      	movs	r2, #1
    5344:	1c05      	adds	r5, r0, #0
    5346:	4491      	add	r9, r2
    5348:	1c28      	adds	r0, r5, #0
    534a:	1c31      	adds	r1, r6, #0
    534c:	9a08      	ldr	r2, [sp, #32]
    534e:	9b09      	ldr	r3, [sp, #36]
    5350:	f002 ebb2 	blx	7ab8 <__aeabi_dcmplt>
    5354:	2800      	cmp	r0, #0
    5356:	d000      	beq.n	535a <_dtoa_r+0x9aa>
    5358:	e4a1      	b.n	4c9e <_dtoa_r+0x2ee>
    535a:	1c2a      	adds	r2, r5, #0
    535c:	1c33      	adds	r3, r6, #0
    535e:	484e      	ldr	r0, [pc, #312]	(5498 <_dtoa_r+0xae8>)
    5360:	494e      	ldr	r1, [pc, #312]	(549c <_dtoa_r+0xaec>)
    5362:	f001 eee0 	blx	7124 <__aeabi_dsub>
    5366:	9a08      	ldr	r2, [sp, #32]
    5368:	9b09      	ldr	r3, [sp, #36]
    536a:	f002 eba6 	blx	7ab8 <__aeabi_dcmplt>
    536e:	2800      	cmp	r0, #0
    5370:	d0c4      	beq.n	52fc <_dtoa_r+0x94c>
    5372:	9a10      	ldr	r2, [sp, #64]
    5374:	921b      	str	r2, [sp, #108]
    5376:	e742      	b.n	51fe <_dtoa_r+0x84e>
    5378:	2320      	movs	r3, #32
    537a:	1a9a      	subs	r2, r3, r2
    537c:	2a04      	cmp	r2, #4
    537e:	dc00      	bgt.n	5382 <_dtoa_r+0x9d2>
    5380:	e20b      	b.n	579a <_dtoa_r+0xdea>
    5382:	1f13      	subs	r3, r2, #4
    5384:	990d      	ldr	r1, [sp, #52]
    5386:	9a13      	ldr	r2, [sp, #76]
    5388:	18c9      	adds	r1, r1, r3
    538a:	18d2      	adds	r2, r2, r3
    538c:	910d      	str	r1, [sp, #52]
    538e:	18ed      	adds	r5, r5, r3
    5390:	9213      	str	r2, [sp, #76]
    5392:	e646      	b.n	5022 <_dtoa_r+0x672>
    5394:	991b      	ldr	r1, [sp, #108]
    5396:	424c      	negs	r4, r1
    5398:	2c00      	cmp	r4, #0
    539a:	d000      	beq.n	539e <_dtoa_r+0x9ee>
    539c:	e10a      	b.n	55b4 <_dtoa_r+0xc04>
    539e:	2202      	movs	r2, #2
    53a0:	9e1c      	ldr	r6, [sp, #112]
    53a2:	9f1d      	ldr	r7, [sp, #116]
    53a4:	4690      	mov	r8, r2
    53a6:	f7ff fc06 	bl	4bb6 <_dtoa_r+0x206>
    53aa:	4641      	mov	r1, r8
    53ac:	4658      	mov	r0, fp
    53ae:	220a      	movs	r2, #10
    53b0:	2300      	movs	r3, #0
    53b2:	f001 fa73 	bl	689c <__multadd>
    53b6:	4680      	mov	r8, r0
    53b8:	4682      	mov	sl, r0
    53ba:	e664      	b.n	5086 <_dtoa_r+0x6d6>
    53bc:	4651      	mov	r1, sl
    53be:	3901      	subs	r1, #1
    53c0:	4b3c      	ldr	r3, [pc, #240]	(54b4 <_dtoa_r+0xb04>)
    53c2:	00ca      	lsls	r2, r1, #3
    53c4:	189b      	adds	r3, r3, r2
    53c6:	9103      	str	r1, [sp, #12]
    53c8:	1c22      	adds	r2, r4, #0
    53ca:	6818      	ldr	r0, [r3, #0]
    53cc:	6859      	ldr	r1, [r3, #4]
    53ce:	1c2b      	adds	r3, r5, #0
    53d0:	f002 e8b2 	blx	7538 <__aeabi_dmul>
    53d4:	900a      	str	r0, [sp, #40]
    53d6:	910b      	str	r1, [sp, #44]
    53d8:	1c30      	adds	r0, r6, #0
    53da:	1c39      	adds	r1, r7, #0
    53dc:	f002 eb9c 	blx	7b18 <__aeabi_d2iz>
    53e0:	1c04      	adds	r4, r0, #0
    53e2:	f002 e83c 	blx	745c <__aeabi_i2d>
    53e6:	1c02      	adds	r2, r0, #0
    53e8:	1c0b      	adds	r3, r1, #0
    53ea:	1c30      	adds	r0, r6, #0
    53ec:	1c39      	adds	r1, r7, #0
    53ee:	f001 ee9a 	blx	7124 <__aeabi_dsub>
    53f2:	9a07      	ldr	r2, [sp, #28]
    53f4:	3430      	adds	r4, #48
    53f6:	7014      	strb	r4, [r2, #0]
    53f8:	4691      	mov	r9, r2
    53fa:	2301      	movs	r3, #1
    53fc:	4654      	mov	r4, sl
    53fe:	1c05      	adds	r5, r0, #0
    5400:	1c0e      	adds	r6, r1, #0
    5402:	4499      	add	r9, r3
    5404:	2c01      	cmp	r4, #1
    5406:	d01f      	beq.n	5448 <_dtoa_r+0xa98>
    5408:	9907      	ldr	r1, [sp, #28]
    540a:	4688      	mov	r8, r1
    540c:	464f      	mov	r7, r9
    540e:	44d0      	add	r8, sl
    5410:	4a23      	ldr	r2, [pc, #140]	(54a0 <_dtoa_r+0xaf0>)
    5412:	4b24      	ldr	r3, [pc, #144]	(54a4 <_dtoa_r+0xaf4>)
    5414:	1c28      	adds	r0, r5, #0
    5416:	1c31      	adds	r1, r6, #0
    5418:	f002 e88e 	blx	7538 <__aeabi_dmul>
    541c:	1c0e      	adds	r6, r1, #0
    541e:	1c05      	adds	r5, r0, #0
    5420:	f002 eb7a 	blx	7b18 <__aeabi_d2iz>
    5424:	1c04      	adds	r4, r0, #0
    5426:	f002 e81a 	blx	745c <__aeabi_i2d>
    542a:	1c02      	adds	r2, r0, #0
    542c:	1c0b      	adds	r3, r1, #0
    542e:	1c28      	adds	r0, r5, #0
    5430:	1c31      	adds	r1, r6, #0
    5432:	f001 ee78 	blx	7124 <__aeabi_dsub>
    5436:	3430      	adds	r4, #48
    5438:	703c      	strb	r4, [r7, #0]
    543a:	3701      	adds	r7, #1
    543c:	1c05      	adds	r5, r0, #0
    543e:	1c0e      	adds	r6, r1, #0
    5440:	4547      	cmp	r7, r8
    5442:	d1e5      	bne.n	5410 <_dtoa_r+0xa60>
    5444:	9a03      	ldr	r2, [sp, #12]
    5446:	4491      	add	r9, r2
    5448:	4b12      	ldr	r3, [pc, #72]	(5494 <_dtoa_r+0xae4>)
    544a:	4a11      	ldr	r2, [pc, #68]	(5490 <_dtoa_r+0xae0>)
    544c:	980a      	ldr	r0, [sp, #40]
    544e:	990b      	ldr	r1, [sp, #44]
    5450:	f001 ee6a 	blx	7128 <__adddf3>
    5454:	1c2a      	adds	r2, r5, #0
    5456:	1c33      	adds	r3, r6, #0
    5458:	f002 eb2e 	blx	7ab8 <__aeabi_dcmplt>
    545c:	2800      	cmp	r0, #0
    545e:	d188      	bne.n	5372 <_dtoa_r+0x9c2>
    5460:	9a0a      	ldr	r2, [sp, #40]
    5462:	9b0b      	ldr	r3, [sp, #44]
    5464:	490b      	ldr	r1, [pc, #44]	(5494 <_dtoa_r+0xae4>)
    5466:	480a      	ldr	r0, [pc, #40]	(5490 <_dtoa_r+0xae0>)
    5468:	f001 ee5c 	blx	7124 <__aeabi_dsub>
    546c:	1c2a      	adds	r2, r5, #0
    546e:	1c33      	adds	r3, r6, #0
    5470:	f002 eb46 	blx	7b00 <__aeabi_dcmpgt>
    5474:	2800      	cmp	r0, #0
    5476:	d100      	bne.n	547a <_dtoa_r+0xaca>
    5478:	e48d      	b.n	4d96 <_dtoa_r+0x3e6>
    547a:	e000      	b.n	547e <_dtoa_r+0xace>
    547c:	4691      	mov	r9, r2
    547e:	464a      	mov	r2, r9
    5480:	3a01      	subs	r2, #1
    5482:	7813      	ldrb	r3, [r2, #0]
    5484:	2b30      	cmp	r3, #48
    5486:	d0f9      	beq.n	547c <_dtoa_r+0xacc>
    5488:	f7ff fc09 	bl	4c9e <_dtoa_r+0x2ee>
    548c:	46c0      	nop			(mov r8, r8)
    548e:	46c0      	nop			(mov r8, r8)
    5490:	00000000 	.word	0x00000000
    5494:	3fe00000 	.word	0x3fe00000
    5498:	00000000 	.word	0x00000000
    549c:	3ff00000 	.word	0x3ff00000
    54a0:	00000000 	.word	0x00000000
    54a4:	40240000 	.word	0x40240000
    54a8:	00008d04 	.word	0x00008d04
    54ac:	00008e50 	.word	0x00008e50
    54b0:	7ff00000 	.word	0x7ff00000
    54b4:	00008d78 	.word	0x00008d78
    54b8:	9910      	ldr	r1, [sp, #64]
    54ba:	911b      	str	r1, [sp, #108]
    54bc:	2700      	movs	r7, #0
    54be:	9717      	str	r7, [sp, #92]
    54c0:	9a07      	ldr	r2, [sp, #28]
    54c2:	2331      	movs	r3, #49
    54c4:	7013      	strb	r3, [r2, #0]
    54c6:	9c1b      	ldr	r4, [sp, #108]
    54c8:	4691      	mov	r9, r2
    54ca:	2301      	movs	r3, #1
    54cc:	3401      	adds	r4, #1
    54ce:	2100      	movs	r1, #0
    54d0:	4499      	add	r9, r3
    54d2:	941b      	str	r4, [sp, #108]
    54d4:	46ba      	mov	sl, r7
    54d6:	4688      	mov	r8, r1
    54d8:	f7ff fbca 	bl	4c70 <_dtoa_r+0x2c0>
    54dc:	9907      	ldr	r1, [sp, #28]
    54de:	2401      	movs	r4, #1
    54e0:	4689      	mov	r9, r1
    54e2:	e007      	b.n	54f4 <_dtoa_r+0xb44>
    54e4:	4658      	mov	r0, fp
    54e6:	9916      	ldr	r1, [sp, #88]
    54e8:	220a      	movs	r2, #10
    54ea:	2300      	movs	r3, #0
    54ec:	f001 f9d6 	bl	689c <__multadd>
    54f0:	9016      	str	r0, [sp, #88]
    54f2:	3401      	adds	r4, #1
    54f4:	9917      	ldr	r1, [sp, #92]
    54f6:	9816      	ldr	r0, [sp, #88]
    54f8:	f7ff f9a2 	bl	4840 <quorem>
    54fc:	1c05      	adds	r5, r0, #0
    54fe:	464a      	mov	r2, r9
    5500:	3530      	adds	r5, #48
    5502:	7015      	strb	r5, [r2, #0]
    5504:	991f      	ldr	r1, [sp, #124]
    5506:	2301      	movs	r3, #1
    5508:	4499      	add	r9, r3
    550a:	428c      	cmp	r4, r1
    550c:	dbea      	blt.n	54e4 <_dtoa_r+0xb34>
    550e:	2200      	movs	r2, #0
    5510:	46ba      	mov	sl, r7
    5512:	4690      	mov	r8, r2
    5514:	9916      	ldr	r1, [sp, #88]
    5516:	4658      	mov	r0, fp
    5518:	2201      	movs	r2, #1
    551a:	f001 f8a3 	bl	6664 <__lshift>
    551e:	9917      	ldr	r1, [sp, #92]
    5520:	9016      	str	r0, [sp, #88]
    5522:	f000 fe35 	bl	6190 <__mcmp>
    5526:	2800      	cmp	r0, #0
    5528:	dc01      	bgt.n	552e <_dtoa_r+0xb7e>
    552a:	e0d6      	b.n	56da <_dtoa_r+0xd2a>
    552c:	4691      	mov	r9, r2
    552e:	464a      	mov	r2, r9
    5530:	3a01      	subs	r2, #1
    5532:	7813      	ldrb	r3, [r2, #0]
    5534:	2b39      	cmp	r3, #57
    5536:	d000      	beq.n	553a <_dtoa_r+0xb8a>
    5538:	e0f7      	b.n	572a <_dtoa_r+0xd7a>
    553a:	9c07      	ldr	r4, [sp, #28]
    553c:	42a2      	cmp	r2, r4
    553e:	d1f5      	bne.n	552c <_dtoa_r+0xb7c>
    5540:	991b      	ldr	r1, [sp, #108]
    5542:	9a07      	ldr	r2, [sp, #28]
    5544:	3101      	adds	r1, #1
    5546:	2331      	movs	r3, #49
    5548:	911b      	str	r1, [sp, #108]
    554a:	7013      	strb	r3, [r2, #0]
    554c:	f7ff fb90 	bl	4c70 <_dtoa_r+0x2c0>
    5550:	9816      	ldr	r0, [sp, #88]
    5552:	9917      	ldr	r1, [sp, #92]
    5554:	f000 fe1c 	bl	6190 <__mcmp>
    5558:	2800      	cmp	r0, #0
    555a:	db00      	blt.n	555e <_dtoa_r+0xbae>
    555c:	e576      	b.n	504c <_dtoa_r+0x69c>
    555e:	9a1b      	ldr	r2, [sp, #108]
    5560:	3a01      	subs	r2, #1
    5562:	921b      	str	r2, [sp, #108]
    5564:	2300      	movs	r3, #0
    5566:	4658      	mov	r0, fp
    5568:	9916      	ldr	r1, [sp, #88]
    556a:	220a      	movs	r2, #10
    556c:	f001 f996 	bl	689c <__multadd>
    5570:	9b12      	ldr	r3, [sp, #72]
    5572:	9016      	str	r0, [sp, #88]
    5574:	2b00      	cmp	r3, #0
    5576:	d000      	beq.n	557a <_dtoa_r+0xbca>
    5578:	e0f9      	b.n	576e <_dtoa_r+0xdbe>
    557a:	990f      	ldr	r1, [sp, #60]
    557c:	911f      	str	r1, [sp, #124]
    557e:	e565      	b.n	504c <_dtoa_r+0x69c>
    5580:	9917      	ldr	r1, [sp, #92]
    5582:	690b      	ldr	r3, [r1, #16]
    5584:	3303      	adds	r3, #3
    5586:	009b      	lsls	r3, r3, #2
    5588:	18cb      	adds	r3, r1, r3
    558a:	6858      	ldr	r0, [r3, #4]
    558c:	f000 fda2 	bl	60d4 <__hi0bits>
    5590:	2320      	movs	r3, #32
    5592:	1a1a      	subs	r2, r3, r0
    5594:	e537      	b.n	5006 <_dtoa_r+0x656>
    5596:	2300      	movs	r3, #0
    5598:	220e      	movs	r2, #14
    559a:	42b2      	cmp	r2, r6
    559c:	415b      	adcs	r3, r3
    559e:	1c1c      	adds	r4, r3, #0
    55a0:	961f      	str	r6, [sp, #124]
    55a2:	f7ff fac2 	bl	4b2a <_dtoa_r+0x17a>
    55a6:	2101      	movs	r1, #1
    55a8:	912d      	str	r1, [sp, #180]
    55aa:	911f      	str	r1, [sp, #124]
    55ac:	910f      	str	r1, [sp, #60]
    55ae:	2401      	movs	r4, #1
    55b0:	f7ff fabb 	bl	4b2a <_dtoa_r+0x17a>
    55b4:	230f      	movs	r3, #15
    55b6:	4023      	ands	r3, r4
    55b8:	4a7f      	ldr	r2, [pc, #508]	(57b8 <_dtoa_r+0xe08>)
    55ba:	00db      	lsls	r3, r3, #3
    55bc:	18d2      	adds	r2, r2, r3
    55be:	6853      	ldr	r3, [r2, #4]
    55c0:	6812      	ldr	r2, [r2, #0]
    55c2:	981c      	ldr	r0, [sp, #112]
    55c4:	991d      	ldr	r1, [sp, #116]
    55c6:	f001 efb8 	blx	7538 <__aeabi_dmul>
    55ca:	1124      	asrs	r4, r4, #4
    55cc:	1c06      	adds	r6, r0, #0
    55ce:	1c0f      	adds	r7, r1, #0
    55d0:	2c00      	cmp	r4, #0
    55d2:	d100      	bne.n	55d6 <_dtoa_r+0xc26>
    55d4:	e0c7      	b.n	5766 <_dtoa_r+0xdb6>
    55d6:	2102      	movs	r1, #2
    55d8:	2201      	movs	r2, #1
    55da:	4d78      	ldr	r5, [pc, #480]	(57bc <_dtoa_r+0xe0c>)
    55dc:	4688      	mov	r8, r1
    55de:	4691      	mov	r9, r2
    55e0:	464b      	mov	r3, r9
    55e2:	421c      	tst	r4, r3
    55e4:	d009      	beq.n	55fa <_dtoa_r+0xc4a>
    55e6:	2101      	movs	r1, #1
    55e8:	1c30      	adds	r0, r6, #0
    55ea:	4488      	add	r8, r1
    55ec:	682a      	ldr	r2, [r5, #0]
    55ee:	686b      	ldr	r3, [r5, #4]
    55f0:	1c39      	adds	r1, r7, #0
    55f2:	f001 efa2 	blx	7538 <__aeabi_dmul>
    55f6:	1c06      	adds	r6, r0, #0
    55f8:	1c0f      	adds	r7, r1, #0
    55fa:	1064      	asrs	r4, r4, #1
    55fc:	3508      	adds	r5, #8
    55fe:	2c00      	cmp	r4, #0
    5600:	d1ee      	bne.n	55e0 <_dtoa_r+0xc30>
    5602:	f7ff fad8 	bl	4bb6 <_dtoa_r+0x206>
    5606:	4658      	mov	r0, fp
    5608:	9916      	ldr	r1, [sp, #88]
    560a:	9a0e      	ldr	r2, [sp, #56]
    560c:	f001 f99a 	bl	6944 <__pow5mult>
    5610:	9016      	str	r0, [sp, #88]
    5612:	e4e0      	b.n	4fd6 <_dtoa_r+0x626>
    5614:	992c      	ldr	r1, [sp, #176]
    5616:	2902      	cmp	r1, #2
    5618:	dc00      	bgt.n	561c <_dtoa_r+0xc6c>
    561a:	e51b      	b.n	5054 <_dtoa_r+0x6a4>
    561c:	2b00      	cmp	r3, #0
    561e:	d001      	beq.n	5624 <_dtoa_r+0xc74>
    5620:	f7ff fb1e 	bl	4c60 <_dtoa_r+0x2b0>
    5624:	9917      	ldr	r1, [sp, #92]
    5626:	4658      	mov	r0, fp
    5628:	2205      	movs	r2, #5
    562a:	f001 f937 	bl	689c <__multadd>
    562e:	9017      	str	r0, [sp, #92]
    5630:	9917      	ldr	r1, [sp, #92]
    5632:	9816      	ldr	r0, [sp, #88]
    5634:	f000 fdac 	bl	6190 <__mcmp>
    5638:	2800      	cmp	r0, #0
    563a:	dd00      	ble.n	563e <_dtoa_r+0xc8e>
    563c:	e740      	b.n	54c0 <_dtoa_r+0xb10>
    563e:	f7ff fb0f 	bl	4c60 <_dtoa_r+0x2b0>
    5642:	9a1f      	ldr	r2, [sp, #124]
    5644:	2a00      	cmp	r2, #0
    5646:	dd01      	ble.n	564c <_dtoa_r+0xc9c>
    5648:	f7ff fbbb 	bl	4dc2 <_dtoa_r+0x412>
    564c:	9b1f      	ldr	r3, [sp, #124]
    564e:	2b00      	cmp	r3, #0
    5650:	d001      	beq.n	5656 <_dtoa_r+0xca6>
    5652:	f7ff fb03 	bl	4c5c <_dtoa_r+0x2ac>
    5656:	4b57      	ldr	r3, [pc, #348]	(57b4 <_dtoa_r+0xe04>)
    5658:	4a55      	ldr	r2, [pc, #340]	(57b0 <_dtoa_r+0xe00>)
    565a:	1c30      	adds	r0, r6, #0
    565c:	1c39      	adds	r1, r7, #0
    565e:	f001 ef6c 	blx	7538 <__aeabi_dmul>
    5662:	9a04      	ldr	r2, [sp, #16]
    5664:	9b05      	ldr	r3, [sp, #20]
    5666:	f002 ea40 	blx	7ae8 <__aeabi_dcmpge>
    566a:	2800      	cmp	r0, #0
    566c:	d001      	beq.n	5672 <_dtoa_r+0xcc2>
    566e:	f7ff faf5 	bl	4c5c <_dtoa_r+0x2ac>
    5672:	e723      	b.n	54bc <_dtoa_r+0xb0c>
    5674:	9c0e      	ldr	r4, [sp, #56]
    5676:	9914      	ldr	r1, [sp, #80]
    5678:	1b13      	subs	r3, r2, r4
    567a:	18c9      	adds	r1, r1, r3
    567c:	18e4      	adds	r4, r4, r3
    567e:	9114      	str	r1, [sp, #80]
    5680:	940e      	str	r4, [sp, #56]
    5682:	2600      	movs	r6, #0
    5684:	e594      	b.n	51b0 <_dtoa_r+0x800>
    5686:	4658      	mov	r0, fp
    5688:	9916      	ldr	r1, [sp, #88]
    568a:	f001 f95b 	bl	6944 <__pow5mult>
    568e:	9016      	str	r0, [sp, #88]
    5690:	e4a1      	b.n	4fd6 <_dtoa_r+0x626>
    5692:	9a15      	ldr	r2, [sp, #84]
    5694:	2a00      	cmp	r2, #0
    5696:	d042      	beq.n	571e <_dtoa_r+0xd6e>
    5698:	4c49      	ldr	r4, [pc, #292]	(57c0 <_dtoa_r+0xe10>)
    569a:	9d0d      	ldr	r5, [sp, #52]
    569c:	191b      	adds	r3, r3, r4
    569e:	9e0e      	ldr	r6, [sp, #56]
    56a0:	e58c      	b.n	51bc <_dtoa_r+0x80c>
    56a2:	9b0d      	ldr	r3, [sp, #52]
    56a4:	9c1f      	ldr	r4, [sp, #124]
    56a6:	1b1d      	subs	r5, r3, r4
    56a8:	2300      	movs	r3, #0
    56aa:	e587      	b.n	51bc <_dtoa_r+0x80c>
    56ac:	1c2c      	adds	r4, r5, #0
    56ae:	2e00      	cmp	r6, #0
    56b0:	dd0d      	ble.n	56ce <_dtoa_r+0xd1e>
    56b2:	9916      	ldr	r1, [sp, #88]
    56b4:	4658      	mov	r0, fp
    56b6:	2201      	movs	r2, #1
    56b8:	f000 ffd4 	bl	6664 <__lshift>
    56bc:	9917      	ldr	r1, [sp, #92]
    56be:	9016      	str	r0, [sp, #88]
    56c0:	f000 fd66 	bl	6190 <__mcmp>
    56c4:	2800      	cmp	r0, #0
    56c6:	dd5c      	ble.n	5782 <_dtoa_r+0xdd2>
    56c8:	2d39      	cmp	r5, #57
    56ca:	d03b      	beq.n	5744 <_dtoa_r+0xd94>
    56cc:	1c6c      	adds	r4, r5, #1
    56ce:	464a      	mov	r2, r9
    56d0:	2301      	movs	r3, #1
    56d2:	7014      	strb	r4, [r2, #0]
    56d4:	4499      	add	r9, r3
    56d6:	f7ff facb 	bl	4c70 <_dtoa_r+0x2c0>
    56da:	2800      	cmp	r0, #0
    56dc:	d104      	bne.n	56e8 <_dtoa_r+0xd38>
    56de:	07eb      	lsls	r3, r5, #31
    56e0:	d500      	bpl.n	56e4 <_dtoa_r+0xd34>
    56e2:	e724      	b.n	552e <_dtoa_r+0xb7e>
    56e4:	e000      	b.n	56e8 <_dtoa_r+0xd38>
    56e6:	4691      	mov	r9, r2
    56e8:	464a      	mov	r2, r9
    56ea:	3a01      	subs	r2, #1
    56ec:	7813      	ldrb	r3, [r2, #0]
    56ee:	2b30      	cmp	r3, #48
    56f0:	d0f9      	beq.n	56e6 <_dtoa_r+0xd36>
    56f2:	f7ff fabd 	bl	4c70 <_dtoa_r+0x2c0>
    56f6:	6879      	ldr	r1, [r7, #4]
    56f8:	4658      	mov	r0, fp
    56fa:	f000 fe8f 	bl	641c <_Balloc>
    56fe:	693a      	ldr	r2, [r7, #16]
    5700:	1c39      	adds	r1, r7, #0
    5702:	3202      	adds	r2, #2
    5704:	1c04      	adds	r4, r0, #0
    5706:	310c      	adds	r1, #12
    5708:	0092      	lsls	r2, r2, #2
    570a:	300c      	adds	r0, #12
    570c:	f7fd fc88 	bl	3020 <memcpy>
    5710:	4658      	mov	r0, fp
    5712:	1c21      	adds	r1, r4, #0
    5714:	2201      	movs	r2, #1
    5716:	f000 ffa5 	bl	6664 <__lshift>
    571a:	4682      	mov	sl, r0
    571c:	e4aa      	b.n	5074 <_dtoa_r+0x6c4>
    571e:	9a21      	ldr	r2, [sp, #132]
    5720:	2336      	movs	r3, #54
    5722:	1a9b      	subs	r3, r3, r2
    5724:	9d0d      	ldr	r5, [sp, #52]
    5726:	9e0e      	ldr	r6, [sp, #56]
    5728:	e548      	b.n	51bc <_dtoa_r+0x80c>
    572a:	3301      	adds	r3, #1
    572c:	7013      	strb	r3, [r2, #0]
    572e:	f7ff fa9f 	bl	4c70 <_dtoa_r+0x2c0>
    5732:	2d39      	cmp	r5, #57
    5734:	d006      	beq.n	5744 <_dtoa_r+0xd94>
    5736:	1c6b      	adds	r3, r5, #1
    5738:	464a      	mov	r2, r9
    573a:	7013      	strb	r3, [r2, #0]
    573c:	2301      	movs	r3, #1
    573e:	4499      	add	r9, r3
    5740:	f7ff fa96 	bl	4c70 <_dtoa_r+0x2c0>
    5744:	464c      	mov	r4, r9
    5746:	2339      	movs	r3, #57
    5748:	2101      	movs	r1, #1
    574a:	7023      	strb	r3, [r4, #0]
    574c:	4489      	add	r9, r1
    574e:	e6ee      	b.n	552e <_dtoa_r+0xb7e>
    5750:	2d39      	cmp	r5, #57
    5752:	d0f7      	beq.n	5744 <_dtoa_r+0xd94>
    5754:	2f00      	cmp	r7, #0
    5756:	dd00      	ble.n	575a <_dtoa_r+0xdaa>
    5758:	3501      	adds	r5, #1
    575a:	4649      	mov	r1, r9
    575c:	2201      	movs	r2, #1
    575e:	700d      	strb	r5, [r1, #0]
    5760:	4491      	add	r9, r2
    5762:	f7ff fa85 	bl	4c70 <_dtoa_r+0x2c0>
    5766:	2302      	movs	r3, #2
    5768:	4698      	mov	r8, r3
    576a:	f7ff fa24 	bl	4bb6 <_dtoa_r+0x206>
    576e:	1c39      	adds	r1, r7, #0
    5770:	220a      	movs	r2, #10
    5772:	4658      	mov	r0, fp
    5774:	2300      	movs	r3, #0
    5776:	f001 f891 	bl	689c <__multadd>
    577a:	9a0f      	ldr	r2, [sp, #60]
    577c:	1c07      	adds	r7, r0, #0
    577e:	921f      	str	r2, [sp, #124]
    5780:	e464      	b.n	504c <_dtoa_r+0x69c>
    5782:	2800      	cmp	r0, #0
    5784:	d1a3      	bne.n	56ce <_dtoa_r+0xd1e>
    5786:	07e9      	lsls	r1, r5, #31
    5788:	d5a1      	bpl.n	56ce <_dtoa_r+0xd1e>
    578a:	e79d      	b.n	56c8 <_dtoa_r+0xd18>
    578c:	9c1f      	ldr	r4, [sp, #124]
    578e:	230e      	movs	r3, #14
    5790:	42a3      	cmp	r3, r4
    5792:	4152      	adcs	r2, r2
    5794:	1c14      	adds	r4, r2, #0
    5796:	f7ff f9cb 	bl	4b30 <_dtoa_r+0x180>
    579a:	2a04      	cmp	r2, #4
    579c:	d100      	bne.n	57a0 <_dtoa_r+0xdf0>
    579e:	e440      	b.n	5022 <_dtoa_r+0x672>
    57a0:	321c      	adds	r2, #28
    57a2:	e437      	b.n	5014 <_dtoa_r+0x664>
    57a4:	2501      	movs	r5, #1
    57a6:	f7ff fb95 	bl	4ed4 <_dtoa_r+0x524>
    57aa:	46c0      	nop			(mov r8, r8)
    57ac:	46c0      	nop			(mov r8, r8)
    57ae:	46c0      	nop			(mov r8, r8)
    57b0:	00000000 	.word	0x00000000
    57b4:	40140000 	.word	0x40140000
    57b8:	00008d78 	.word	0x00008d78
    57bc:	00008e50 	.word	0x00008e50
    57c0:	00000433 	.word	0x00000433
    57c4:	46c0      	nop			(mov r8, r8)
    57c6:	46c0      	nop			(mov r8, r8)

000057c8 <_malloc_trim_r>:
    57c8:	b5f8      	push	{r3, r4, r5, r6, r7, lr}
    57ca:	1c0c      	adds	r4, r1, #0
    57cc:	1c06      	adds	r6, r0, #0
    57ce:	f000 fc6d 	bl	60ac <__malloc_lock>
    57d2:	4f21      	ldr	r7, [pc, #132]	(5858 <_malloc_trim_r+0x90>)
    57d4:	68bb      	ldr	r3, [r7, #8]
    57d6:	685a      	ldr	r2, [r3, #4]
    57d8:	2303      	movs	r3, #3
    57da:	1c15      	adds	r5, r2, #0
    57dc:	4a1f      	ldr	r2, [pc, #124]	(585c <_malloc_trim_r+0x94>)
    57de:	439d      	bics	r5, r3
    57e0:	18ab      	adds	r3, r5, r2
    57e2:	1b1b      	subs	r3, r3, r4
    57e4:	0b1b      	lsrs	r3, r3, #12
    57e6:	3b01      	subs	r3, #1
    57e8:	031c      	lsls	r4, r3, #12
    57ea:	4b1d      	ldr	r3, [pc, #116]	(5860 <_malloc_trim_r+0x98>)
    57ec:	429c      	cmp	r4, r3
    57ee:	dd07      	ble.n	5800 <_malloc_trim_r+0x38>
    57f0:	1c30      	adds	r0, r6, #0
    57f2:	2100      	movs	r1, #0
    57f4:	f001 fb12 	bl	6e1c <_sbrk_r>
    57f8:	68bb      	ldr	r3, [r7, #8]
    57fa:	195b      	adds	r3, r3, r5
    57fc:	4298      	cmp	r0, r3
    57fe:	d006      	beq.n	580e <_malloc_trim_r+0x46>
    5800:	1c30      	adds	r0, r6, #0
    5802:	f000 fc55 	bl	60b0 <__malloc_unlock>
    5806:	2000      	movs	r0, #0
    5808:	bcf8      	pop	{r3, r4, r5, r6, r7}
    580a:	bc02      	pop	{r1}
    580c:	4708      	bx	r1
    580e:	4261      	negs	r1, r4
    5810:	1c30      	adds	r0, r6, #0
    5812:	f001 fb03 	bl	6e1c <_sbrk_r>
    5816:	3001      	adds	r0, #1
    5818:	d00d      	beq.n	5836 <_malloc_trim_r+0x6e>
    581a:	68b9      	ldr	r1, [r7, #8]
    581c:	2201      	movs	r2, #1
    581e:	1b2b      	subs	r3, r5, r4
    5820:	4313      	orrs	r3, r2
    5822:	604b      	str	r3, [r1, #4]
    5824:	4a0f      	ldr	r2, [pc, #60]	(5864 <_malloc_trim_r+0x9c>)
    5826:	6813      	ldr	r3, [r2, #0]
    5828:	1b1b      	subs	r3, r3, r4
    582a:	1c30      	adds	r0, r6, #0
    582c:	6013      	str	r3, [r2, #0]
    582e:	f000 fc3f 	bl	60b0 <__malloc_unlock>
    5832:	2001      	movs	r0, #1
    5834:	e7e8      	b.n	5808 <_malloc_trim_r+0x40>
    5836:	2100      	movs	r1, #0
    5838:	1c30      	adds	r0, r6, #0
    583a:	f001 faef 	bl	6e1c <_sbrk_r>
    583e:	68bc      	ldr	r4, [r7, #8]
    5840:	1b01      	subs	r1, r0, r4
    5842:	290f      	cmp	r1, #15
    5844:	dddc      	ble.n	5800 <_malloc_trim_r+0x38>
    5846:	4b08      	ldr	r3, [pc, #32]	(5868 <_malloc_trim_r+0xa0>)
    5848:	681b      	ldr	r3, [r3, #0]
    584a:	4a06      	ldr	r2, [pc, #24]	(5864 <_malloc_trim_r+0x9c>)
    584c:	1ac3      	subs	r3, r0, r3
    584e:	6013      	str	r3, [r2, #0]
    5850:	2301      	movs	r3, #1
    5852:	430b      	orrs	r3, r1
    5854:	6063      	str	r3, [r4, #4]
    5856:	e7d3      	b.n	5800 <_malloc_trim_r+0x38>
    5858:	10000448 	.word	0x10000448
    585c:	00000fef 	.word	0x00000fef
    5860:	00000fff 	.word	0x00000fff
    5864:	10000870 	.word	0x10000870
    5868:	10000850 	.word	0x10000850

0000586c <_free_r>:
    586c:	b5f0      	push	{r4, r5, r6, r7, lr}
    586e:	4647      	mov	r7, r8
    5870:	b480      	push	{r7}
    5872:	4680      	mov	r8, r0
    5874:	1c0c      	adds	r4, r1, #0
    5876:	2900      	cmp	r1, #0
    5878:	d053      	beq.n	5922 <_free_r+0xb6>
    587a:	1c25      	adds	r5, r4, #0
    587c:	3d08      	subs	r5, #8
    587e:	f000 fc15 	bl	60ac <__malloc_lock>
    5882:	686c      	ldr	r4, [r5, #4]
    5884:	2701      	movs	r7, #1
    5886:	1c21      	adds	r1, r4, #0
    5888:	43b9      	bics	r1, r7
    588a:	1868      	adds	r0, r5, r1
    588c:	6843      	ldr	r3, [r0, #4]
    588e:	2203      	movs	r2, #3
    5890:	1c1e      	adds	r6, r3, #0
    5892:	4396      	bics	r6, r2
    5894:	4a54      	ldr	r2, [pc, #336]	(59e8 <_free_r+0x17c>)
    5896:	6893      	ldr	r3, [r2, #8]
    5898:	4694      	mov	ip, r2
    589a:	4283      	cmp	r3, r0
    589c:	d058      	beq.n	5950 <_free_r+0xe4>
    589e:	6046      	str	r6, [r0, #4]
    58a0:	423c      	tst	r4, r7
    58a2:	d10a      	bne.n	58ba <_free_r+0x4e>
    58a4:	682b      	ldr	r3, [r5, #0]
    58a6:	1aed      	subs	r5, r5, r3
    58a8:	18c9      	adds	r1, r1, r3
    58aa:	68aa      	ldr	r2, [r5, #8]
    58ac:	4663      	mov	r3, ip
    58ae:	3308      	adds	r3, #8
    58b0:	429a      	cmp	r2, r3
    58b2:	d066      	beq.n	5982 <_free_r+0x116>
    58b4:	68eb      	ldr	r3, [r5, #12]
    58b6:	60d3      	str	r3, [r2, #12]
    58b8:	609a      	str	r2, [r3, #8]
    58ba:	2400      	movs	r4, #0
    58bc:	1983      	adds	r3, r0, r6
    58be:	685b      	ldr	r3, [r3, #4]
    58c0:	2701      	movs	r7, #1
    58c2:	423b      	tst	r3, r7
    58c4:	d109      	bne.n	58da <_free_r+0x6e>
    58c6:	1989      	adds	r1, r1, r6
    58c8:	2c00      	cmp	r4, #0
    58ca:	d12f      	bne.n	592c <_free_r+0xc0>
    58cc:	6882      	ldr	r2, [r0, #8]
    58ce:	4b47      	ldr	r3, [pc, #284]	(59ec <_free_r+0x180>)
    58d0:	429a      	cmp	r2, r3
    58d2:	d067      	beq.n	59a4 <_free_r+0x138>
    58d4:	68c3      	ldr	r3, [r0, #12]
    58d6:	60d3      	str	r3, [r2, #12]
    58d8:	609a      	str	r2, [r3, #8]
    58da:	2001      	movs	r0, #1
    58dc:	1c0b      	adds	r3, r1, #0
    58de:	4303      	orrs	r3, r0
    58e0:	606b      	str	r3, [r5, #4]
    58e2:	5069      	str	r1, [r5, r1]
    58e4:	2c00      	cmp	r4, #0
    58e6:	d119      	bne.n	591c <_free_r+0xb0>
    58e8:	4b41      	ldr	r3, [pc, #260]	(59f0 <_free_r+0x184>)
    58ea:	4299      	cmp	r1, r3
    58ec:	d920      	bls.n	5930 <_free_r+0xc4>
    58ee:	0a4a      	lsrs	r2, r1, #9
    58f0:	2a04      	cmp	r2, #4
    58f2:	d848      	bhi.n	5986 <_free_r+0x11a>
    58f4:	098b      	lsrs	r3, r1, #6
    58f6:	3338      	adds	r3, #56
    58f8:	00da      	lsls	r2, r3, #3
    58fa:	4462      	add	r2, ip
    58fc:	6890      	ldr	r0, [r2, #8]
    58fe:	4290      	cmp	r0, r2
    5900:	d047      	beq.n	5992 <_free_r+0x126>
    5902:	2403      	movs	r4, #3
    5904:	6843      	ldr	r3, [r0, #4]
    5906:	43a3      	bics	r3, r4
    5908:	4299      	cmp	r1, r3
    590a:	d202      	bcs.n	5912 <_free_r+0xa6>
    590c:	6880      	ldr	r0, [r0, #8]
    590e:	4282      	cmp	r2, r0
    5910:	d1f8      	bne.n	5904 <_free_r+0x98>
    5912:	68c3      	ldr	r3, [r0, #12]
    5914:	60eb      	str	r3, [r5, #12]
    5916:	60a8      	str	r0, [r5, #8]
    5918:	60c5      	str	r5, [r0, #12]
    591a:	609d      	str	r5, [r3, #8]
    591c:	4640      	mov	r0, r8
    591e:	f000 fbc7 	bl	60b0 <__malloc_unlock>
    5922:	bc04      	pop	{r2}
    5924:	4690      	mov	r8, r2
    5926:	bcf0      	pop	{r4, r5, r6, r7}
    5928:	bc01      	pop	{r0}
    592a:	4700      	bx	r0
    592c:	6882      	ldr	r2, [r0, #8]
    592e:	e7d1      	b.n	58d4 <_free_r+0x68>
    5930:	08c9      	lsrs	r1, r1, #3
    5932:	108a      	asrs	r2, r1, #2
    5934:	4090      	lsls	r0, r2
    5936:	1c02      	adds	r2, r0, #0
    5938:	4660      	mov	r0, ip
    593a:	6843      	ldr	r3, [r0, #4]
    593c:	00c9      	lsls	r1, r1, #3
    593e:	4461      	add	r1, ip
    5940:	4313      	orrs	r3, r2
    5942:	6043      	str	r3, [r0, #4]
    5944:	688b      	ldr	r3, [r1, #8]
    5946:	60e9      	str	r1, [r5, #12]
    5948:	60ab      	str	r3, [r5, #8]
    594a:	60dd      	str	r5, [r3, #12]
    594c:	608d      	str	r5, [r1, #8]
    594e:	e7e5      	b.n	591c <_free_r+0xb0>
    5950:	1871      	adds	r1, r6, r1
    5952:	423c      	tst	r4, r7
    5954:	d106      	bne.n	5964 <_free_r+0xf8>
    5956:	682b      	ldr	r3, [r5, #0]
    5958:	1aed      	subs	r5, r5, r3
    595a:	68ea      	ldr	r2, [r5, #12]
    595c:	18c9      	adds	r1, r1, r3
    595e:	68ab      	ldr	r3, [r5, #8]
    5960:	60da      	str	r2, [r3, #12]
    5962:	6093      	str	r3, [r2, #8]
    5964:	2301      	movs	r3, #1
    5966:	430b      	orrs	r3, r1
    5968:	606b      	str	r3, [r5, #4]
    596a:	4663      	mov	r3, ip
    596c:	609d      	str	r5, [r3, #8]
    596e:	4b21      	ldr	r3, [pc, #132]	(59f4 <_free_r+0x188>)
    5970:	681b      	ldr	r3, [r3, #0]
    5972:	4299      	cmp	r1, r3
    5974:	d3d2      	bcc.n	591c <_free_r+0xb0>
    5976:	4b20      	ldr	r3, [pc, #128]	(59f8 <_free_r+0x18c>)
    5978:	4640      	mov	r0, r8
    597a:	6819      	ldr	r1, [r3, #0]
    597c:	f7ff ff24 	bl	57c8 <_malloc_trim_r>
    5980:	e7cc      	b.n	591c <_free_r+0xb0>
    5982:	2401      	movs	r4, #1
    5984:	e79a      	b.n	58bc <_free_r+0x50>
    5986:	2a14      	cmp	r2, #20
    5988:	d815      	bhi.n	59b6 <_free_r+0x14a>
    598a:	1c13      	adds	r3, r2, #0
    598c:	335b      	adds	r3, #91
    598e:	00da      	lsls	r2, r3, #3
    5990:	e7b3      	b.n	58fa <_free_r+0x8e>
    5992:	109b      	asrs	r3, r3, #2
    5994:	4661      	mov	r1, ip
    5996:	2201      	movs	r2, #1
    5998:	409a      	lsls	r2, r3
    599a:	684b      	ldr	r3, [r1, #4]
    599c:	4313      	orrs	r3, r2
    599e:	604b      	str	r3, [r1, #4]
    59a0:	1c03      	adds	r3, r0, #0
    59a2:	e7b7      	b.n	5914 <_free_r+0xa8>
    59a4:	1c0b      	adds	r3, r1, #0
    59a6:	433b      	orrs	r3, r7
    59a8:	60d5      	str	r5, [r2, #12]
    59aa:	6095      	str	r5, [r2, #8]
    59ac:	60ea      	str	r2, [r5, #12]
    59ae:	60aa      	str	r2, [r5, #8]
    59b0:	606b      	str	r3, [r5, #4]
    59b2:	5069      	str	r1, [r5, r1]
    59b4:	e7b2      	b.n	591c <_free_r+0xb0>
    59b6:	2a54      	cmp	r2, #84
    59b8:	d803      	bhi.n	59c2 <_free_r+0x156>
    59ba:	0b0b      	lsrs	r3, r1, #12
    59bc:	336e      	adds	r3, #110
    59be:	00da      	lsls	r2, r3, #3
    59c0:	e79b      	b.n	58fa <_free_r+0x8e>
    59c2:	23aa      	movs	r3, #170
    59c4:	005b      	lsls	r3, r3, #1
    59c6:	429a      	cmp	r2, r3
    59c8:	d803      	bhi.n	59d2 <_free_r+0x166>
    59ca:	0bcb      	lsrs	r3, r1, #15
    59cc:	3377      	adds	r3, #119
    59ce:	00da      	lsls	r2, r3, #3
    59d0:	e793      	b.n	58fa <_free_r+0x8e>
    59d2:	4b0a      	ldr	r3, [pc, #40]	(59fc <_free_r+0x190>)
    59d4:	429a      	cmp	r2, r3
    59d6:	d903      	bls.n	59e0 <_free_r+0x174>
    59d8:	22fc      	movs	r2, #252
    59da:	237e      	movs	r3, #126
    59dc:	0092      	lsls	r2, r2, #2
    59de:	e78c      	b.n	58fa <_free_r+0x8e>
    59e0:	0c8b      	lsrs	r3, r1, #18
    59e2:	337c      	adds	r3, #124
    59e4:	00da      	lsls	r2, r3, #3
    59e6:	e788      	b.n	58fa <_free_r+0x8e>
    59e8:	10000448 	.word	0x10000448
    59ec:	10000450 	.word	0x10000450
    59f0:	000001ff 	.word	0x000001ff
    59f4:	10000854 	.word	0x10000854
    59f8:	1000086c 	.word	0x1000086c
    59fc:	00000554 	.word	0x00000554

00005a00 <__locale_charset>:
    5a00:	4b01      	ldr	r3, [pc, #4]	(5a08 <__locale_charset+0x8>)
    5a02:	6818      	ldr	r0, [r3, #0]
    5a04:	4770      	bx	lr
    5a06:	46c0      	nop			(mov r8, r8)
    5a08:	00008d34 	.word	0x00008d34

00005a0c <_localeconv_r>:
    5a0c:	4801      	ldr	r0, [pc, #4]	(5a14 <_localeconv_r+0x8>)
    5a0e:	3004      	adds	r0, #4
    5a10:	4770      	bx	lr
    5a12:	46c0      	nop			(mov r8, r8)
    5a14:	00008d34 	.word	0x00008d34

00005a18 <localeconv>:
    5a18:	4801      	ldr	r0, [pc, #4]	(5a20 <localeconv+0x8>)
    5a1a:	3004      	adds	r0, #4
    5a1c:	4770      	bx	lr
    5a1e:	46c0      	nop			(mov r8, r8)
    5a20:	00008d34 	.word	0x00008d34

00005a24 <_setlocale_r>:
    5a24:	b5f8      	push	{r3, r4, r5, r6, r7, lr}
    5a26:	1c06      	adds	r6, r0, #0
    5a28:	1c0f      	adds	r7, r1, #0
    5a2a:	1c14      	adds	r4, r2, #0
    5a2c:	2a00      	cmp	r2, #0
    5a2e:	d00c      	beq.n	5a4a <_setlocale_r+0x26>
    5a30:	4d0b      	ldr	r5, [pc, #44]	(5a60 <_setlocale_r+0x3c>)
    5a32:	1c10      	adds	r0, r2, #0
    5a34:	1c29      	adds	r1, r5, #0
    5a36:	f001 fa05 	bl	6e44 <strcmp>
    5a3a:	2800      	cmp	r0, #0
    5a3c:	d107      	bne.n	5a4e <_setlocale_r+0x2a>
    5a3e:	6337      	str	r7, [r6, #48]
    5a40:	6374      	str	r4, [r6, #52]
    5a42:	1c28      	adds	r0, r5, #0
    5a44:	bcf8      	pop	{r3, r4, r5, r6, r7}
    5a46:	bc02      	pop	{r1}
    5a48:	4708      	bx	r1
    5a4a:	4805      	ldr	r0, [pc, #20]	(5a60 <_setlocale_r+0x3c>)
    5a4c:	e7fa      	b.n	5a44 <_setlocale_r+0x20>
    5a4e:	4905      	ldr	r1, [pc, #20]	(5a64 <_setlocale_r+0x40>)
    5a50:	1c20      	adds	r0, r4, #0
    5a52:	f001 f9f7 	bl	6e44 <strcmp>
    5a56:	2800      	cmp	r0, #0
    5a58:	d0f1      	beq.n	5a3e <_setlocale_r+0x1a>
    5a5a:	2000      	movs	r0, #0
    5a5c:	e7f2      	b.n	5a44 <_setlocale_r+0x20>
    5a5e:	46c0      	nop			(mov r8, r8)
    5a60:	00008d30 	.word	0x00008d30
    5a64:	00008cb4 	.word	0x00008cb4

00005a68 <setlocale>:
    5a68:	b510      	push	{r4, lr}
    5a6a:	4b05      	ldr	r3, [pc, #20]	(5a80 <setlocale+0x18>)
    5a6c:	1c04      	adds	r4, r0, #0
    5a6e:	1c0a      	adds	r2, r1, #0
    5a70:	6818      	ldr	r0, [r3, #0]
    5a72:	1c21      	adds	r1, r4, #0
    5a74:	f7ff ffd6 	bl	5a24 <_setlocale_r>
    5a78:	bc10      	pop	{r4}
    5a7a:	bc02      	pop	{r1}
    5a7c:	4708      	bx	r1
    5a7e:	46c0      	nop			(mov r8, r8)
    5a80:	10000008 	.word	0x10000008

00005a84 <_malloc_r>:
    5a84:	b5f0      	push	{r4, r5, r6, r7, lr}
    5a86:	465f      	mov	r7, fp
    5a88:	4656      	mov	r6, sl
    5a8a:	464d      	mov	r5, r9
    5a8c:	4644      	mov	r4, r8
    5a8e:	b4f0      	push	{r4, r5, r6, r7}
    5a90:	1c0a      	adds	r2, r1, #0
    5a92:	320b      	adds	r2, #11
    5a94:	b083      	sub	sp, #12
    5a96:	4682      	mov	sl, r0
    5a98:	2a16      	cmp	r2, #22
    5a9a:	d900      	bls.n	5a9e <_malloc_r+0x1a>
    5a9c:	e0b0      	b.n	5c00 <_malloc_r+0x17c>
    5a9e:	2610      	movs	r6, #16
    5aa0:	2300      	movs	r3, #0
    5aa2:	428e      	cmp	r6, r1
    5aa4:	d20c      	bcs.n	5ac0 <_malloc_r+0x3c>
    5aa6:	4650      	mov	r0, sl
    5aa8:	230c      	movs	r3, #12
    5aaa:	6003      	str	r3, [r0, #0]
    5aac:	2000      	movs	r0, #0
    5aae:	b003      	add	sp, #12
    5ab0:	bc3c      	pop	{r2, r3, r4, r5}
    5ab2:	4690      	mov	r8, r2
    5ab4:	4699      	mov	r9, r3
    5ab6:	46a2      	mov	sl, r4
    5ab8:	46ab      	mov	fp, r5
    5aba:	bcf0      	pop	{r4, r5, r6, r7}
    5abc:	bc02      	pop	{r1}
    5abe:	4708      	bx	r1
    5ac0:	2b00      	cmp	r3, #0
    5ac2:	d1f0      	bne.n	5aa6 <_malloc_r+0x22>
    5ac4:	4650      	mov	r0, sl
    5ac6:	f000 faf1 	bl	60ac <__malloc_lock>
    5aca:	4bcd      	ldr	r3, [pc, #820]	(5e00 <_malloc_r+0x37c>)
    5acc:	429e      	cmp	r6, r3
    5ace:	d800      	bhi.n	5ad2 <_malloc_r+0x4e>
    5ad0:	e09b      	b.n	5c0a <_malloc_r+0x186>
    5ad2:	0a72      	lsrs	r2, r6, #9
    5ad4:	2a00      	cmp	r2, #0
    5ad6:	d000      	beq.n	5ada <_malloc_r+0x56>
    5ad8:	e0b1      	b.n	5c3e <_malloc_r+0x1ba>
    5ada:	08f5      	lsrs	r5, r6, #3
    5adc:	00eb      	lsls	r3, r5, #3
    5ade:	4fc9      	ldr	r7, [pc, #804]	(5e04 <_malloc_r+0x380>)
    5ae0:	18f8      	adds	r0, r7, r3
    5ae2:	68c4      	ldr	r4, [r0, #12]
    5ae4:	42a0      	cmp	r0, r4
    5ae6:	d019      	beq.n	5b1c <_malloc_r+0x98>
    5ae8:	6862      	ldr	r2, [r4, #4]
    5aea:	2303      	movs	r3, #3
    5aec:	1c11      	adds	r1, r2, #0
    5aee:	4399      	bics	r1, r3
    5af0:	1b8b      	subs	r3, r1, r6
    5af2:	2b0f      	cmp	r3, #15
    5af4:	dd00      	ble.n	5af8 <_malloc_r+0x74>
    5af6:	e0bb      	b.n	5c70 <_malloc_r+0x1ec>
    5af8:	2b00      	cmp	r3, #0
    5afa:	db00      	blt.n	5afe <_malloc_r+0x7a>
    5afc:	e090      	b.n	5c20 <_malloc_r+0x19c>
    5afe:	2203      	movs	r2, #3
    5b00:	e009      	b.n	5b16 <_malloc_r+0x92>
    5b02:	6863      	ldr	r3, [r4, #4]
    5b04:	1c19      	adds	r1, r3, #0
    5b06:	4391      	bics	r1, r2
    5b08:	1b8b      	subs	r3, r1, r6
    5b0a:	2b0f      	cmp	r3, #15
    5b0c:	dd00      	ble.n	5b10 <_malloc_r+0x8c>
    5b0e:	e0af      	b.n	5c70 <_malloc_r+0x1ec>
    5b10:	2b00      	cmp	r3, #0
    5b12:	db00      	blt.n	5b16 <_malloc_r+0x92>
    5b14:	e084      	b.n	5c20 <_malloc_r+0x19c>
    5b16:	68e4      	ldr	r4, [r4, #12]
    5b18:	42a0      	cmp	r0, r4
    5b1a:	d1f2      	bne.n	5b02 <_malloc_r+0x7e>
    5b1c:	3501      	adds	r5, #1
    5b1e:	46ac      	mov	ip, r5
    5b20:	2108      	movs	r1, #8
    5b22:	19c9      	adds	r1, r1, r7
    5b24:	688c      	ldr	r4, [r1, #8]
    5b26:	4688      	mov	r8, r1
    5b28:	45a0      	cmp	r8, r4
    5b2a:	d100      	bne.n	5b2e <_malloc_r+0xaa>
    5b2c:	e17f      	b.n	5e2e <_malloc_r+0x3aa>
    5b2e:	6862      	ldr	r2, [r4, #4]
    5b30:	2303      	movs	r3, #3
    5b32:	1c11      	adds	r1, r2, #0
    5b34:	4399      	bics	r1, r3
    5b36:	1b88      	subs	r0, r1, r6
    5b38:	280f      	cmp	r0, #15
    5b3a:	dd00      	ble.n	5b3e <_malloc_r+0xba>
    5b3c:	e12e      	b.n	5d9c <_malloc_r+0x318>
    5b3e:	4642      	mov	r2, r8
    5b40:	60d2      	str	r2, [r2, #12]
    5b42:	6092      	str	r2, [r2, #8]
    5b44:	2800      	cmp	r0, #0
    5b46:	db00      	blt.n	5b4a <_malloc_r+0xc6>
    5b48:	e082      	b.n	5c50 <_malloc_r+0x1cc>
    5b4a:	4baf      	ldr	r3, [pc, #700]	(5e08 <_malloc_r+0x384>)
    5b4c:	4299      	cmp	r1, r3
    5b4e:	d900      	bls.n	5b52 <_malloc_r+0xce>
    5b50:	e138      	b.n	5dc4 <_malloc_r+0x340>
    5b52:	08c9      	lsrs	r1, r1, #3
    5b54:	108b      	asrs	r3, r1, #2
    5b56:	2201      	movs	r2, #1
    5b58:	409a      	lsls	r2, r3
    5b5a:	687b      	ldr	r3, [r7, #4]
    5b5c:	46b9      	mov	r9, r7
    5b5e:	00c9      	lsls	r1, r1, #3
    5b60:	4449      	add	r1, r9
    5b62:	4313      	orrs	r3, r2
    5b64:	607b      	str	r3, [r7, #4]
    5b66:	688b      	ldr	r3, [r1, #8]
    5b68:	60e1      	str	r1, [r4, #12]
    5b6a:	60a3      	str	r3, [r4, #8]
    5b6c:	60dc      	str	r4, [r3, #12]
    5b6e:	608c      	str	r4, [r1, #8]
    5b70:	4663      	mov	r3, ip
    5b72:	109a      	asrs	r2, r3, #2
    5b74:	2301      	movs	r3, #1
    5b76:	1c18      	adds	r0, r3, #0
    5b78:	4090      	lsls	r0, r2
    5b7a:	464a      	mov	r2, r9
    5b7c:	6851      	ldr	r1, [r2, #4]
    5b7e:	4288      	cmp	r0, r1
    5b80:	d878      	bhi.n	5c74 <_malloc_r+0x1f0>
    5b82:	4208      	tst	r0, r1
    5b84:	d10d      	bne.n	5ba2 <_malloc_r+0x11e>
    5b86:	2303      	movs	r3, #3
    5b88:	4662      	mov	r2, ip
    5b8a:	439a      	bics	r2, r3
    5b8c:	1c13      	adds	r3, r2, #0
    5b8e:	3304      	adds	r3, #4
    5b90:	0040      	lsls	r0, r0, #1
    5b92:	469c      	mov	ip, r3
    5b94:	4208      	tst	r0, r1
    5b96:	d104      	bne.n	5ba2 <_malloc_r+0x11e>
    5b98:	2304      	movs	r3, #4
    5b9a:	0040      	lsls	r0, r0, #1
    5b9c:	449c      	add	ip, r3
    5b9e:	4208      	tst	r0, r1
    5ba0:	d0fa      	beq.n	5b98 <_malloc_r+0x114>
    5ba2:	2103      	movs	r1, #3
    5ba4:	4662      	mov	r2, ip
    5ba6:	00d3      	lsls	r3, r2, #3
    5ba8:	469b      	mov	fp, r3
    5baa:	44cb      	add	fp, r9
    5bac:	4667      	mov	r7, ip
    5bae:	465a      	mov	r2, fp
    5bb0:	68d5      	ldr	r5, [r2, #12]
    5bb2:	42aa      	cmp	r2, r5
    5bb4:	d107      	bne.n	5bc6 <_malloc_r+0x142>
    5bb6:	e147      	b.n	5e48 <_malloc_r+0x3c4>
    5bb8:	2c00      	cmp	r4, #0
    5bba:	db00      	blt.n	5bbe <_malloc_r+0x13a>
    5bbc:	e149      	b.n	5e52 <_malloc_r+0x3ce>
    5bbe:	68ed      	ldr	r5, [r5, #12]
    5bc0:	42aa      	cmp	r2, r5
    5bc2:	d100      	bne.n	5bc6 <_malloc_r+0x142>
    5bc4:	e140      	b.n	5e48 <_malloc_r+0x3c4>
    5bc6:	686b      	ldr	r3, [r5, #4]
    5bc8:	438b      	bics	r3, r1
    5bca:	1b9c      	subs	r4, r3, r6
    5bcc:	2c0f      	cmp	r4, #15
    5bce:	ddf3      	ble.n	5bb8 <_malloc_r+0x134>
    5bd0:	2001      	movs	r0, #1
    5bd2:	1c33      	adds	r3, r6, #0
    5bd4:	4303      	orrs	r3, r0
    5bd6:	68e9      	ldr	r1, [r5, #12]
    5bd8:	606b      	str	r3, [r5, #4]
    5bda:	68ab      	ldr	r3, [r5, #8]
    5bdc:	19aa      	adds	r2, r5, r6
    5bde:	60d9      	str	r1, [r3, #12]
    5be0:	608b      	str	r3, [r1, #8]
    5be2:	4643      	mov	r3, r8
    5be4:	60da      	str	r2, [r3, #12]
    5be6:	609a      	str	r2, [r3, #8]
    5be8:	60d3      	str	r3, [r2, #12]
    5bea:	6093      	str	r3, [r2, #8]
    5bec:	1c23      	adds	r3, r4, #0
    5bee:	4303      	orrs	r3, r0
    5bf0:	6053      	str	r3, [r2, #4]
    5bf2:	4650      	mov	r0, sl
    5bf4:	5114      	str	r4, [r2, r4]
    5bf6:	f000 fa5b 	bl	60b0 <__malloc_unlock>
    5bfa:	1c28      	adds	r0, r5, #0
    5bfc:	3008      	adds	r0, #8
    5bfe:	e756      	b.n	5aae <_malloc_r+0x2a>
    5c00:	2307      	movs	r3, #7
    5c02:	1c16      	adds	r6, r2, #0
    5c04:	439e      	bics	r6, r3
    5c06:	0ff3      	lsrs	r3, r6, #31
    5c08:	e74b      	b.n	5aa2 <_malloc_r+0x1e>
    5c0a:	08f2      	lsrs	r2, r6, #3
    5c0c:	4f7d      	ldr	r7, [pc, #500]	(5e04 <_malloc_r+0x380>)
    5c0e:	00d3      	lsls	r3, r2, #3
    5c10:	18fb      	adds	r3, r7, r3
    5c12:	68dc      	ldr	r4, [r3, #12]
    5c14:	429c      	cmp	r4, r3
    5c16:	d100      	bne.n	5c1a <_malloc_r+0x196>
    5c18:	e100      	b.n	5e1c <_malloc_r+0x398>
    5c1a:	6861      	ldr	r1, [r4, #4]
    5c1c:	2303      	movs	r3, #3
    5c1e:	4399      	bics	r1, r3
    5c20:	68e2      	ldr	r2, [r4, #12]
    5c22:	68a3      	ldr	r3, [r4, #8]
    5c24:	1861      	adds	r1, r4, r1
    5c26:	60da      	str	r2, [r3, #12]
    5c28:	6093      	str	r3, [r2, #8]
    5c2a:	684b      	ldr	r3, [r1, #4]
    5c2c:	2201      	movs	r2, #1
    5c2e:	4313      	orrs	r3, r2
    5c30:	4650      	mov	r0, sl
    5c32:	604b      	str	r3, [r1, #4]
    5c34:	f000 fa3c 	bl	60b0 <__malloc_unlock>
    5c38:	1c20      	adds	r0, r4, #0
    5c3a:	3008      	adds	r0, #8
    5c3c:	e737      	b.n	5aae <_malloc_r+0x2a>
    5c3e:	2a04      	cmp	r2, #4
    5c40:	d911      	bls.n	5c66 <_malloc_r+0x1e2>
    5c42:	2a14      	cmp	r2, #20
    5c44:	d900      	bls.n	5c48 <_malloc_r+0x1c4>
    5c46:	e0f4      	b.n	5e32 <_malloc_r+0x3ae>
    5c48:	1c15      	adds	r5, r2, #0
    5c4a:	355b      	adds	r5, #91
    5c4c:	00eb      	lsls	r3, r5, #3
    5c4e:	e746      	b.n	5ade <_malloc_r+0x5a>
    5c50:	1863      	adds	r3, r4, r1
    5c52:	685a      	ldr	r2, [r3, #4]
    5c54:	2101      	movs	r1, #1
    5c56:	430a      	orrs	r2, r1
    5c58:	4650      	mov	r0, sl
    5c5a:	605a      	str	r2, [r3, #4]
    5c5c:	f000 fa28 	bl	60b0 <__malloc_unlock>
    5c60:	1c20      	adds	r0, r4, #0
    5c62:	3008      	adds	r0, #8
    5c64:	e723      	b.n	5aae <_malloc_r+0x2a>
    5c66:	09b3      	lsrs	r3, r6, #6
    5c68:	1c1d      	adds	r5, r3, #0
    5c6a:	3538      	adds	r5, #56
    5c6c:	00eb      	lsls	r3, r5, #3
    5c6e:	e736      	b.n	5ade <_malloc_r+0x5a>
    5c70:	3d01      	subs	r5, #1
    5c72:	e753      	b.n	5b1c <_malloc_r+0x98>
    5c74:	464b      	mov	r3, r9
    5c76:	689c      	ldr	r4, [r3, #8]
    5c78:	6862      	ldr	r2, [r4, #4]
    5c7a:	2303      	movs	r3, #3
    5c7c:	439a      	bics	r2, r3
    5c7e:	4690      	mov	r8, r2
    5c80:	1b90      	subs	r0, r2, r6
    5c82:	4546      	cmp	r6, r8
    5c84:	d811      	bhi.n	5caa <_malloc_r+0x226>
    5c86:	280f      	cmp	r0, #15
    5c88:	dd0f      	ble.n	5caa <_malloc_r+0x226>
    5c8a:	2101      	movs	r1, #1
    5c8c:	1c33      	adds	r3, r6, #0
    5c8e:	430b      	orrs	r3, r1
    5c90:	6063      	str	r3, [r4, #4]
    5c92:	19a2      	adds	r2, r4, r6
    5c94:	464b      	mov	r3, r9
    5c96:	609a      	str	r2, [r3, #8]
    5c98:	1c03      	adds	r3, r0, #0
    5c9a:	430b      	orrs	r3, r1
    5c9c:	4650      	mov	r0, sl
    5c9e:	6053      	str	r3, [r2, #4]
    5ca0:	f000 fa06 	bl	60b0 <__malloc_unlock>
    5ca4:	1c20      	adds	r0, r4, #0
    5ca6:	3008      	adds	r0, #8
    5ca8:	e701      	b.n	5aae <_malloc_r+0x2a>
    5caa:	4858      	ldr	r0, [pc, #352]	(5e0c <_malloc_r+0x388>)
    5cac:	6803      	ldr	r3, [r0, #0]
    5cae:	4958      	ldr	r1, [pc, #352]	(5e10 <_malloc_r+0x38c>)
    5cb0:	3310      	adds	r3, #16
    5cb2:	199f      	adds	r7, r3, r6
    5cb4:	688b      	ldr	r3, [r1, #8]
    5cb6:	9001      	str	r0, [sp, #4]
    5cb8:	468b      	mov	fp, r1
    5cba:	3301      	adds	r3, #1
    5cbc:	d004      	beq.n	5cc8 <_malloc_r+0x244>
    5cbe:	4b55      	ldr	r3, [pc, #340]	(5e14 <_malloc_r+0x390>)
    5cc0:	18fa      	adds	r2, r7, r3
    5cc2:	4b55      	ldr	r3, [pc, #340]	(5e18 <_malloc_r+0x394>)
    5cc4:	1c17      	adds	r7, r2, #0
    5cc6:	401f      	ands	r7, r3
    5cc8:	4650      	mov	r0, sl
    5cca:	1c39      	adds	r1, r7, #0
    5ccc:	f001 f8a6 	bl	6e1c <_sbrk_r>
    5cd0:	1c05      	adds	r5, r0, #0
    5cd2:	1c68      	adds	r0, r5, #1
    5cd4:	d052      	beq.n	5d7c <_malloc_r+0x2f8>
    5cd6:	4641      	mov	r1, r8
    5cd8:	1862      	adds	r2, r4, r1
    5cda:	42aa      	cmp	r2, r5
    5cdc:	d800      	bhi.n	5ce0 <_malloc_r+0x25c>
    5cde:	e0e8      	b.n	5eb2 <_malloc_r+0x42e>
    5ce0:	454c      	cmp	r4, r9
    5ce2:	d14b      	bne.n	5d7c <_malloc_r+0x2f8>
    5ce4:	9801      	ldr	r0, [sp, #4]
    5ce6:	6843      	ldr	r3, [r0, #4]
    5ce8:	18f9      	adds	r1, r7, r3
    5cea:	6041      	str	r1, [r0, #4]
    5cec:	4658      	mov	r0, fp
    5cee:	6883      	ldr	r3, [r0, #8]
    5cf0:	3301      	adds	r3, #1
    5cf2:	d100      	bne.n	5cf6 <_malloc_r+0x272>
    5cf4:	e11e      	b.n	5f34 <_malloc_r+0x4b0>
    5cf6:	1aab      	subs	r3, r5, r2
    5cf8:	185b      	adds	r3, r3, r1
    5cfa:	9901      	ldr	r1, [sp, #4]
    5cfc:	604b      	str	r3, [r1, #4]
    5cfe:	2307      	movs	r3, #7
    5d00:	1c2a      	adds	r2, r5, #0
    5d02:	401a      	ands	r2, r3
    5d04:	d000      	beq.n	5d08 <_malloc_r+0x284>
    5d06:	e0ed      	b.n	5ee4 <_malloc_r+0x460>
    5d08:	2180      	movs	r1, #128
    5d0a:	0149      	lsls	r1, r1, #5
    5d0c:	4a41      	ldr	r2, [pc, #260]	(5e14 <_malloc_r+0x390>)
    5d0e:	19eb      	adds	r3, r5, r7
    5d10:	4013      	ands	r3, r2
    5d12:	1acf      	subs	r7, r1, r3
    5d14:	4650      	mov	r0, sl
    5d16:	1c39      	adds	r1, r7, #0
    5d18:	f001 f880 	bl	6e1c <_sbrk_r>
    5d1c:	1c43      	adds	r3, r0, #1
    5d1e:	d100      	bne.n	5d22 <_malloc_r+0x29e>
    5d20:	e105      	b.n	5f2e <_malloc_r+0x4aa>
    5d22:	1b43      	subs	r3, r0, r5
    5d24:	19db      	adds	r3, r3, r7
    5d26:	2201      	movs	r2, #1
    5d28:	1c18      	adds	r0, r3, #0
    5d2a:	4310      	orrs	r0, r2
    5d2c:	9901      	ldr	r1, [sp, #4]
    5d2e:	684b      	ldr	r3, [r1, #4]
    5d30:	464a      	mov	r2, r9
    5d32:	18fb      	adds	r3, r7, r3
    5d34:	604b      	str	r3, [r1, #4]
    5d36:	6095      	str	r5, [r2, #8]
    5d38:	6068      	str	r0, [r5, #4]
    5d3a:	454c      	cmp	r4, r9
    5d3c:	d013      	beq.n	5d66 <_malloc_r+0x2e2>
    5d3e:	4643      	mov	r3, r8
    5d40:	2b0f      	cmp	r3, #15
    5d42:	d800      	bhi.n	5d46 <_malloc_r+0x2c2>
    5d44:	e0dd      	b.n	5f02 <_malloc_r+0x47e>
    5d46:	4641      	mov	r1, r8
    5d48:	2307      	movs	r3, #7
    5d4a:	390c      	subs	r1, #12
    5d4c:	4399      	bics	r1, r3
    5d4e:	1862      	adds	r2, r4, r1
    5d50:	2305      	movs	r3, #5
    5d52:	6053      	str	r3, [r2, #4]
    5d54:	6093      	str	r3, [r2, #8]
    5d56:	6863      	ldr	r3, [r4, #4]
    5d58:	2201      	movs	r2, #1
    5d5a:	4013      	ands	r3, r2
    5d5c:	430b      	orrs	r3, r1
    5d5e:	6063      	str	r3, [r4, #4]
    5d60:	290f      	cmp	r1, #15
    5d62:	d900      	bls.n	5d66 <_malloc_r+0x2e2>
    5d64:	e0e8      	b.n	5f38 <_malloc_r+0x4b4>
    5d66:	9801      	ldr	r0, [sp, #4]
    5d68:	6842      	ldr	r2, [r0, #4]
    5d6a:	6ac3      	ldr	r3, [r0, #44]
    5d6c:	429a      	cmp	r2, r3
    5d6e:	d900      	bls.n	5d72 <_malloc_r+0x2ee>
    5d70:	62c2      	str	r2, [r0, #44]
    5d72:	9901      	ldr	r1, [sp, #4]
    5d74:	6b0b      	ldr	r3, [r1, #48]
    5d76:	429a      	cmp	r2, r3
    5d78:	d900      	bls.n	5d7c <_malloc_r+0x2f8>
    5d7a:	630a      	str	r2, [r1, #48]
    5d7c:	464a      	mov	r2, r9
    5d7e:	6894      	ldr	r4, [r2, #8]
    5d80:	6863      	ldr	r3, [r4, #4]
    5d82:	2203      	movs	r2, #3
    5d84:	4393      	bics	r3, r2
    5d86:	1b98      	subs	r0, r3, r6
    5d88:	429e      	cmp	r6, r3
    5d8a:	d802      	bhi.n	5d92 <_malloc_r+0x30e>
    5d8c:	280f      	cmp	r0, #15
    5d8e:	dd00      	ble.n	5d92 <_malloc_r+0x30e>
    5d90:	e77b      	b.n	5c8a <_malloc_r+0x206>
    5d92:	4650      	mov	r0, sl
    5d94:	f000 f98c 	bl	60b0 <__malloc_unlock>
    5d98:	2000      	movs	r0, #0
    5d9a:	e688      	b.n	5aae <_malloc_r+0x2a>
    5d9c:	2101      	movs	r1, #1
    5d9e:	1c33      	adds	r3, r6, #0
    5da0:	430b      	orrs	r3, r1
    5da2:	19a2      	adds	r2, r4, r6
    5da4:	6063      	str	r3, [r4, #4]
    5da6:	4643      	mov	r3, r8
    5da8:	60da      	str	r2, [r3, #12]
    5daa:	609a      	str	r2, [r3, #8]
    5dac:	60d3      	str	r3, [r2, #12]
    5dae:	6093      	str	r3, [r2, #8]
    5db0:	1c03      	adds	r3, r0, #0
    5db2:	430b      	orrs	r3, r1
    5db4:	5010      	str	r0, [r2, r0]
    5db6:	6053      	str	r3, [r2, #4]
    5db8:	4650      	mov	r0, sl
    5dba:	f000 f979 	bl	60b0 <__malloc_unlock>
    5dbe:	1c20      	adds	r0, r4, #0
    5dc0:	3008      	adds	r0, #8
    5dc2:	e674      	b.n	5aae <_malloc_r+0x2a>
    5dc4:	0a4a      	lsrs	r2, r1, #9
    5dc6:	2a04      	cmp	r2, #4
    5dc8:	d952      	bls.n	5e70 <_malloc_r+0x3ec>
    5dca:	2a14      	cmp	r2, #20
    5dcc:	d900      	bls.n	5dd0 <_malloc_r+0x34c>
    5dce:	e09b      	b.n	5f08 <_malloc_r+0x484>
    5dd0:	1c13      	adds	r3, r2, #0
    5dd2:	335b      	adds	r3, #91
    5dd4:	00da      	lsls	r2, r3, #3
    5dd6:	46b9      	mov	r9, r7
    5dd8:	444a      	add	r2, r9
    5dda:	6890      	ldr	r0, [r2, #8]
    5ddc:	4290      	cmp	r0, r2
    5dde:	d100      	bne.n	5de2 <_malloc_r+0x35e>
    5de0:	e087      	b.n	5ef2 <_malloc_r+0x46e>
    5de2:	2503      	movs	r5, #3
    5de4:	6843      	ldr	r3, [r0, #4]
    5de6:	43ab      	bics	r3, r5
    5de8:	4299      	cmp	r1, r3
    5dea:	d202      	bcs.n	5df2 <_malloc_r+0x36e>
    5dec:	6880      	ldr	r0, [r0, #8]
    5dee:	4282      	cmp	r2, r0
    5df0:	d1f8      	bne.n	5de4 <_malloc_r+0x360>
    5df2:	68c3      	ldr	r3, [r0, #12]
    5df4:	60e3      	str	r3, [r4, #12]
    5df6:	60a0      	str	r0, [r4, #8]
    5df8:	60c4      	str	r4, [r0, #12]
    5dfa:	609c      	str	r4, [r3, #8]
    5dfc:	e6b8      	b.n	5b70 <_malloc_r+0xec>
    5dfe:	46c0      	nop			(mov r8, r8)
    5e00:	000001f7 	.word	0x000001f7
    5e04:	10000448 	.word	0x10000448
    5e08:	000001ff 	.word	0x000001ff
    5e0c:	1000086c 	.word	0x1000086c
    5e10:	10000848 	.word	0x10000848
    5e14:	00000fff 	.word	0x00000fff
    5e18:	fffff000 	.word	0xfffff000
    5e1c:	1c23      	adds	r3, r4, #0
    5e1e:	3308      	adds	r3, #8
    5e20:	68dc      	ldr	r4, [r3, #12]
    5e22:	42a3      	cmp	r3, r4
    5e24:	d000      	beq.n	5e28 <_malloc_r+0x3a4>
    5e26:	e6f8      	b.n	5c1a <_malloc_r+0x196>
    5e28:	3202      	adds	r2, #2
    5e2a:	4694      	mov	ip, r2
    5e2c:	e678      	b.n	5b20 <_malloc_r+0x9c>
    5e2e:	46b9      	mov	r9, r7
    5e30:	e69e      	b.n	5b70 <_malloc_r+0xec>
    5e32:	2a54      	cmp	r2, #84
    5e34:	d920      	bls.n	5e78 <_malloc_r+0x3f4>
    5e36:	23aa      	movs	r3, #170
    5e38:	005b      	lsls	r3, r3, #1
    5e3a:	429a      	cmp	r2, r3
    5e3c:	d84b      	bhi.n	5ed6 <_malloc_r+0x452>
    5e3e:	0bf3      	lsrs	r3, r6, #15
    5e40:	1c1d      	adds	r5, r3, #0
    5e42:	3577      	adds	r5, #119
    5e44:	00eb      	lsls	r3, r5, #3
    5e46:	e64a      	b.n	5ade <_malloc_r+0x5a>
    5e48:	3701      	adds	r7, #1
    5e4a:	420f      	tst	r7, r1
    5e4c:	d019      	beq.n	5e82 <_malloc_r+0x3fe>
    5e4e:	3208      	adds	r2, #8
    5e50:	e6ae      	b.n	5bb0 <_malloc_r+0x12c>
    5e52:	18e9      	adds	r1, r5, r3
    5e54:	684b      	ldr	r3, [r1, #4]
    5e56:	2201      	movs	r2, #1
    5e58:	4313      	orrs	r3, r2
    5e5a:	604b      	str	r3, [r1, #4]
    5e5c:	68ea      	ldr	r2, [r5, #12]
    5e5e:	68ab      	ldr	r3, [r5, #8]
    5e60:	4650      	mov	r0, sl
    5e62:	60da      	str	r2, [r3, #12]
    5e64:	6093      	str	r3, [r2, #8]
    5e66:	f000 f923 	bl	60b0 <__malloc_unlock>
    5e6a:	1c28      	adds	r0, r5, #0
    5e6c:	3008      	adds	r0, #8
    5e6e:	e61e      	b.n	5aae <_malloc_r+0x2a>
    5e70:	098b      	lsrs	r3, r1, #6
    5e72:	3338      	adds	r3, #56
    5e74:	00da      	lsls	r2, r3, #3
    5e76:	e7ae      	b.n	5dd6 <_malloc_r+0x352>
    5e78:	0b33      	lsrs	r3, r6, #12
    5e7a:	1c1d      	adds	r5, r3, #0
    5e7c:	356e      	adds	r5, #110
    5e7e:	00eb      	lsls	r3, r5, #3
    5e80:	e62d      	b.n	5ade <_malloc_r+0x5a>
    5e82:	4662      	mov	r2, ip
    5e84:	465c      	mov	r4, fp
    5e86:	e000      	b.n	5e8a <_malloc_r+0x406>
    5e88:	3a01      	subs	r2, #1
    5e8a:	420a      	tst	r2, r1
    5e8c:	d05a      	beq.n	5f44 <_malloc_r+0x4c0>
    5e8e:	1c23      	adds	r3, r4, #0
    5e90:	3b08      	subs	r3, #8
    5e92:	689c      	ldr	r4, [r3, #8]
    5e94:	429c      	cmp	r4, r3
    5e96:	d0f7      	beq.n	5e88 <_malloc_r+0x404>
    5e98:	464a      	mov	r2, r9
    5e9a:	6853      	ldr	r3, [r2, #4]
    5e9c:	0040      	lsls	r0, r0, #1
    5e9e:	4298      	cmp	r0, r3
    5ea0:	d900      	bls.n	5ea4 <_malloc_r+0x420>
    5ea2:	e6e7      	b.n	5c74 <_malloc_r+0x1f0>
    5ea4:	2800      	cmp	r0, #0
    5ea6:	d100      	bne.n	5eaa <_malloc_r+0x426>
    5ea8:	e6e4      	b.n	5c74 <_malloc_r+0x1f0>
    5eaa:	4218      	tst	r0, r3
    5eac:	d056      	beq.n	5f5c <_malloc_r+0x4d8>
    5eae:	46bc      	mov	ip, r7
    5eb0:	e678      	b.n	5ba4 <_malloc_r+0x120>
    5eb2:	9801      	ldr	r0, [sp, #4]
    5eb4:	6843      	ldr	r3, [r0, #4]
    5eb6:	18f9      	adds	r1, r7, r3
    5eb8:	6041      	str	r1, [r0, #4]
    5eba:	42aa      	cmp	r2, r5
    5ebc:	d000      	beq.n	5ec0 <_malloc_r+0x43c>
    5ebe:	e715      	b.n	5cec <_malloc_r+0x268>
    5ec0:	0513      	lsls	r3, r2, #20
    5ec2:	d000      	beq.n	5ec6 <_malloc_r+0x442>
    5ec4:	e712      	b.n	5cec <_malloc_r+0x268>
    5ec6:	4641      	mov	r1, r8
    5ec8:	4648      	mov	r0, r9
    5eca:	187a      	adds	r2, r7, r1
    5ecc:	6883      	ldr	r3, [r0, #8]
    5ece:	2101      	movs	r1, #1
    5ed0:	430a      	orrs	r2, r1
    5ed2:	605a      	str	r2, [r3, #4]
    5ed4:	e747      	b.n	5d66 <_malloc_r+0x2e2>
    5ed6:	4b25      	ldr	r3, [pc, #148]	(5f6c <_malloc_r+0x4e8>)
    5ed8:	429a      	cmp	r2, r3
    5eda:	d91b      	bls.n	5f14 <_malloc_r+0x490>
    5edc:	23fc      	movs	r3, #252
    5ede:	257e      	movs	r5, #126
    5ee0:	009b      	lsls	r3, r3, #2
    5ee2:	e5fc      	b.n	5ade <_malloc_r+0x5a>
    5ee4:	2308      	movs	r3, #8
    5ee6:	1a9b      	subs	r3, r3, r2
    5ee8:	2280      	movs	r2, #128
    5eea:	0152      	lsls	r2, r2, #5
    5eec:	18ed      	adds	r5, r5, r3
    5eee:	1899      	adds	r1, r3, r2
    5ef0:	e70c      	b.n	5d0c <_malloc_r+0x288>
    5ef2:	109b      	asrs	r3, r3, #2
    5ef4:	2201      	movs	r2, #1
    5ef6:	409a      	lsls	r2, r3
    5ef8:	687b      	ldr	r3, [r7, #4]
    5efa:	4313      	orrs	r3, r2
    5efc:	607b      	str	r3, [r7, #4]
    5efe:	1c03      	adds	r3, r0, #0
    5f00:	e778      	b.n	5df4 <_malloc_r+0x370>
    5f02:	2301      	movs	r3, #1
    5f04:	606b      	str	r3, [r5, #4]
    5f06:	e739      	b.n	5d7c <_malloc_r+0x2f8>
    5f08:	2a54      	cmp	r2, #84
    5f0a:	d808      	bhi.n	5f1e <_malloc_r+0x49a>
    5f0c:	0b0b      	lsrs	r3, r1, #12
    5f0e:	336e      	adds	r3, #110
    5f10:	00da      	lsls	r2, r3, #3
    5f12:	e760      	b.n	5dd6 <_malloc_r+0x352>
    5f14:	0cb3      	lsrs	r3, r6, #18
    5f16:	1c1d      	adds	r5, r3, #0
    5f18:	357c      	adds	r5, #124
    5f1a:	00eb      	lsls	r3, r5, #3
    5f1c:	e5df      	b.n	5ade <_malloc_r+0x5a>
    5f1e:	23aa      	movs	r3, #170
    5f20:	005b      	lsls	r3, r3, #1
    5f22:	429a      	cmp	r2, r3
    5f24:	d813      	bhi.n	5f4e <_malloc_r+0x4ca>
    5f26:	0bcb      	lsrs	r3, r1, #15
    5f28:	3377      	adds	r3, #119
    5f2a:	00da      	lsls	r2, r3, #3
    5f2c:	e753      	b.n	5dd6 <_malloc_r+0x352>
    5f2e:	2700      	movs	r7, #0
    5f30:	2001      	movs	r0, #1
    5f32:	e6fb      	b.n	5d2c <_malloc_r+0x2a8>
    5f34:	6085      	str	r5, [r0, #8]
    5f36:	e6e2      	b.n	5cfe <_malloc_r+0x27a>
    5f38:	1c21      	adds	r1, r4, #0
    5f3a:	3108      	adds	r1, #8
    5f3c:	4650      	mov	r0, sl
    5f3e:	f7ff fc95 	bl	586c <_free_r>
    5f42:	e710      	b.n	5d66 <_malloc_r+0x2e2>
    5f44:	464a      	mov	r2, r9
    5f46:	6853      	ldr	r3, [r2, #4]
    5f48:	4383      	bics	r3, r0
    5f4a:	6053      	str	r3, [r2, #4]
    5f4c:	e7a4      	b.n	5e98 <_malloc_r+0x414>
    5f4e:	4b07      	ldr	r3, [pc, #28]	(5f6c <_malloc_r+0x4e8>)
    5f50:	429a      	cmp	r2, r3
    5f52:	d906      	bls.n	5f62 <_malloc_r+0x4de>
    5f54:	22fc      	movs	r2, #252
    5f56:	237e      	movs	r3, #126
    5f58:	0092      	lsls	r2, r2, #2
    5f5a:	e73c      	b.n	5dd6 <_malloc_r+0x352>
    5f5c:	3704      	adds	r7, #4
    5f5e:	0040      	lsls	r0, r0, #1
    5f60:	e7a3      	b.n	5eaa <_malloc_r+0x426>
    5f62:	0c8b      	lsrs	r3, r1, #18
    5f64:	337c      	adds	r3, #124
    5f66:	00da      	lsls	r2, r3, #3
    5f68:	e735      	b.n	5dd6 <_malloc_r+0x352>
    5f6a:	46c0      	nop			(mov r8, r8)
    5f6c:	00000554 	.word	0x00000554

00005f70 <memchr>:
    5f70:	b5f0      	push	{r4, r5, r6, r7, lr}
    5f72:	0609      	lsls	r1, r1, #24
    5f74:	1c03      	adds	r3, r0, #0
    5f76:	0e0c      	lsrs	r4, r1, #24
    5f78:	0781      	lsls	r1, r0, #30
    5f7a:	d010      	beq.n	5f9e <memchr+0x2e>
    5f7c:	2a00      	cmp	r2, #0
    5f7e:	d020      	beq.n	5fc2 <memchr+0x52>
    5f80:	781b      	ldrb	r3, [r3, #0]
    5f82:	42a3      	cmp	r3, r4
    5f84:	d01e      	beq.n	5fc4 <memchr+0x54>
    5f86:	3a01      	subs	r2, #1
    5f88:	2103      	movs	r1, #3
    5f8a:	e005      	b.n	5f98 <memchr+0x28>
    5f8c:	2a00      	cmp	r2, #0
    5f8e:	d018      	beq.n	5fc2 <memchr+0x52>
    5f90:	7803      	ldrb	r3, [r0, #0]
    5f92:	42a3      	cmp	r3, r4
    5f94:	d016      	beq.n	5fc4 <memchr+0x54>
    5f96:	3a01      	subs	r2, #1
    5f98:	3001      	adds	r0, #1
    5f9a:	4208      	tst	r0, r1
    5f9c:	d1f6      	bne.n	5f8c <memchr+0x1c>
    5f9e:	1c15      	adds	r5, r2, #0
    5fa0:	1c01      	adds	r1, r0, #0
    5fa2:	2a03      	cmp	r2, #3
    5fa4:	d811      	bhi.n	5fca <memchr+0x5a>
    5fa6:	2d00      	cmp	r5, #0
    5fa8:	d00b      	beq.n	5fc2 <memchr+0x52>
    5faa:	780b      	ldrb	r3, [r1, #0]
    5fac:	42a3      	cmp	r3, r4
    5fae:	d01f      	beq.n	5ff0 <memchr+0x80>
    5fb0:	1e6a      	subs	r2, r5, #1
    5fb2:	e004      	b.n	5fbe <memchr+0x4e>
    5fb4:	3101      	adds	r1, #1
    5fb6:	780b      	ldrb	r3, [r1, #0]
    5fb8:	3a01      	subs	r2, #1
    5fba:	42a3      	cmp	r3, r4
    5fbc:	d018      	beq.n	5ff0 <memchr+0x80>
    5fbe:	2a00      	cmp	r2, #0
    5fc0:	d1f8      	bne.n	5fb4 <memchr+0x44>
    5fc2:	2000      	movs	r0, #0
    5fc4:	bcf0      	pop	{r4, r5, r6, r7}
    5fc6:	bc02      	pop	{r1}
    5fc8:	4708      	bx	r1
    5fca:	0223      	lsls	r3, r4, #8
    5fcc:	4323      	orrs	r3, r4
    5fce:	041a      	lsls	r2, r3, #16
    5fd0:	1c10      	adds	r0, r2, #0
    5fd2:	4e08      	ldr	r6, [pc, #32]	(5ff4 <memchr+0x84>)
    5fd4:	4318      	orrs	r0, r3
    5fd6:	680b      	ldr	r3, [r1, #0]
    5fd8:	1c02      	adds	r2, r0, #0
    5fda:	4f07      	ldr	r7, [pc, #28]	(5ff8 <memchr+0x88>)
    5fdc:	405a      	eors	r2, r3
    5fde:	19d3      	adds	r3, r2, r7
    5fe0:	4393      	bics	r3, r2
    5fe2:	4233      	tst	r3, r6
    5fe4:	d1df      	bne.n	5fa6 <memchr+0x36>
    5fe6:	3d04      	subs	r5, #4
    5fe8:	3104      	adds	r1, #4
    5fea:	2d03      	cmp	r5, #3
    5fec:	d8f3      	bhi.n	5fd6 <memchr+0x66>
    5fee:	e7da      	b.n	5fa6 <memchr+0x36>
    5ff0:	1c08      	adds	r0, r1, #0
    5ff2:	e7e7      	b.n	5fc4 <memchr+0x54>
    5ff4:	80808080 	.word	0x80808080
    5ff8:	fefefeff 	.word	0xfefefeff

00005ffc <memmove>:
    5ffc:	b5f0      	push	{r4, r5, r6, r7, lr}
    5ffe:	1c0f      	adds	r7, r1, #0
    6000:	4684      	mov	ip, r0
    6002:	1c0c      	adds	r4, r1, #0
    6004:	1c16      	adds	r6, r2, #0
    6006:	1c05      	adds	r5, r0, #0
    6008:	1c11      	adds	r1, r2, #0
    600a:	45bc      	cmp	ip, r7
    600c:	d910      	bls.n	6030 <memmove+0x34>
    600e:	18b8      	adds	r0, r7, r2
    6010:	4584      	cmp	ip, r0
    6012:	d20d      	bcs.n	6030 <memmove+0x34>
    6014:	2a00      	cmp	r2, #0
    6016:	d007      	beq.n	6028 <memmove+0x2c>
    6018:	18a9      	adds	r1, r5, r2
    601a:	3a01      	subs	r2, #1
    601c:	3801      	subs	r0, #1
    601e:	7803      	ldrb	r3, [r0, #0]
    6020:	3901      	subs	r1, #1
    6022:	700b      	strb	r3, [r1, #0]
    6024:	3a01      	subs	r2, #1
    6026:	d2f9      	bcs.n	601c <memmove+0x20>
    6028:	4660      	mov	r0, ip
    602a:	bcf0      	pop	{r4, r5, r6, r7}
    602c:	bc02      	pop	{r1}
    602e:	4708      	bx	r1
    6030:	2e0f      	cmp	r6, #15
    6032:	d808      	bhi.n	6046 <memmove+0x4a>
    6034:	2900      	cmp	r1, #0
    6036:	d0f7      	beq.n	6028 <memmove+0x2c>
    6038:	2200      	movs	r2, #0
    603a:	5ca3      	ldrb	r3, [r4, r2]
    603c:	54ab      	strb	r3, [r5, r2]
    603e:	3201      	adds	r2, #1
    6040:	428a      	cmp	r2, r1
    6042:	d1fa      	bne.n	603a <memmove+0x3e>
    6044:	e7f0      	b.n	6028 <memmove+0x2c>
    6046:	4663      	mov	r3, ip
    6048:	433b      	orrs	r3, r7
    604a:	079a      	lsls	r2, r3, #30
    604c:	d1f2      	bne.n	6034 <memmove+0x38>
    604e:	4662      	mov	r2, ip
    6050:	1c39      	adds	r1, r7, #0
    6052:	1c30      	adds	r0, r6, #0
    6054:	680b      	ldr	r3, [r1, #0]
    6056:	6013      	str	r3, [r2, #0]
    6058:	684b      	ldr	r3, [r1, #4]
    605a:	6053      	str	r3, [r2, #4]
    605c:	688b      	ldr	r3, [r1, #8]
    605e:	6093      	str	r3, [r2, #8]
    6060:	68cb      	ldr	r3, [r1, #12]
    6062:	3810      	subs	r0, #16
    6064:	60d3      	str	r3, [r2, #12]
    6066:	3110      	adds	r1, #16
    6068:	3210      	adds	r2, #16
    606a:	280f      	cmp	r0, #15
    606c:	d8f2      	bhi.n	6054 <memmove+0x58>
    606e:	1c33      	adds	r3, r6, #0
    6070:	3b10      	subs	r3, #16
    6072:	091a      	lsrs	r2, r3, #4
    6074:	0111      	lsls	r1, r2, #4
    6076:	3201      	adds	r2, #1
    6078:	0112      	lsls	r2, r2, #4
    607a:	1a59      	subs	r1, r3, r1
    607c:	4663      	mov	r3, ip
    607e:	18be      	adds	r6, r7, r2
    6080:	189c      	adds	r4, r3, r2
    6082:	2903      	cmp	r1, #3
    6084:	d90e      	bls.n	60a4 <memmove+0xa8>
    6086:	2200      	movs	r2, #0
    6088:	58b3      	ldr	r3, [r6, r2]
    608a:	50a3      	str	r3, [r4, r2]
    608c:	3204      	adds	r2, #4
    608e:	1a8b      	subs	r3, r1, r2
    6090:	2b03      	cmp	r3, #3
    6092:	d8f9      	bhi.n	6088 <memmove+0x8c>
    6094:	1f0b      	subs	r3, r1, #4
    6096:	089a      	lsrs	r2, r3, #2
    6098:	0091      	lsls	r1, r2, #2
    609a:	3201      	adds	r2, #1
    609c:	0092      	lsls	r2, r2, #2
    609e:	1a59      	subs	r1, r3, r1
    60a0:	18b6      	adds	r6, r6, r2
    60a2:	18a4      	adds	r4, r4, r2
    60a4:	1c25      	adds	r5, r4, #0
    60a6:	1c34      	adds	r4, r6, #0
    60a8:	e7c4      	b.n	6034 <memmove+0x38>
    60aa:	46c0      	nop			(mov r8, r8)

000060ac <__malloc_lock>:
    60ac:	4770      	bx	lr
    60ae:	46c0      	nop			(mov r8, r8)

000060b0 <__malloc_unlock>:
    60b0:	4770      	bx	lr
    60b2:	46c0      	nop			(mov r8, r8)
    60b4:	0000      	lsls	r0, r0, #0
	...

000060b8 <_Bfree>:
    60b8:	b500      	push	{lr}
    60ba:	1c02      	adds	r2, r0, #0
    60bc:	1c08      	adds	r0, r1, #0
    60be:	2900      	cmp	r1, #0
    60c0:	d005      	beq.n	60ce <_Bfree+0x16>
    60c2:	684b      	ldr	r3, [r1, #4]
    60c4:	6cd1      	ldr	r1, [r2, #76]
    60c6:	009b      	lsls	r3, r3, #2
    60c8:	585a      	ldr	r2, [r3, r1]
    60ca:	6002      	str	r2, [r0, #0]
    60cc:	5058      	str	r0, [r3, r1]
    60ce:	bc01      	pop	{r0}
    60d0:	4700      	bx	r0
    60d2:	46c0      	nop			(mov r8, r8)

000060d4 <__hi0bits>:
    60d4:	b500      	push	{lr}
    60d6:	4b10      	ldr	r3, [pc, #64]	(6118 <__hi0bits+0x44>)
    60d8:	4218      	tst	r0, r3
    60da:	d017      	beq.n	610c <__hi0bits+0x38>
    60dc:	2200      	movs	r2, #0
    60de:	4b0f      	ldr	r3, [pc, #60]	(611c <__hi0bits+0x48>)
    60e0:	4218      	tst	r0, r3
    60e2:	d101      	bne.n	60e8 <__hi0bits+0x14>
    60e4:	3208      	adds	r2, #8
    60e6:	0200      	lsls	r0, r0, #8
    60e8:	4b0d      	ldr	r3, [pc, #52]	(6120 <__hi0bits+0x4c>)
    60ea:	4218      	tst	r0, r3
    60ec:	d101      	bne.n	60f2 <__hi0bits+0x1e>
    60ee:	3204      	adds	r2, #4
    60f0:	0100      	lsls	r0, r0, #4
    60f2:	4b0c      	ldr	r3, [pc, #48]	(6124 <__hi0bits+0x50>)
    60f4:	4218      	tst	r0, r3
    60f6:	d101      	bne.n	60fc <__hi0bits+0x28>
    60f8:	3202      	adds	r2, #2
    60fa:	0080      	lsls	r0, r0, #2
    60fc:	2800      	cmp	r0, #0
    60fe:	db02      	blt.n	6106 <__hi0bits+0x32>
    6100:	0043      	lsls	r3, r0, #1
    6102:	d506      	bpl.n	6112 <__hi0bits+0x3e>
    6104:	3201      	adds	r2, #1
    6106:	1c10      	adds	r0, r2, #0
    6108:	bc02      	pop	{r1}
    610a:	4708      	bx	r1
    610c:	0400      	lsls	r0, r0, #16
    610e:	2210      	movs	r2, #16
    6110:	e7e5      	b.n	60de <__hi0bits+0xa>
    6112:	2220      	movs	r2, #32
    6114:	e7f7      	b.n	6106 <__hi0bits+0x32>
    6116:	46c0      	nop			(mov r8, r8)
    6118:	ffff0000 	.word	0xffff0000
    611c:	ff000000 	.word	0xff000000
    6120:	f0000000 	.word	0xf0000000
    6124:	c0000000 	.word	0xc0000000

00006128 <__lo0bits>:
    6128:	b500      	push	{lr}
    612a:	6802      	ldr	r2, [r0, #0]
    612c:	1c01      	adds	r1, r0, #0
    612e:	0753      	lsls	r3, r2, #29
    6130:	d007      	beq.n	6142 <__lo0bits+0x1a>
    6132:	07d3      	lsls	r3, r2, #31
    6134:	d421      	bmi.n	617a <__lo0bits+0x52>
    6136:	0793      	lsls	r3, r2, #30
    6138:	d424      	bmi.n	6184 <__lo0bits+0x5c>
    613a:	0893      	lsrs	r3, r2, #2
    613c:	6003      	str	r3, [r0, #0]
    613e:	2002      	movs	r0, #2
    6140:	e01c      	b.n	617c <__lo0bits+0x54>
    6142:	4b12      	ldr	r3, [pc, #72]	(618c <__lo0bits+0x64>)
    6144:	421a      	tst	r2, r3
    6146:	d015      	beq.n	6174 <__lo0bits+0x4c>
    6148:	2000      	movs	r0, #0
    614a:	23ff      	movs	r3, #255
    614c:	421a      	tst	r2, r3
    614e:	d101      	bne.n	6154 <__lo0bits+0x2c>
    6150:	3008      	adds	r0, #8
    6152:	0a12      	lsrs	r2, r2, #8
    6154:	0713      	lsls	r3, r2, #28
    6156:	d101      	bne.n	615c <__lo0bits+0x34>
    6158:	3004      	adds	r0, #4
    615a:	0912      	lsrs	r2, r2, #4
    615c:	0793      	lsls	r3, r2, #30
    615e:	d101      	bne.n	6164 <__lo0bits+0x3c>
    6160:	3002      	adds	r0, #2
    6162:	0892      	lsrs	r2, r2, #2
    6164:	07d3      	lsls	r3, r2, #31
    6166:	d403      	bmi.n	6170 <__lo0bits+0x48>
    6168:	0852      	lsrs	r2, r2, #1
    616a:	2a00      	cmp	r2, #0
    616c:	d008      	beq.n	6180 <__lo0bits+0x58>
    616e:	3001      	adds	r0, #1
    6170:	600a      	str	r2, [r1, #0]
    6172:	e003      	b.n	617c <__lo0bits+0x54>
    6174:	0c12      	lsrs	r2, r2, #16
    6176:	2010      	movs	r0, #16
    6178:	e7e7      	b.n	614a <__lo0bits+0x22>
    617a:	2000      	movs	r0, #0
    617c:	bc02      	pop	{r1}
    617e:	4708      	bx	r1
    6180:	2020      	movs	r0, #32
    6182:	e7fb      	b.n	617c <__lo0bits+0x54>
    6184:	0853      	lsrs	r3, r2, #1
    6186:	6003      	str	r3, [r0, #0]
    6188:	2001      	movs	r0, #1
    618a:	e7f7      	b.n	617c <__lo0bits+0x54>
    618c:	0000ffff 	.word	0x0000ffff

00006190 <__mcmp>:
    6190:	b530      	push	{r4, r5, lr}
    6192:	6903      	ldr	r3, [r0, #16]
    6194:	690a      	ldr	r2, [r1, #16]
    6196:	1a9c      	subs	r4, r3, r2
    6198:	2c00      	cmp	r4, #0
    619a:	d10f      	bne.n	61bc <__mcmp+0x2c>
    619c:	1d13      	adds	r3, r2, #4
    619e:	009b      	lsls	r3, r3, #2
    61a0:	1c05      	adds	r5, r0, #0
    61a2:	18c2      	adds	r2, r0, r3
    61a4:	18cb      	adds	r3, r1, r3
    61a6:	3514      	adds	r5, #20
    61a8:	1d10      	adds	r0, r2, #4
    61aa:	1d19      	adds	r1, r3, #4
    61ac:	3804      	subs	r0, #4
    61ae:	3904      	subs	r1, #4
    61b0:	6802      	ldr	r2, [r0, #0]
    61b2:	680b      	ldr	r3, [r1, #0]
    61b4:	429a      	cmp	r2, r3
    61b6:	d105      	bne.n	61c4 <__mcmp+0x34>
    61b8:	4285      	cmp	r5, r0
    61ba:	d3f7      	bcc.n	61ac <__mcmp+0x1c>
    61bc:	1c20      	adds	r0, r4, #0
    61be:	bc30      	pop	{r4, r5}
    61c0:	bc02      	pop	{r1}
    61c2:	4708      	bx	r1
    61c4:	429a      	cmp	r2, r3
    61c6:	d301      	bcc.n	61cc <__mcmp+0x3c>
    61c8:	2401      	movs	r4, #1
    61ca:	e7f7      	b.n	61bc <__mcmp+0x2c>
    61cc:	2401      	movs	r4, #1
    61ce:	4264      	negs	r4, r4
    61d0:	e7f4      	b.n	61bc <__mcmp+0x2c>
    61d2:	46c0      	nop			(mov r8, r8)

000061d4 <__ulp>:
    61d4:	b500      	push	{lr}
    61d6:	4b10      	ldr	r3, [pc, #64]	(6218 <__ulp+0x44>)
    61d8:	4a10      	ldr	r2, [pc, #64]	(621c <__ulp+0x48>)
    61da:	400b      	ands	r3, r1
    61dc:	189b      	adds	r3, r3, r2
    61de:	2b00      	cmp	r3, #0
    61e0:	dd03      	ble.n	61ea <__ulp+0x16>
    61e2:	1c19      	adds	r1, r3, #0
    61e4:	2000      	movs	r0, #0
    61e6:	bc04      	pop	{r2}
    61e8:	4710      	bx	r2
    61ea:	425b      	negs	r3, r3
    61ec:	151a      	asrs	r2, r3, #20
    61ee:	2a13      	cmp	r2, #19
    61f0:	dd07      	ble.n	6202 <__ulp+0x2e>
    61f2:	3a14      	subs	r2, #20
    61f4:	2a1e      	cmp	r2, #30
    61f6:	dd0a      	ble.n	620e <__ulp+0x3a>
    61f8:	2201      	movs	r2, #1
    61fa:	2000      	movs	r0, #0
    61fc:	2100      	movs	r1, #0
    61fe:	1c10      	adds	r0, r2, #0
    6200:	e7f1      	b.n	61e6 <__ulp+0x12>
    6202:	2380      	movs	r3, #128
    6204:	031b      	lsls	r3, r3, #12
    6206:	1c19      	adds	r1, r3, #0
    6208:	4111      	asrs	r1, r2
    620a:	2000      	movs	r0, #0
    620c:	e7eb      	b.n	61e6 <__ulp+0x12>
    620e:	231f      	movs	r3, #31
    6210:	1a9b      	subs	r3, r3, r2
    6212:	2201      	movs	r2, #1
    6214:	409a      	lsls	r2, r3
    6216:	e7f0      	b.n	61fa <__ulp+0x26>
    6218:	7ff00000 	.word	0x7ff00000
    621c:	fcc00000 	.word	0xfcc00000

00006220 <__b2d>:
    6220:	b5f0      	push	{r4, r5, r6, r7, lr}
    6222:	4647      	mov	r7, r8
    6224:	b480      	push	{r7}
    6226:	6903      	ldr	r3, [r0, #16]
    6228:	3304      	adds	r3, #4
    622a:	009b      	lsls	r3, r3, #2
    622c:	18c5      	adds	r5, r0, r3
    622e:	682a      	ldr	r2, [r5, #0]
    6230:	1c07      	adds	r7, r0, #0
    6232:	1c10      	adds	r0, r2, #0
    6234:	1c0c      	adds	r4, r1, #0
    6236:	4690      	mov	r8, r2
    6238:	f7ff ff4c 	bl	60d4 <__hi0bits>
    623c:	2320      	movs	r3, #32
    623e:	1a1b      	subs	r3, r3, r0
    6240:	3714      	adds	r7, #20
    6242:	1c06      	adds	r6, r0, #0
    6244:	6023      	str	r3, [r4, #0]
    6246:	280a      	cmp	r0, #10
    6248:	dc18      	bgt.n	627c <__b2d+0x5c>
    624a:	230b      	movs	r3, #11
    624c:	1a1a      	subs	r2, r3, r0
    624e:	42af      	cmp	r7, r5
    6250:	d23d      	bcs.n	62ce <__b2d+0xae>
    6252:	1f2b      	subs	r3, r5, #4
    6254:	681b      	ldr	r3, [r3, #0]
    6256:	1c1c      	adds	r4, r3, #0
    6258:	40d4      	lsrs	r4, r2
    625a:	4643      	mov	r3, r8
    625c:	40d3      	lsrs	r3, r2
    625e:	1c1a      	adds	r2, r3, #0
    6260:	4b1d      	ldr	r3, [pc, #116]	(62d8 <__b2d+0xb8>)
    6262:	1c11      	adds	r1, r2, #0
    6264:	4319      	orrs	r1, r3
    6266:	1c33      	adds	r3, r6, #0
    6268:	3315      	adds	r3, #21
    626a:	4642      	mov	r2, r8
    626c:	409a      	lsls	r2, r3
    626e:	1c20      	adds	r0, r4, #0
    6270:	4310      	orrs	r0, r2
    6272:	bc04      	pop	{r2}
    6274:	4690      	mov	r8, r2
    6276:	bcf0      	pop	{r4, r5, r6, r7}
    6278:	bc04      	pop	{r2}
    627a:	4710      	bx	r2
    627c:	42af      	cmp	r7, r5
    627e:	d31a      	bcc.n	62b6 <__b2d+0x96>
    6280:	1c34      	adds	r4, r6, #0
    6282:	2300      	movs	r3, #0
    6284:	3c0b      	subs	r4, #11
    6286:	469c      	mov	ip, r3
    6288:	2c00      	cmp	r4, #0
    628a:	d01b      	beq.n	62c4 <__b2d+0xa4>
    628c:	2320      	movs	r3, #32
    628e:	1b19      	subs	r1, r3, r4
    6290:	42bd      	cmp	r5, r7
    6292:	d91e      	bls.n	62d2 <__b2d+0xb2>
    6294:	1f2b      	subs	r3, r5, #4
    6296:	681b      	ldr	r3, [r3, #0]
    6298:	1c1d      	adds	r5, r3, #0
    629a:	40cd      	lsrs	r5, r1
    629c:	4b0e      	ldr	r3, [pc, #56]	(62d8 <__b2d+0xb8>)
    629e:	4642      	mov	r2, r8
    62a0:	40a2      	lsls	r2, r4
    62a2:	431a      	orrs	r2, r3
    62a4:	4663      	mov	r3, ip
    62a6:	40cb      	lsrs	r3, r1
    62a8:	1c11      	adds	r1, r2, #0
    62aa:	4319      	orrs	r1, r3
    62ac:	4663      	mov	r3, ip
    62ae:	40a3      	lsls	r3, r4
    62b0:	1c28      	adds	r0, r5, #0
    62b2:	4318      	orrs	r0, r3
    62b4:	e7dd      	b.n	6272 <__b2d+0x52>
    62b6:	3d04      	subs	r5, #4
    62b8:	682a      	ldr	r2, [r5, #0]
    62ba:	1c34      	adds	r4, r6, #0
    62bc:	3c0b      	subs	r4, #11
    62be:	4694      	mov	ip, r2
    62c0:	2c00      	cmp	r4, #0
    62c2:	d1e3      	bne.n	628c <__b2d+0x6c>
    62c4:	4b04      	ldr	r3, [pc, #16]	(62d8 <__b2d+0xb8>)
    62c6:	4641      	mov	r1, r8
    62c8:	4319      	orrs	r1, r3
    62ca:	4660      	mov	r0, ip
    62cc:	e7d1      	b.n	6272 <__b2d+0x52>
    62ce:	2400      	movs	r4, #0
    62d0:	e7c3      	b.n	625a <__b2d+0x3a>
    62d2:	2500      	movs	r5, #0
    62d4:	e7e2      	b.n	629c <__b2d+0x7c>
    62d6:	46c0      	nop			(mov r8, r8)
    62d8:	3ff00000 	.word	0x3ff00000

000062dc <__ratio>:
    62dc:	b5f0      	push	{r4, r5, r6, r7, lr}
    62de:	b085      	sub	sp, #20
    62e0:	1c0d      	adds	r5, r1, #0
    62e2:	a903      	add	r1, sp, #12
    62e4:	1c04      	adds	r4, r0, #0
    62e6:	f7ff ff9b 	bl	6220 <__b2d>
    62ea:	1c06      	adds	r6, r0, #0
    62ec:	1c0f      	adds	r7, r1, #0
    62ee:	1c28      	adds	r0, r5, #0
    62f0:	a902      	add	r1, sp, #8
    62f2:	f7ff ff95 	bl	6220 <__b2d>
    62f6:	9b02      	ldr	r3, [sp, #8]
    62f8:	9000      	str	r0, [sp, #0]
    62fa:	9101      	str	r1, [sp, #4]
    62fc:	9903      	ldr	r1, [sp, #12]
    62fe:	692a      	ldr	r2, [r5, #16]
    6300:	1ac9      	subs	r1, r1, r3
    6302:	6923      	ldr	r3, [r4, #16]
    6304:	1a9b      	subs	r3, r3, r2
    6306:	015b      	lsls	r3, r3, #5
    6308:	18c9      	adds	r1, r1, r3
    630a:	2900      	cmp	r1, #0
    630c:	dd0b      	ble.n	6326 <__ratio+0x4a>
    630e:	050b      	lsls	r3, r1, #20
    6310:	19df      	adds	r7, r3, r7
    6312:	1c30      	adds	r0, r6, #0
    6314:	1c39      	adds	r1, r7, #0
    6316:	9a00      	ldr	r2, [sp, #0]
    6318:	9b01      	ldr	r3, [sp, #4]
    631a:	f001 ea56 	blx	77c8 <__aeabi_ddiv>
    631e:	b005      	add	sp, #20
    6320:	bcf0      	pop	{r4, r5, r6, r7}
    6322:	bc04      	pop	{r2}
    6324:	4710      	bx	r2
    6326:	9a01      	ldr	r2, [sp, #4]
    6328:	050b      	lsls	r3, r1, #20
    632a:	1ad3      	subs	r3, r2, r3
    632c:	9301      	str	r3, [sp, #4]
    632e:	e7f0      	b.n	6312 <__ratio+0x36>

00006330 <_mprec_log10>:
    6330:	b510      	push	{r4, lr}
    6332:	1c04      	adds	r4, r0, #0
    6334:	2817      	cmp	r0, #23
    6336:	dd0b      	ble.n	6350 <_mprec_log10+0x20>
    6338:	490a      	ldr	r1, [pc, #40]	(6364 <_mprec_log10+0x34>)
    633a:	4809      	ldr	r0, [pc, #36]	(6360 <_mprec_log10+0x30>)
    633c:	4a0a      	ldr	r2, [pc, #40]	(6368 <_mprec_log10+0x38>)
    633e:	4b0b      	ldr	r3, [pc, #44]	(636c <_mprec_log10+0x3c>)
    6340:	3c01      	subs	r4, #1
    6342:	f001 e8fa 	blx	7538 <__aeabi_dmul>
    6346:	2c00      	cmp	r4, #0
    6348:	dcf8      	bgt.n	633c <_mprec_log10+0xc>
    634a:	bc10      	pop	{r4}
    634c:	bc04      	pop	{r2}
    634e:	4710      	bx	r2
    6350:	4b07      	ldr	r3, [pc, #28]	(6370 <_mprec_log10+0x40>)
    6352:	00c2      	lsls	r2, r0, #3
    6354:	189b      	adds	r3, r3, r2
    6356:	6818      	ldr	r0, [r3, #0]
    6358:	6859      	ldr	r1, [r3, #4]
    635a:	e7f6      	b.n	634a <_mprec_log10+0x1a>
    635c:	46c0      	nop			(mov r8, r8)
    635e:	46c0      	nop			(mov r8, r8)
    6360:	00000000 	.word	0x00000000
    6364:	3ff00000 	.word	0x3ff00000
    6368:	00000000 	.word	0x00000000
    636c:	40240000 	.word	0x40240000
    6370:	00008d78 	.word	0x00008d78

00006374 <__copybits>:
    6374:	b570      	push	{r4, r5, r6, lr}
    6376:	3901      	subs	r1, #1
    6378:	6913      	ldr	r3, [r2, #16]
    637a:	1149      	asrs	r1, r1, #5
    637c:	3101      	adds	r1, #1
    637e:	3304      	adds	r3, #4
    6380:	0089      	lsls	r1, r1, #2
    6382:	009b      	lsls	r3, r3, #2
    6384:	1845      	adds	r5, r0, r1
    6386:	18d3      	adds	r3, r2, r3
    6388:	1c11      	adds	r1, r2, #0
    638a:	1c04      	adds	r4, r0, #0
    638c:	3114      	adds	r1, #20
    638e:	1d18      	adds	r0, r3, #4
    6390:	1c16      	adds	r6, r2, #0
    6392:	4281      	cmp	r1, r0
    6394:	d20a      	bcs.n	63ac <__copybits+0x38>
    6396:	1c22      	adds	r2, r4, #0
    6398:	c908      	ldmia	r1!, {r3}
    639a:	c208      	stmia	r2!, {r3}
    639c:	4288      	cmp	r0, r1
    639e:	d8fb      	bhi.n	6398 <__copybits+0x24>
    63a0:	1b83      	subs	r3, r0, r6
    63a2:	3b15      	subs	r3, #21
    63a4:	089b      	lsrs	r3, r3, #2
    63a6:	3301      	adds	r3, #1
    63a8:	009b      	lsls	r3, r3, #2
    63aa:	18e4      	adds	r4, r4, r3
    63ac:	42a5      	cmp	r5, r4
    63ae:	d903      	bls.n	63b8 <__copybits+0x44>
    63b0:	2300      	movs	r3, #0
    63b2:	c408      	stmia	r4!, {r3}
    63b4:	42a5      	cmp	r5, r4
    63b6:	d8fc      	bhi.n	63b2 <__copybits+0x3e>
    63b8:	bc70      	pop	{r4, r5, r6}
    63ba:	bc01      	pop	{r0}
    63bc:	4700      	bx	r0
    63be:	46c0      	nop			(mov r8, r8)

000063c0 <__any_on>:
    63c0:	b510      	push	{r4, lr}
    63c2:	6903      	ldr	r3, [r0, #16]
    63c4:	114a      	asrs	r2, r1, #5
    63c6:	4293      	cmp	r3, r2
    63c8:	da13      	bge.n	63f2 <__any_on+0x32>
    63ca:	1c19      	adds	r1, r3, #0
    63cc:	1d0b      	adds	r3, r1, #4
    63ce:	009b      	lsls	r3, r3, #2
    63d0:	1c02      	adds	r2, r0, #0
    63d2:	18c0      	adds	r0, r0, r3
    63d4:	3214      	adds	r2, #20
    63d6:	1d03      	adds	r3, r0, #4
    63d8:	429a      	cmp	r2, r3
    63da:	d303      	bcc.n	63e4 <__any_on+0x24>
    63dc:	e01c      	b.n	6418 <__any_on+0x58>
    63de:	4282      	cmp	r2, r0
    63e0:	d21a      	bcs.n	6418 <__any_on+0x58>
    63e2:	3804      	subs	r0, #4
    63e4:	6803      	ldr	r3, [r0, #0]
    63e6:	2b00      	cmp	r3, #0
    63e8:	d0f9      	beq.n	63de <__any_on+0x1e>
    63ea:	2001      	movs	r0, #1
    63ec:	bc10      	pop	{r4}
    63ee:	bc02      	pop	{r1}
    63f0:	4708      	bx	r1
    63f2:	4293      	cmp	r3, r2
    63f4:	dd0e      	ble.n	6414 <__any_on+0x54>
    63f6:	231f      	movs	r3, #31
    63f8:	1c0c      	adds	r4, r1, #0
    63fa:	401c      	ands	r4, r3
    63fc:	d00a      	beq.n	6414 <__any_on+0x54>
    63fe:	1d13      	adds	r3, r2, #4
    6400:	009b      	lsls	r3, r3, #2
    6402:	18c3      	adds	r3, r0, r3
    6404:	1c11      	adds	r1, r2, #0
    6406:	685a      	ldr	r2, [r3, #4]
    6408:	1c13      	adds	r3, r2, #0
    640a:	40e3      	lsrs	r3, r4
    640c:	40a3      	lsls	r3, r4
    640e:	4293      	cmp	r3, r2
    6410:	d1eb      	bne.n	63ea <__any_on+0x2a>
    6412:	e7db      	b.n	63cc <__any_on+0xc>
    6414:	1c11      	adds	r1, r2, #0
    6416:	e7d9      	b.n	63cc <__any_on+0xc>
    6418:	2000      	movs	r0, #0
    641a:	e7e7      	b.n	63ec <__any_on+0x2c>

0000641c <_Balloc>:
    641c:	b570      	push	{r4, r5, r6, lr}
    641e:	1c04      	adds	r4, r0, #0
    6420:	6cc0      	ldr	r0, [r0, #76]
    6422:	1c0d      	adds	r5, r1, #0
    6424:	2800      	cmp	r0, #0
    6426:	d00c      	beq.n	6442 <_Balloc+0x26>
    6428:	00ab      	lsls	r3, r5, #2
    642a:	18c2      	adds	r2, r0, r3
    642c:	6810      	ldr	r0, [r2, #0]
    642e:	2800      	cmp	r0, #0
    6430:	d010      	beq.n	6454 <_Balloc+0x38>
    6432:	6803      	ldr	r3, [r0, #0]
    6434:	6013      	str	r3, [r2, #0]
    6436:	2300      	movs	r3, #0
    6438:	6103      	str	r3, [r0, #16]
    643a:	60c3      	str	r3, [r0, #12]
    643c:	bc70      	pop	{r4, r5, r6}
    643e:	bc02      	pop	{r1}
    6440:	4708      	bx	r1
    6442:	1c20      	adds	r0, r4, #0
    6444:	2104      	movs	r1, #4
    6446:	2210      	movs	r2, #16
    6448:	f000 fd0e 	bl	6e68 <_calloc_r>
    644c:	64e0      	str	r0, [r4, #76]
    644e:	2800      	cmp	r0, #0
    6450:	d1ea      	bne.n	6428 <_Balloc+0xc>
    6452:	e7f3      	b.n	643c <_Balloc+0x20>
    6454:	2301      	movs	r3, #1
    6456:	1c1e      	adds	r6, r3, #0
    6458:	40ae      	lsls	r6, r5
    645a:	1d72      	adds	r2, r6, #5
    645c:	0092      	lsls	r2, r2, #2
    645e:	1c20      	adds	r0, r4, #0
    6460:	2101      	movs	r1, #1
    6462:	f000 fd01 	bl	6e68 <_calloc_r>
    6466:	2800      	cmp	r0, #0
    6468:	d0e8      	beq.n	643c <_Balloc+0x20>
    646a:	6045      	str	r5, [r0, #4]
    646c:	6086      	str	r6, [r0, #8]
    646e:	e7e2      	b.n	6436 <_Balloc+0x1a>

00006470 <__d2b>:
    6470:	b5f0      	push	{r4, r5, r6, r7, lr}
    6472:	b083      	sub	sp, #12
    6474:	2101      	movs	r1, #1
    6476:	1c1d      	adds	r5, r3, #0
    6478:	1c14      	adds	r4, r2, #0
    647a:	f7ff ffcf 	bl	641c <_Balloc>
    647e:	4b2d      	ldr	r3, [pc, #180]	(6534 <__d2b+0xc4>)
    6480:	1c29      	adds	r1, r5, #0
    6482:	4019      	ands	r1, r3
    6484:	4b2c      	ldr	r3, [pc, #176]	(6538 <__d2b+0xc8>)
    6486:	1c2a      	adds	r2, r5, #0
    6488:	401a      	ands	r2, r3
    648a:	0d17      	lsrs	r7, r2, #20
    648c:	1c06      	adds	r6, r0, #0
    648e:	9100      	str	r1, [sp, #0]
    6490:	2f00      	cmp	r7, #0
    6492:	d003      	beq.n	649c <__d2b+0x2c>
    6494:	2380      	movs	r3, #128
    6496:	035b      	lsls	r3, r3, #13
    6498:	430b      	orrs	r3, r1
    649a:	9300      	str	r3, [sp, #0]
    649c:	2c00      	cmp	r4, #0
    649e:	d01e      	beq.n	64de <__d2b+0x6e>
    64a0:	a801      	add	r0, sp, #4
    64a2:	9401      	str	r4, [sp, #4]
    64a4:	f7ff fe40 	bl	6128 <__lo0bits>
    64a8:	2800      	cmp	r0, #0
    64aa:	d131      	bne.n	6510 <__d2b+0xa0>
    64ac:	9b01      	ldr	r3, [sp, #4]
    64ae:	6173      	str	r3, [r6, #20]
    64b0:	9b00      	ldr	r3, [sp, #0]
    64b2:	61b3      	str	r3, [r6, #24]
    64b4:	2b00      	cmp	r3, #0
    64b6:	d13a      	bne.n	652e <__d2b+0xbe>
    64b8:	2401      	movs	r4, #1
    64ba:	6134      	str	r4, [r6, #16]
    64bc:	2f00      	cmp	r7, #0
    64be:	d119      	bne.n	64f4 <__d2b+0x84>
    64c0:	491e      	ldr	r1, [pc, #120]	(653c <__d2b+0xcc>)
    64c2:	9a08      	ldr	r2, [sp, #32]
    64c4:	1843      	adds	r3, r0, r1
    64c6:	6013      	str	r3, [r2, #0]
    64c8:	1e63      	subs	r3, r4, #1
    64ca:	009b      	lsls	r3, r3, #2
    64cc:	18f3      	adds	r3, r6, r3
    64ce:	6958      	ldr	r0, [r3, #20]
    64d0:	f7ff fe00 	bl	60d4 <__hi0bits>
    64d4:	0163      	lsls	r3, r4, #5
    64d6:	9909      	ldr	r1, [sp, #36]
    64d8:	1a1b      	subs	r3, r3, r0
    64da:	600b      	str	r3, [r1, #0]
    64dc:	e013      	b.n	6506 <__d2b+0x96>
    64de:	4668      	mov	r0, sp
    64e0:	f7ff fe22 	bl	6128 <__lo0bits>
    64e4:	9b00      	ldr	r3, [sp, #0]
    64e6:	6173      	str	r3, [r6, #20]
    64e8:	2301      	movs	r3, #1
    64ea:	6133      	str	r3, [r6, #16]
    64ec:	3020      	adds	r0, #32
    64ee:	2401      	movs	r4, #1
    64f0:	2f00      	cmp	r7, #0
    64f2:	d0e5      	beq.n	64c0 <__d2b+0x50>
    64f4:	4a12      	ldr	r2, [pc, #72]	(6540 <__d2b+0xd0>)
    64f6:	9908      	ldr	r1, [sp, #32]
    64f8:	18bb      	adds	r3, r7, r2
    64fa:	181b      	adds	r3, r3, r0
    64fc:	600b      	str	r3, [r1, #0]
    64fe:	9a09      	ldr	r2, [sp, #36]
    6500:	2335      	movs	r3, #53
    6502:	1a1b      	subs	r3, r3, r0
    6504:	6013      	str	r3, [r2, #0]
    6506:	b003      	add	sp, #12
    6508:	1c30      	adds	r0, r6, #0
    650a:	bcf0      	pop	{r4, r5, r6, r7}
    650c:	bc02      	pop	{r1}
    650e:	4708      	bx	r1
    6510:	9b00      	ldr	r3, [sp, #0]
    6512:	2220      	movs	r2, #32
    6514:	1a12      	subs	r2, r2, r0
    6516:	1c19      	adds	r1, r3, #0
    6518:	4091      	lsls	r1, r2
    651a:	1c0a      	adds	r2, r1, #0
    651c:	9901      	ldr	r1, [sp, #4]
    651e:	40c3      	lsrs	r3, r0
    6520:	430a      	orrs	r2, r1
    6522:	6172      	str	r2, [r6, #20]
    6524:	9300      	str	r3, [sp, #0]
    6526:	9b00      	ldr	r3, [sp, #0]
    6528:	61b3      	str	r3, [r6, #24]
    652a:	2b00      	cmp	r3, #0
    652c:	d0c4      	beq.n	64b8 <__d2b+0x48>
    652e:	2402      	movs	r4, #2
    6530:	6134      	str	r4, [r6, #16]
    6532:	e7c3      	b.n	64bc <__d2b+0x4c>
    6534:	000fffff 	.word	0x000fffff
    6538:	7fffffff 	.word	0x7fffffff
    653c:	fffffbce 	.word	0xfffffbce
    6540:	fffffbcd 	.word	0xfffffbcd

00006544 <__mdiff>:
    6544:	b5f8      	push	{r3, r4, r5, r6, r7, lr}
    6546:	465f      	mov	r7, fp
    6548:	4656      	mov	r6, sl
    654a:	464d      	mov	r5, r9
    654c:	4644      	mov	r4, r8
    654e:	b4f0      	push	{r4, r5, r6, r7}
    6550:	4691      	mov	r9, r2
    6552:	690b      	ldr	r3, [r1, #16]
    6554:	6912      	ldr	r2, [r2, #16]
    6556:	1a9f      	subs	r7, r3, r2
    6558:	1c0e      	adds	r6, r1, #0
    655a:	2f00      	cmp	r7, #0
    655c:	d055      	beq.n	660a <__mdiff+0xc6>
    655e:	2f00      	cmp	r7, #0
    6560:	da00      	bge.n	6564 <__mdiff+0x20>
    6562:	e076      	b.n	6652 <__mdiff+0x10e>
    6564:	1c0d      	adds	r5, r1, #0
    6566:	2700      	movs	r7, #0
    6568:	3514      	adds	r5, #20
    656a:	6871      	ldr	r1, [r6, #4]
    656c:	f7ff ff56 	bl	641c <_Balloc>
    6570:	6931      	ldr	r1, [r6, #16]
    6572:	1c0b      	adds	r3, r1, #0
    6574:	3304      	adds	r3, #4
    6576:	009b      	lsls	r3, r3, #2
    6578:	18f3      	adds	r3, r6, r3
    657a:	3304      	adds	r3, #4
    657c:	464a      	mov	r2, r9
    657e:	469b      	mov	fp, r3
    6580:	6913      	ldr	r3, [r2, #16]
    6582:	3304      	adds	r3, #4
    6584:	009b      	lsls	r3, r3, #2
    6586:	444b      	add	r3, r9
    6588:	3304      	adds	r3, #4
    658a:	4682      	mov	sl, r0
    658c:	60c7      	str	r7, [r0, #12]
    658e:	464f      	mov	r7, r9
    6590:	4699      	mov	r9, r3
    6592:	4b33      	ldr	r3, [pc, #204]	(6660 <__mdiff+0x11c>)
    6594:	4656      	mov	r6, sl
    6596:	4688      	mov	r8, r1
    6598:	3714      	adds	r7, #20
    659a:	3614      	adds	r6, #20
    659c:	2400      	movs	r4, #0
    659e:	469c      	mov	ip, r3
    65a0:	cd08      	ldmia	r5!, {r3}
    65a2:	cf01      	ldmia	r7!, {r0}
    65a4:	4662      	mov	r2, ip
    65a6:	4661      	mov	r1, ip
    65a8:	4001      	ands	r1, r0
    65aa:	401a      	ands	r2, r3
    65ac:	1a52      	subs	r2, r2, r1
    65ae:	1912      	adds	r2, r2, r4
    65b0:	0c1b      	lsrs	r3, r3, #16
    65b2:	0c00      	lsrs	r0, r0, #16
    65b4:	1411      	asrs	r1, r2, #16
    65b6:	1a1b      	subs	r3, r3, r0
    65b8:	185b      	adds	r3, r3, r1
    65ba:	4661      	mov	r1, ip
    65bc:	141c      	asrs	r4, r3, #16
    65be:	400a      	ands	r2, r1
    65c0:	041b      	lsls	r3, r3, #16
    65c2:	4313      	orrs	r3, r2
    65c4:	c608      	stmia	r6!, {r3}
    65c6:	45b9      	cmp	r9, r7
    65c8:	d8ea      	bhi.n	65a0 <__mdiff+0x5c>
    65ca:	455d      	cmp	r5, fp
    65cc:	d20e      	bcs.n	65ec <__mdiff+0xa8>
    65ce:	4824      	ldr	r0, [pc, #144]	(6660 <__mdiff+0x11c>)
    65d0:	cd08      	ldmia	r5!, {r3}
    65d2:	1c19      	adds	r1, r3, #0
    65d4:	4001      	ands	r1, r0
    65d6:	1861      	adds	r1, r4, r1
    65d8:	140a      	asrs	r2, r1, #16
    65da:	0c1b      	lsrs	r3, r3, #16
    65dc:	18d2      	adds	r2, r2, r3
    65de:	1414      	asrs	r4, r2, #16
    65e0:	4001      	ands	r1, r0
    65e2:	0412      	lsls	r2, r2, #16
    65e4:	430a      	orrs	r2, r1
    65e6:	c604      	stmia	r6!, {r2}
    65e8:	45ab      	cmp	fp, r5
    65ea:	d8f1      	bhi.n	65d0 <__mdiff+0x8c>
    65ec:	1f32      	subs	r2, r6, #4
    65ee:	6813      	ldr	r3, [r2, #0]
    65f0:	2b00      	cmp	r3, #0
    65f2:	d106      	bne.n	6602 <__mdiff+0xbe>
    65f4:	2301      	movs	r3, #1
    65f6:	425b      	negs	r3, r3
    65f8:	3a04      	subs	r2, #4
    65fa:	4498      	add	r8, r3
    65fc:	6813      	ldr	r3, [r2, #0]
    65fe:	2b00      	cmp	r3, #0
    6600:	d0f8      	beq.n	65f4 <__mdiff+0xb0>
    6602:	4641      	mov	r1, r8
    6604:	4652      	mov	r2, sl
    6606:	6111      	str	r1, [r2, #16]
    6608:	e017      	b.n	663a <__mdiff+0xf6>
    660a:	1d13      	adds	r3, r2, #4
    660c:	009b      	lsls	r3, r3, #2
    660e:	18ca      	adds	r2, r1, r3
    6610:	1c0d      	adds	r5, r1, #0
    6612:	444b      	add	r3, r9
    6614:	3514      	adds	r5, #20
    6616:	3204      	adds	r2, #4
    6618:	3304      	adds	r3, #4
    661a:	3a04      	subs	r2, #4
    661c:	3b04      	subs	r3, #4
    661e:	6814      	ldr	r4, [r2, #0]
    6620:	6819      	ldr	r1, [r3, #0]
    6622:	428c      	cmp	r4, r1
    6624:	d112      	bne.n	664c <__mdiff+0x108>
    6626:	4295      	cmp	r5, r2
    6628:	d3f7      	bcc.n	661a <__mdiff+0xd6>
    662a:	2100      	movs	r1, #0
    662c:	f7ff fef6 	bl	641c <_Balloc>
    6630:	2301      	movs	r3, #1
    6632:	6103      	str	r3, [r0, #16]
    6634:	2300      	movs	r3, #0
    6636:	6143      	str	r3, [r0, #20]
    6638:	4682      	mov	sl, r0
    663a:	4650      	mov	r0, sl
    663c:	bc3c      	pop	{r2, r3, r4, r5}
    663e:	4690      	mov	r8, r2
    6640:	4699      	mov	r9, r3
    6642:	46a2      	mov	sl, r4
    6644:	46ab      	mov	fp, r5
    6646:	bcf8      	pop	{r3, r4, r5, r6, r7}
    6648:	bc02      	pop	{r1}
    664a:	4708      	bx	r1
    664c:	428c      	cmp	r4, r1
    664e:	d300      	bcc.n	6652 <__mdiff+0x10e>
    6650:	e78b      	b.n	656a <__mdiff+0x26>
    6652:	46cc      	mov	ip, r9
    6654:	4665      	mov	r5, ip
    6656:	46b1      	mov	r9, r6
    6658:	2701      	movs	r7, #1
    665a:	4666      	mov	r6, ip
    665c:	3514      	adds	r5, #20
    665e:	e784      	b.n	656a <__mdiff+0x26>
    6660:	0000ffff 	.word	0x0000ffff

00006664 <__lshift>:
    6664:	b5f0      	push	{r4, r5, r6, r7, lr}
    6666:	4657      	mov	r7, sl
    6668:	464e      	mov	r6, r9
    666a:	4645      	mov	r5, r8
    666c:	b4e0      	push	{r5, r6, r7}
    666e:	1c0e      	adds	r6, r1, #0
    6670:	6933      	ldr	r3, [r6, #16]
    6672:	1154      	asrs	r4, r2, #5
    6674:	3301      	adds	r3, #1
    6676:	191d      	adds	r5, r3, r4
    6678:	68b3      	ldr	r3, [r6, #8]
    667a:	4681      	mov	r9, r0
    667c:	1c17      	adds	r7, r2, #0
    667e:	6849      	ldr	r1, [r1, #4]
    6680:	429d      	cmp	r5, r3
    6682:	dd03      	ble.n	668c <__lshift+0x28>
    6684:	005b      	lsls	r3, r3, #1
    6686:	3101      	adds	r1, #1
    6688:	429d      	cmp	r5, r3
    668a:	dcfb      	bgt.n	6684 <__lshift+0x20>
    668c:	4648      	mov	r0, r9
    668e:	f7ff fec5 	bl	641c <_Balloc>
    6692:	1c01      	adds	r1, r0, #0
    6694:	4680      	mov	r8, r0
    6696:	3114      	adds	r1, #20
    6698:	2c00      	cmp	r4, #0
    669a:	dd09      	ble.n	66b0 <__lshift+0x4c>
    669c:	2300      	movs	r3, #0
    669e:	2200      	movs	r2, #0
    66a0:	3301      	adds	r3, #1
    66a2:	c104      	stmia	r1!, {r2}
    66a4:	429c      	cmp	r4, r3
    66a6:	dcfb      	bgt.n	66a0 <__lshift+0x3c>
    66a8:	1d23      	adds	r3, r4, #4
    66aa:	009b      	lsls	r3, r3, #2
    66ac:	4443      	add	r3, r8
    66ae:	1d19      	adds	r1, r3, #4
    66b0:	6933      	ldr	r3, [r6, #16]
    66b2:	3304      	adds	r3, #4
    66b4:	009b      	lsls	r3, r3, #2
    66b6:	18f3      	adds	r3, r6, r3
    66b8:	1c32      	adds	r2, r6, #0
    66ba:	1d1c      	adds	r4, r3, #4
    66bc:	231f      	movs	r3, #31
    66be:	3214      	adds	r2, #20
    66c0:	401f      	ands	r7, r3
    66c2:	46ba      	mov	sl, r7
    66c4:	d024      	beq.n	6710 <__lshift+0xac>
    66c6:	2320      	movs	r3, #32
    66c8:	4650      	mov	r0, sl
    66ca:	1a18      	subs	r0, r3, r0
    66cc:	4684      	mov	ip, r0
    66ce:	2000      	movs	r0, #0
    66d0:	6813      	ldr	r3, [r2, #0]
    66d2:	4657      	mov	r7, sl
    66d4:	40bb      	lsls	r3, r7
    66d6:	4303      	orrs	r3, r0
    66d8:	c108      	stmia	r1!, {r3}
    66da:	ca08      	ldmia	r2!, {r3}
    66dc:	4667      	mov	r7, ip
    66de:	1c18      	adds	r0, r3, #0
    66e0:	40f8      	lsrs	r0, r7
    66e2:	4294      	cmp	r4, r2
    66e4:	d8f4      	bhi.n	66d0 <__lshift+0x6c>
    66e6:	6008      	str	r0, [r1, #0]
    66e8:	2800      	cmp	r0, #0
    66ea:	d000      	beq.n	66ee <__lshift+0x8a>
    66ec:	3501      	adds	r5, #1
    66ee:	1e6b      	subs	r3, r5, #1
    66f0:	4640      	mov	r0, r8
    66f2:	464a      	mov	r2, r9
    66f4:	6103      	str	r3, [r0, #16]
    66f6:	6873      	ldr	r3, [r6, #4]
    66f8:	6cd1      	ldr	r1, [r2, #76]
    66fa:	009b      	lsls	r3, r3, #2
    66fc:	585a      	ldr	r2, [r3, r1]
    66fe:	6032      	str	r2, [r6, #0]
    6700:	505e      	str	r6, [r3, r1]
    6702:	bc1c      	pop	{r2, r3, r4}
    6704:	4690      	mov	r8, r2
    6706:	4699      	mov	r9, r3
    6708:	46a2      	mov	sl, r4
    670a:	bcf0      	pop	{r4, r5, r6, r7}
    670c:	bc02      	pop	{r1}
    670e:	4708      	bx	r1
    6710:	ca08      	ldmia	r2!, {r3}
    6712:	c108      	stmia	r1!, {r3}
    6714:	4294      	cmp	r4, r2
    6716:	d9ea      	bls.n	66ee <__lshift+0x8a>
    6718:	ca08      	ldmia	r2!, {r3}
    671a:	c108      	stmia	r1!, {r3}
    671c:	4294      	cmp	r4, r2
    671e:	d8f7      	bhi.n	6710 <__lshift+0xac>
    6720:	e7e5      	b.n	66ee <__lshift+0x8a>
    6722:	46c0      	nop			(mov r8, r8)

00006724 <__multiply>:
    6724:	b5f0      	push	{r4, r5, r6, r7, lr}
    6726:	465f      	mov	r7, fp
    6728:	4656      	mov	r6, sl
    672a:	464d      	mov	r5, r9
    672c:	4644      	mov	r4, r8
    672e:	b4f0      	push	{r4, r5, r6, r7}
    6730:	690e      	ldr	r6, [r1, #16]
    6732:	6915      	ldr	r5, [r2, #16]
    6734:	b085      	sub	sp, #20
    6736:	1c0c      	adds	r4, r1, #0
    6738:	1c17      	adds	r7, r2, #0
    673a:	42ae      	cmp	r6, r5
    673c:	da00      	bge.n	6740 <__multiply+0x1c>
    673e:	e09b      	b.n	6878 <__multiply+0x154>
    6740:	46b4      	mov	ip, r6
    6742:	1c2e      	adds	r6, r5, #0
    6744:	4665      	mov	r5, ip
    6746:	1972      	adds	r2, r6, r5
    6748:	68a3      	ldr	r3, [r4, #8]
    674a:	4693      	mov	fp, r2
    674c:	6861      	ldr	r1, [r4, #4]
    674e:	459b      	cmp	fp, r3
    6750:	dd00      	ble.n	6754 <__multiply+0x30>
    6752:	3101      	adds	r1, #1
    6754:	f7ff fe62 	bl	641c <_Balloc>
    6758:	465b      	mov	r3, fp
    675a:	3304      	adds	r3, #4
    675c:	009b      	lsls	r3, r3, #2
    675e:	1c01      	adds	r1, r0, #0
    6760:	18c3      	adds	r3, r0, r3
    6762:	3304      	adds	r3, #4
    6764:	3114      	adds	r1, #20
    6766:	9000      	str	r0, [sp, #0]
    6768:	9301      	str	r3, [sp, #4]
    676a:	4299      	cmp	r1, r3
    676c:	d205      	bcs.n	677a <__multiply+0x56>
    676e:	1c0b      	adds	r3, r1, #0
    6770:	2200      	movs	r2, #0
    6772:	c304      	stmia	r3!, {r2}
    6774:	9801      	ldr	r0, [sp, #4]
    6776:	4298      	cmp	r0, r3
    6778:	d8fb      	bhi.n	6772 <__multiply+0x4e>
    677a:	1d2b      	adds	r3, r5, #4
    677c:	009b      	lsls	r3, r3, #2
    677e:	18e3      	adds	r3, r4, r3
    6780:	3304      	adds	r3, #4
    6782:	469a      	mov	sl, r3
    6784:	2314      	movs	r3, #20
    6786:	19db      	adds	r3, r3, r7
    6788:	4698      	mov	r8, r3
    678a:	1d33      	adds	r3, r6, #4
    678c:	009b      	lsls	r3, r3, #2
    678e:	1c22      	adds	r2, r4, #0
    6790:	18fb      	adds	r3, r7, r3
    6792:	3214      	adds	r2, #20
    6794:	3304      	adds	r3, #4
    6796:	9203      	str	r2, [sp, #12]
    6798:	9302      	str	r3, [sp, #8]
    679a:	4598      	cmp	r8, r3
    679c:	d250      	bcs.n	6840 <__multiply+0x11c>
    679e:	4c38      	ldr	r4, [pc, #224]	(6880 <__multiply+0x15c>)
    67a0:	4689      	mov	r9, r1
    67a2:	46a4      	mov	ip, r4
    67a4:	4640      	mov	r0, r8
    67a6:	6803      	ldr	r3, [r0, #0]
    67a8:	4667      	mov	r7, ip
    67aa:	401f      	ands	r7, r3
    67ac:	d01e      	beq.n	67ec <__multiply+0xc8>
    67ae:	9e03      	ldr	r6, [sp, #12]
    67b0:	464d      	mov	r5, r9
    67b2:	2400      	movs	r4, #0
    67b4:	ce02      	ldmia	r6!, {r1}
    67b6:	4663      	mov	r3, ip
    67b8:	400b      	ands	r3, r1
    67ba:	1c3a      	adds	r2, r7, #0
    67bc:	435a      	muls	r2, r3
    67be:	6828      	ldr	r0, [r5, #0]
    67c0:	4663      	mov	r3, ip
    67c2:	4003      	ands	r3, r0
    67c4:	0c09      	lsrs	r1, r1, #16
    67c6:	18d2      	adds	r2, r2, r3
    67c8:	1c3b      	adds	r3, r7, #0
    67ca:	434b      	muls	r3, r1
    67cc:	1912      	adds	r2, r2, r4
    67ce:	0c00      	lsrs	r0, r0, #16
    67d0:	0c11      	lsrs	r1, r2, #16
    67d2:	181b      	adds	r3, r3, r0
    67d4:	185b      	adds	r3, r3, r1
    67d6:	4661      	mov	r1, ip
    67d8:	0c1c      	lsrs	r4, r3, #16
    67da:	400a      	ands	r2, r1
    67dc:	041b      	lsls	r3, r3, #16
    67de:	4313      	orrs	r3, r2
    67e0:	c508      	stmia	r5!, {r3}
    67e2:	45b2      	cmp	sl, r6
    67e4:	d8e6      	bhi.n	67b4 <__multiply+0x90>
    67e6:	602c      	str	r4, [r5, #0]
    67e8:	4642      	mov	r2, r8
    67ea:	6813      	ldr	r3, [r2, #0]
    67ec:	0c1f      	lsrs	r7, r3, #16
    67ee:	2f00      	cmp	r7, #0
    67f0:	d01f      	beq.n	6832 <__multiply+0x10e>
    67f2:	464b      	mov	r3, r9
    67f4:	681c      	ldr	r4, [r3, #0]
    67f6:	9803      	ldr	r0, [sp, #12]
    67f8:	464e      	mov	r6, r9
    67fa:	1c22      	adds	r2, r4, #0
    67fc:	2500      	movs	r5, #0
    67fe:	6803      	ldr	r3, [r0, #0]
    6800:	4661      	mov	r1, ip
    6802:	400b      	ands	r3, r1
    6804:	1c19      	adds	r1, r3, #0
    6806:	4379      	muls	r1, r7
    6808:	0c23      	lsrs	r3, r4, #16
    680a:	1869      	adds	r1, r5, r1
    680c:	18c9      	adds	r1, r1, r3
    680e:	4664      	mov	r4, ip
    6810:	4022      	ands	r2, r4
    6812:	040b      	lsls	r3, r1, #16
    6814:	4313      	orrs	r3, r2
    6816:	c608      	stmia	r6!, {r3}
    6818:	c808      	ldmia	r0!, {r3}
    681a:	0c1b      	lsrs	r3, r3, #16
    681c:	437b      	muls	r3, r7
    681e:	6834      	ldr	r4, [r6, #0]
    6820:	4662      	mov	r2, ip
    6822:	4022      	ands	r2, r4
    6824:	189b      	adds	r3, r3, r2
    6826:	0c09      	lsrs	r1, r1, #16
    6828:	185a      	adds	r2, r3, r1
    682a:	0c15      	lsrs	r5, r2, #16
    682c:	4582      	cmp	sl, r0
    682e:	d8e6      	bhi.n	67fe <__multiply+0xda>
    6830:	6032      	str	r2, [r6, #0]
    6832:	2004      	movs	r0, #4
    6834:	9902      	ldr	r1, [sp, #8]
    6836:	4480      	add	r8, r0
    6838:	4541      	cmp	r1, r8
    683a:	d901      	bls.n	6840 <__multiply+0x11c>
    683c:	4481      	add	r9, r0
    683e:	e7b1      	b.n	67a4 <__multiply+0x80>
    6840:	465a      	mov	r2, fp
    6842:	2a00      	cmp	r2, #0
    6844:	dd0b      	ble.n	685e <__multiply+0x13a>
    6846:	9a01      	ldr	r2, [sp, #4]
    6848:	e005      	b.n	6856 <__multiply+0x132>
    684a:	2301      	movs	r3, #1
    684c:	425b      	negs	r3, r3
    684e:	449b      	add	fp, r3
    6850:	465c      	mov	r4, fp
    6852:	2c00      	cmp	r4, #0
    6854:	d003      	beq.n	685e <__multiply+0x13a>
    6856:	3a04      	subs	r2, #4
    6858:	6813      	ldr	r3, [r2, #0]
    685a:	2b00      	cmp	r3, #0
    685c:	d0f5      	beq.n	684a <__multiply+0x126>
    685e:	9900      	ldr	r1, [sp, #0]
    6860:	4658      	mov	r0, fp
    6862:	b005      	add	sp, #20
    6864:	6108      	str	r0, [r1, #16]
    6866:	1c08      	adds	r0, r1, #0
    6868:	bc3c      	pop	{r2, r3, r4, r5}
    686a:	4690      	mov	r8, r2
    686c:	4699      	mov	r9, r3
    686e:	46a2      	mov	sl, r4
    6870:	46ab      	mov	fp, r5
    6872:	bcf0      	pop	{r4, r5, r6, r7}
    6874:	bc02      	pop	{r1}
    6876:	4708      	bx	r1
    6878:	1c0f      	adds	r7, r1, #0
    687a:	1c14      	adds	r4, r2, #0
    687c:	e763      	b.n	6746 <__multiply+0x22>
    687e:	46c0      	nop			(mov r8, r8)
    6880:	0000ffff 	.word	0x0000ffff

00006884 <__i2b>:
    6884:	b510      	push	{r4, lr}
    6886:	1c0c      	adds	r4, r1, #0
    6888:	2101      	movs	r1, #1
    688a:	f7ff fdc7 	bl	641c <_Balloc>
    688e:	2301      	movs	r3, #1
    6890:	6144      	str	r4, [r0, #20]
    6892:	6103      	str	r3, [r0, #16]
    6894:	bc10      	pop	{r4}
    6896:	bc02      	pop	{r1}
    6898:	4708      	bx	r1
    689a:	46c0      	nop			(mov r8, r8)

0000689c <__multadd>:
    689c:	b5f0      	push	{r4, r5, r6, r7, lr}
    689e:	4657      	mov	r7, sl
    68a0:	464e      	mov	r6, r9
    68a2:	4645      	mov	r5, r8
    68a4:	b4e0      	push	{r5, r6, r7}
    68a6:	4682      	mov	sl, r0
    68a8:	4689      	mov	r9, r1
    68aa:	6908      	ldr	r0, [r1, #16]
    68ac:	464c      	mov	r4, r9
    68ae:	4f24      	ldr	r7, [pc, #144]	(6940 <__multadd+0xa4>)
    68b0:	4680      	mov	r8, r0
    68b2:	1c16      	adds	r6, r2, #0
    68b4:	1c1d      	adds	r5, r3, #0
    68b6:	3414      	adds	r4, #20
    68b8:	2000      	movs	r0, #0
    68ba:	6822      	ldr	r2, [r4, #0]
    68bc:	1c13      	adds	r3, r2, #0
    68be:	403b      	ands	r3, r7
    68c0:	1c19      	adds	r1, r3, #0
    68c2:	4371      	muls	r1, r6
    68c4:	0c12      	lsrs	r2, r2, #16
    68c6:	4372      	muls	r2, r6
    68c8:	1869      	adds	r1, r5, r1
    68ca:	0c0b      	lsrs	r3, r1, #16
    68cc:	189b      	adds	r3, r3, r2
    68ce:	0c1d      	lsrs	r5, r3, #16
    68d0:	4039      	ands	r1, r7
    68d2:	041b      	lsls	r3, r3, #16
    68d4:	185b      	adds	r3, r3, r1
    68d6:	3001      	adds	r0, #1
    68d8:	c408      	stmia	r4!, {r3}
    68da:	4580      	cmp	r8, r0
    68dc:	dced      	bgt.n	68ba <__multadd+0x1e>
    68de:	2d00      	cmp	r5, #0
    68e0:	d00c      	beq.n	68fc <__multadd+0x60>
    68e2:	464a      	mov	r2, r9
    68e4:	6893      	ldr	r3, [r2, #8]
    68e6:	4598      	cmp	r8, r3
    68e8:	da10      	bge.n	690c <__multadd+0x70>
    68ea:	4643      	mov	r3, r8
    68ec:	3304      	adds	r3, #4
    68ee:	009b      	lsls	r3, r3, #2
    68f0:	444b      	add	r3, r9
    68f2:	605d      	str	r5, [r3, #4]
    68f4:	4643      	mov	r3, r8
    68f6:	3301      	adds	r3, #1
    68f8:	4648      	mov	r0, r9
    68fa:	6103      	str	r3, [r0, #16]
    68fc:	4648      	mov	r0, r9
    68fe:	bc1c      	pop	{r2, r3, r4}
    6900:	4690      	mov	r8, r2
    6902:	4699      	mov	r9, r3
    6904:	46a2      	mov	sl, r4
    6906:	bcf0      	pop	{r4, r5, r6, r7}
    6908:	bc02      	pop	{r1}
    690a:	4708      	bx	r1
    690c:	6851      	ldr	r1, [r2, #4]
    690e:	4650      	mov	r0, sl
    6910:	3101      	adds	r1, #1
    6912:	f7ff fd83 	bl	641c <_Balloc>
    6916:	464b      	mov	r3, r9
    6918:	691a      	ldr	r2, [r3, #16]
    691a:	4649      	mov	r1, r9
    691c:	3202      	adds	r2, #2
    691e:	1c04      	adds	r4, r0, #0
    6920:	310c      	adds	r1, #12
    6922:	0092      	lsls	r2, r2, #2
    6924:	300c      	adds	r0, #12
    6926:	f7fc fb7b 	bl	3020 <memcpy>
    692a:	4648      	mov	r0, r9
    692c:	4652      	mov	r2, sl
    692e:	6843      	ldr	r3, [r0, #4]
    6930:	6cd1      	ldr	r1, [r2, #76]
    6932:	009b      	lsls	r3, r3, #2
    6934:	585a      	ldr	r2, [r3, r1]
    6936:	46a1      	mov	r9, r4
    6938:	6002      	str	r2, [r0, #0]
    693a:	5058      	str	r0, [r3, r1]
    693c:	e7d5      	b.n	68ea <__multadd+0x4e>
    693e:	46c0      	nop			(mov r8, r8)
    6940:	0000ffff 	.word	0x0000ffff

00006944 <__pow5mult>:
    6944:	b5f8      	push	{r3, r4, r5, r6, r7, lr}
    6946:	464f      	mov	r7, r9
    6948:	4646      	mov	r6, r8
    694a:	b4c0      	push	{r6, r7}
    694c:	2303      	movs	r3, #3
    694e:	4680      	mov	r8, r0
    6950:	1c0f      	adds	r7, r1, #0
    6952:	1c14      	adds	r4, r2, #0
    6954:	401a      	ands	r2, r3
    6956:	d138      	bne.n	69ca <__pow5mult+0x86>
    6958:	10a6      	asrs	r6, r4, #2
    695a:	2e00      	cmp	r6, #0
    695c:	d025      	beq.n	69aa <__pow5mult+0x66>
    695e:	4642      	mov	r2, r8
    6960:	6c95      	ldr	r5, [r2, #72]
    6962:	2d00      	cmp	r5, #0
    6964:	d03b      	beq.n	69de <__pow5mult+0x9a>
    6966:	2201      	movs	r2, #1
    6968:	4691      	mov	r9, r2
    696a:	464b      	mov	r3, r9
    696c:	421e      	tst	r6, r3
    696e:	d10a      	bne.n	6986 <__pow5mult+0x42>
    6970:	1076      	asrs	r6, r6, #1
    6972:	2e00      	cmp	r6, #0
    6974:	d019      	beq.n	69aa <__pow5mult+0x66>
    6976:	682c      	ldr	r4, [r5, #0]
    6978:	2c00      	cmp	r4, #0
    697a:	d01d      	beq.n	69b8 <__pow5mult+0x74>
    697c:	1c20      	adds	r0, r4, #0
    697e:	1c05      	adds	r5, r0, #0
    6980:	464b      	mov	r3, r9
    6982:	421e      	tst	r6, r3
    6984:	d0f4      	beq.n	6970 <__pow5mult+0x2c>
    6986:	4640      	mov	r0, r8
    6988:	1c39      	adds	r1, r7, #0
    698a:	1c2a      	adds	r2, r5, #0
    698c:	f7ff feca 	bl	6724 <__multiply>
    6990:	2f00      	cmp	r7, #0
    6992:	d006      	beq.n	69a2 <__pow5mult+0x5e>
    6994:	4642      	mov	r2, r8
    6996:	687b      	ldr	r3, [r7, #4]
    6998:	6cd1      	ldr	r1, [r2, #76]
    699a:	009b      	lsls	r3, r3, #2
    699c:	585a      	ldr	r2, [r3, r1]
    699e:	603a      	str	r2, [r7, #0]
    69a0:	505f      	str	r7, [r3, r1]
    69a2:	1076      	asrs	r6, r6, #1
    69a4:	1c07      	adds	r7, r0, #0
    69a6:	2e00      	cmp	r6, #0
    69a8:	d1e5      	bne.n	6976 <__pow5mult+0x32>
    69aa:	1c38      	adds	r0, r7, #0
    69ac:	bc0c      	pop	{r2, r3}
    69ae:	4690      	mov	r8, r2
    69b0:	4699      	mov	r9, r3
    69b2:	bcf8      	pop	{r3, r4, r5, r6, r7}
    69b4:	bc02      	pop	{r1}
    69b6:	4708      	bx	r1
    69b8:	1c29      	adds	r1, r5, #0
    69ba:	1c2a      	adds	r2, r5, #0
    69bc:	4640      	mov	r0, r8
    69be:	f7ff feb1 	bl	6724 <__multiply>
    69c2:	6028      	str	r0, [r5, #0]
    69c4:	6004      	str	r4, [r0, #0]
    69c6:	1c05      	adds	r5, r0, #0
    69c8:	e7da      	b.n	6980 <__pow5mult+0x3c>
    69ca:	4b0a      	ldr	r3, [pc, #40]	(69f4 <__pow5mult+0xb0>)
    69cc:	3a01      	subs	r2, #1
    69ce:	0092      	lsls	r2, r2, #2
    69d0:	189b      	adds	r3, r3, r2
    69d2:	6c9a      	ldr	r2, [r3, #72]
    69d4:	2300      	movs	r3, #0
    69d6:	f7ff ff61 	bl	689c <__multadd>
    69da:	1c07      	adds	r7, r0, #0
    69dc:	e7bc      	b.n	6958 <__pow5mult+0x14>
    69de:	4640      	mov	r0, r8
    69e0:	4905      	ldr	r1, [pc, #20]	(69f8 <__pow5mult+0xb4>)
    69e2:	f7ff ff4f 	bl	6884 <__i2b>
    69e6:	4643      	mov	r3, r8
    69e8:	6498      	str	r0, [r3, #72]
    69ea:	2300      	movs	r3, #0
    69ec:	1c05      	adds	r5, r0, #0
    69ee:	6003      	str	r3, [r0, #0]
    69f0:	e7b9      	b.n	6966 <__pow5mult+0x22>
    69f2:	46c0      	nop			(mov r8, r8)
    69f4:	00008df8 	.word	0x00008df8
    69f8:	00000271 	.word	0x00000271

000069fc <__s2b>:
    69fc:	b5f8      	push	{r3, r4, r5, r6, r7, lr}
    69fe:	464f      	mov	r7, r9
    6a00:	4646      	mov	r6, r8
    6a02:	b4c0      	push	{r6, r7}
    6a04:	1c07      	adds	r7, r0, #0
    6a06:	1c18      	adds	r0, r3, #0
    6a08:	1c0e      	adds	r6, r1, #0
    6a0a:	3008      	adds	r0, #8
    6a0c:	2109      	movs	r1, #9
    6a0e:	1c15      	adds	r5, r2, #0
    6a10:	4698      	mov	r8, r3
    6a12:	f000 fb29 	bl	7068 <__aeabi_idiv>
    6a16:	2801      	cmp	r0, #1
    6a18:	dd39      	ble.n	6a8e <__s2b+0x92>
    6a1a:	2100      	movs	r1, #0
    6a1c:	2301      	movs	r3, #1
    6a1e:	005b      	lsls	r3, r3, #1
    6a20:	3101      	adds	r1, #1
    6a22:	4298      	cmp	r0, r3
    6a24:	dcfb      	bgt.n	6a1e <__s2b+0x22>
    6a26:	1c38      	adds	r0, r7, #0
    6a28:	f7ff fcf8 	bl	641c <_Balloc>
    6a2c:	9a08      	ldr	r2, [sp, #32]
    6a2e:	2301      	movs	r3, #1
    6a30:	1c01      	adds	r1, r0, #0
    6a32:	6142      	str	r2, [r0, #20]
    6a34:	6103      	str	r3, [r0, #16]
    6a36:	2d09      	cmp	r5, #9
    6a38:	dd26      	ble.n	6a88 <__s2b+0x8c>
    6a3a:	2309      	movs	r3, #9
    6a3c:	199b      	adds	r3, r3, r6
    6a3e:	4699      	mov	r9, r3
    6a40:	2409      	movs	r4, #9
    6a42:	5d33      	ldrb	r3, [r6, r4]
    6a44:	1c38      	adds	r0, r7, #0
    6a46:	3b30      	subs	r3, #48
    6a48:	220a      	movs	r2, #10
    6a4a:	f7ff ff27 	bl	689c <__multadd>
    6a4e:	3401      	adds	r4, #1
    6a50:	1c01      	adds	r1, r0, #0
    6a52:	42a5      	cmp	r5, r4
    6a54:	dcf5      	bgt.n	6a42 <__s2b+0x46>
    6a56:	464a      	mov	r2, r9
    6a58:	1953      	adds	r3, r2, r5
    6a5a:	1c1e      	adds	r6, r3, #0
    6a5c:	3e08      	subs	r6, #8
    6a5e:	45a8      	cmp	r8, r5
    6a60:	dd0b      	ble.n	6a7a <__s2b+0x7e>
    6a62:	2400      	movs	r4, #0
    6a64:	5d33      	ldrb	r3, [r6, r4]
    6a66:	1c38      	adds	r0, r7, #0
    6a68:	3b30      	subs	r3, #48
    6a6a:	220a      	movs	r2, #10
    6a6c:	f7ff ff16 	bl	689c <__multadd>
    6a70:	3401      	adds	r4, #1
    6a72:	1963      	adds	r3, r4, r5
    6a74:	1c01      	adds	r1, r0, #0
    6a76:	4598      	cmp	r8, r3
    6a78:	dcf4      	bgt.n	6a64 <__s2b+0x68>
    6a7a:	1c08      	adds	r0, r1, #0
    6a7c:	bc0c      	pop	{r2, r3}
    6a7e:	4690      	mov	r8, r2
    6a80:	4699      	mov	r9, r3
    6a82:	bcf8      	pop	{r3, r4, r5, r6, r7}
    6a84:	bc02      	pop	{r1}
    6a86:	4708      	bx	r1
    6a88:	360a      	adds	r6, #10
    6a8a:	2509      	movs	r5, #9
    6a8c:	e7e7      	b.n	6a5e <__s2b+0x62>
    6a8e:	2100      	movs	r1, #0
    6a90:	e7c9      	b.n	6a26 <__s2b+0x2a>
    6a92:	46c0      	nop			(mov r8, r8)
    6a94:	46c0      	nop			(mov r8, r8)
    6a96:	46c0      	nop			(mov r8, r8)

00006a98 <_realloc_r>:
    6a98:	b5f0      	push	{r4, r5, r6, r7, lr}
    6a9a:	465f      	mov	r7, fp
    6a9c:	4656      	mov	r6, sl
    6a9e:	464d      	mov	r5, r9
    6aa0:	4644      	mov	r4, r8
    6aa2:	b4f0      	push	{r4, r5, r6, r7}
    6aa4:	b085      	sub	sp, #20
    6aa6:	9000      	str	r0, [sp, #0]
    6aa8:	468a      	mov	sl, r1
    6aaa:	4691      	mov	r9, r2
    6aac:	2900      	cmp	r1, #0
    6aae:	d100      	bne.n	6ab2 <_realloc_r+0x1a>
    6ab0:	e103      	b.n	6cba <_realloc_r+0x222>
    6ab2:	9800      	ldr	r0, [sp, #0]
    6ab4:	f7ff fafa 	bl	60ac <__malloc_lock>
    6ab8:	2008      	movs	r0, #8
    6aba:	4240      	negs	r0, r0
    6abc:	4680      	mov	r8, r0
    6abe:	44d0      	add	r8, sl
    6ac0:	4642      	mov	r2, r8
    6ac2:	6851      	ldr	r1, [r2, #4]
    6ac4:	464a      	mov	r2, r9
    6ac6:	320b      	adds	r2, #11
    6ac8:	1c0d      	adds	r5, r1, #0
    6aca:	2a16      	cmp	r2, #22
    6acc:	d813      	bhi.n	6af6 <_realloc_r+0x5e>
    6ace:	2310      	movs	r3, #16
    6ad0:	469b      	mov	fp, r3
    6ad2:	469c      	mov	ip, r3
    6ad4:	2300      	movs	r3, #0
    6ad6:	45cb      	cmp	fp, r9
    6ad8:	d214      	bcs.n	6b04 <_realloc_r+0x6c>
    6ada:	9d00      	ldr	r5, [sp, #0]
    6adc:	230c      	movs	r3, #12
    6ade:	602b      	str	r3, [r5, #0]
    6ae0:	2400      	movs	r4, #0
    6ae2:	b005      	add	sp, #20
    6ae4:	1c20      	adds	r0, r4, #0
    6ae6:	bc3c      	pop	{r2, r3, r4, r5}
    6ae8:	4690      	mov	r8, r2
    6aea:	4699      	mov	r9, r3
    6aec:	46a2      	mov	sl, r4
    6aee:	46ab      	mov	fp, r5
    6af0:	bcf0      	pop	{r4, r5, r6, r7}
    6af2:	bc02      	pop	{r1}
    6af4:	4708      	bx	r1
    6af6:	2307      	movs	r3, #7
    6af8:	439a      	bics	r2, r3
    6afa:	4693      	mov	fp, r2
    6afc:	4694      	mov	ip, r2
    6afe:	0fd3      	lsrs	r3, r2, #31
    6b00:	45cb      	cmp	fp, r9
    6b02:	d3ea      	bcc.n	6ada <_realloc_r+0x42>
    6b04:	2b00      	cmp	r3, #0
    6b06:	d1e8      	bne.n	6ada <_realloc_r+0x42>
    6b08:	2603      	movs	r6, #3
    6b0a:	1c0f      	adds	r7, r1, #0
    6b0c:	43b7      	bics	r7, r6
    6b0e:	4567      	cmp	r7, ip
    6b10:	da5c      	bge.n	6bcc <_realloc_r+0x134>
    6b12:	4bb1      	ldr	r3, [pc, #708]	(6dd8 <_realloc_r+0x340>)
    6b14:	4642      	mov	r2, r8
    6b16:	689d      	ldr	r5, [r3, #8]
    6b18:	19d0      	adds	r0, r2, r7
    6b1a:	9301      	str	r3, [sp, #4]
    6b1c:	4285      	cmp	r5, r0
    6b1e:	d100      	bne.n	6b22 <_realloc_r+0x8a>
    6b20:	e0d5      	b.n	6cce <_realloc_r+0x236>
    6b22:	6844      	ldr	r4, [r0, #4]
    6b24:	2301      	movs	r3, #1
    6b26:	1c22      	adds	r2, r4, #0
    6b28:	439a      	bics	r2, r3
    6b2a:	1882      	adds	r2, r0, r2
    6b2c:	6852      	ldr	r2, [r2, #4]
    6b2e:	421a      	tst	r2, r3
    6b30:	d073      	beq.n	6c1a <_realloc_r+0x182>
    6b32:	2000      	movs	r0, #0
    6b34:	2400      	movs	r4, #0
    6b36:	07ca      	lsls	r2, r1, #31
    6b38:	d47a      	bmi.n	6c30 <_realloc_r+0x198>
    6b3a:	4641      	mov	r1, r8
    6b3c:	680b      	ldr	r3, [r1, #0]
    6b3e:	1ac9      	subs	r1, r1, r3
    6b40:	684a      	ldr	r2, [r1, #4]
    6b42:	2303      	movs	r3, #3
    6b44:	9103      	str	r1, [sp, #12]
    6b46:	439a      	bics	r2, r3
    6b48:	2800      	cmp	r0, #0
    6b4a:	d100      	bne.n	6b4e <_realloc_r+0xb6>
    6b4c:	e0e9      	b.n	6d22 <_realloc_r+0x28a>
    6b4e:	42a8      	cmp	r0, r5
    6b50:	d100      	bne.n	6b54 <_realloc_r+0xbc>
    6b52:	e0e8      	b.n	6d26 <_realloc_r+0x28e>
    6b54:	19d3      	adds	r3, r2, r7
    6b56:	18e6      	adds	r6, r4, r3
    6b58:	4566      	cmp	r6, ip
    6b5a:	db00      	blt.n	6b5e <_realloc_r+0xc6>
    6b5c:	e0b2      	b.n	6cc4 <_realloc_r+0x22c>
    6b5e:	1c1e      	adds	r6, r3, #0
    6b60:	4566      	cmp	r6, ip
    6b62:	db65      	blt.n	6c30 <_realloc_r+0x198>
    6b64:	9b03      	ldr	r3, [sp, #12]
    6b66:	68da      	ldr	r2, [r3, #12]
    6b68:	689b      	ldr	r3, [r3, #8]
    6b6a:	9803      	ldr	r0, [sp, #12]
    6b6c:	60da      	str	r2, [r3, #12]
    6b6e:	6093      	str	r3, [r2, #8]
    6b70:	1f3a      	subs	r2, r7, #4
    6b72:	3008      	adds	r0, #8
    6b74:	2a24      	cmp	r2, #36
    6b76:	d900      	bls.n	6b7a <_realloc_r+0xe2>
    6b78:	e0cc      	b.n	6d14 <_realloc_r+0x27c>
    6b7a:	4654      	mov	r4, sl
    6b7c:	2a13      	cmp	r2, #19
    6b7e:	d919      	bls.n	6bb4 <_realloc_r+0x11c>
    6b80:	6823      	ldr	r3, [r4, #0]
    6b82:	9d03      	ldr	r5, [sp, #12]
    6b84:	60ab      	str	r3, [r5, #8]
    6b86:	6863      	ldr	r3, [r4, #4]
    6b88:	1d21      	adds	r1, r4, #4
    6b8a:	1c28      	adds	r0, r5, #0
    6b8c:	60eb      	str	r3, [r5, #12]
    6b8e:	3010      	adds	r0, #16
    6b90:	1d0c      	adds	r4, r1, #4
    6b92:	2a1b      	cmp	r2, #27
    6b94:	d90e      	bls.n	6bb4 <_realloc_r+0x11c>
    6b96:	684b      	ldr	r3, [r1, #4]
    6b98:	612b      	str	r3, [r5, #16]
    6b9a:	6863      	ldr	r3, [r4, #4]
    6b9c:	1d21      	adds	r1, r4, #4
    6b9e:	616b      	str	r3, [r5, #20]
    6ba0:	3008      	adds	r0, #8
    6ba2:	1d0c      	adds	r4, r1, #4
    6ba4:	2a24      	cmp	r2, #36
    6ba6:	d105      	bne.n	6bb4 <_realloc_r+0x11c>
    6ba8:	684b      	ldr	r3, [r1, #4]
    6baa:	61ab      	str	r3, [r5, #24]
    6bac:	6863      	ldr	r3, [r4, #4]
    6bae:	61eb      	str	r3, [r5, #28]
    6bb0:	3008      	adds	r0, #8
    6bb2:	3408      	adds	r4, #8
    6bb4:	1c21      	adds	r1, r4, #0
    6bb6:	c908      	ldmia	r1!, {r3}
    6bb8:	1c02      	adds	r2, r0, #0
    6bba:	c208      	stmia	r2!, {r3}
    6bbc:	6863      	ldr	r3, [r4, #4]
    6bbe:	6043      	str	r3, [r0, #4]
    6bc0:	684b      	ldr	r3, [r1, #4]
    6bc2:	9803      	ldr	r0, [sp, #12]
    6bc4:	6053      	str	r3, [r2, #4]
    6bc6:	1c04      	adds	r4, r0, #0
    6bc8:	6845      	ldr	r5, [r0, #4]
    6bca:	e001      	b.n	6bd0 <_realloc_r+0x138>
    6bcc:	4644      	mov	r4, r8
    6bce:	1c3e      	adds	r6, r7, #0
    6bd0:	4659      	mov	r1, fp
    6bd2:	1a70      	subs	r0, r6, r1
    6bd4:	280f      	cmp	r0, #15
    6bd6:	d80d      	bhi.n	6bf4 <_realloc_r+0x15c>
    6bd8:	2101      	movs	r1, #1
    6bda:	1c2b      	adds	r3, r5, #0
    6bdc:	400b      	ands	r3, r1
    6bde:	4333      	orrs	r3, r6
    6be0:	6063      	str	r3, [r4, #4]
    6be2:	19a2      	adds	r2, r4, r6
    6be4:	6853      	ldr	r3, [r2, #4]
    6be6:	430b      	orrs	r3, r1
    6be8:	6053      	str	r3, [r2, #4]
    6bea:	9800      	ldr	r0, [sp, #0]
    6bec:	f7ff fa60 	bl	60b0 <__malloc_unlock>
    6bf0:	3408      	adds	r4, #8
    6bf2:	e776      	b.n	6ae2 <_realloc_r+0x4a>
    6bf4:	2201      	movs	r2, #1
    6bf6:	1c2b      	adds	r3, r5, #0
    6bf8:	4013      	ands	r3, r2
    6bfa:	465d      	mov	r5, fp
    6bfc:	432b      	orrs	r3, r5
    6bfe:	6063      	str	r3, [r4, #4]
    6c00:	1c03      	adds	r3, r0, #0
    6c02:	1861      	adds	r1, r4, r1
    6c04:	4313      	orrs	r3, r2
    6c06:	604b      	str	r3, [r1, #4]
    6c08:	1808      	adds	r0, r1, r0
    6c0a:	6843      	ldr	r3, [r0, #4]
    6c0c:	4313      	orrs	r3, r2
    6c0e:	6043      	str	r3, [r0, #4]
    6c10:	3108      	adds	r1, #8
    6c12:	9800      	ldr	r0, [sp, #0]
    6c14:	f7fe fe2a 	bl	586c <_free_r>
    6c18:	e7e7      	b.n	6bea <_realloc_r+0x152>
    6c1a:	43b4      	bics	r4, r6
    6c1c:	19e6      	adds	r6, r4, r7
    6c1e:	4566      	cmp	r6, ip
    6c20:	db89      	blt.n	6b36 <_realloc_r+0x9e>
    6c22:	68c2      	ldr	r2, [r0, #12]
    6c24:	6883      	ldr	r3, [r0, #8]
    6c26:	1c0d      	adds	r5, r1, #0
    6c28:	60da      	str	r2, [r3, #12]
    6c2a:	6093      	str	r3, [r2, #8]
    6c2c:	4644      	mov	r4, r8
    6c2e:	e7cf      	b.n	6bd0 <_realloc_r+0x138>
    6c30:	9800      	ldr	r0, [sp, #0]
    6c32:	4649      	mov	r1, r9
    6c34:	f7fe ff26 	bl	5a84 <_malloc_r>
    6c38:	1c04      	adds	r4, r0, #0
    6c3a:	2800      	cmp	r0, #0
    6c3c:	d039      	beq.n	6cb2 <_realloc_r+0x21a>
    6c3e:	4643      	mov	r3, r8
    6c40:	685d      	ldr	r5, [r3, #4]
    6c42:	1c02      	adds	r2, r0, #0
    6c44:	2301      	movs	r3, #1
    6c46:	1c28      	adds	r0, r5, #0
    6c48:	4398      	bics	r0, r3
    6c4a:	1c03      	adds	r3, r0, #0
    6c4c:	3a08      	subs	r2, #8
    6c4e:	4443      	add	r3, r8
    6c50:	429a      	cmp	r2, r3
    6c52:	d100      	bne.n	6c56 <_realloc_r+0x1be>
    6c54:	e0b5      	b.n	6dc2 <_realloc_r+0x32a>
    6c56:	1f3a      	subs	r2, r7, #4
    6c58:	2a24      	cmp	r2, #36
    6c5a:	d856      	bhi.n	6d0a <_realloc_r+0x272>
    6c5c:	4650      	mov	r0, sl
    6c5e:	1c25      	adds	r5, r4, #0
    6c60:	2a13      	cmp	r2, #19
    6c62:	d91a      	bls.n	6c9a <_realloc_r+0x202>
    6c64:	4656      	mov	r6, sl
    6c66:	ce08      	ldmia	r6!, {r3}
    6c68:	1c21      	adds	r1, r4, #0
    6c6a:	c108      	stmia	r1!, {r3}
    6c6c:	4655      	mov	r5, sl
    6c6e:	686b      	ldr	r3, [r5, #4]
    6c70:	1d30      	adds	r0, r6, #4
    6c72:	6063      	str	r3, [r4, #4]
    6c74:	1d0d      	adds	r5, r1, #4
    6c76:	2a1b      	cmp	r2, #27
    6c78:	d90f      	bls.n	6c9a <_realloc_r+0x202>
    6c7a:	6873      	ldr	r3, [r6, #4]
    6c7c:	604b      	str	r3, [r1, #4]
    6c7e:	6843      	ldr	r3, [r0, #4]
    6c80:	1d2e      	adds	r6, r5, #4
    6c82:	1d01      	adds	r1, r0, #4
    6c84:	606b      	str	r3, [r5, #4]
    6c86:	1d08      	adds	r0, r1, #4
    6c88:	1d35      	adds	r5, r6, #4
    6c8a:	2a24      	cmp	r2, #36
    6c8c:	d105      	bne.n	6c9a <_realloc_r+0x202>
    6c8e:	684b      	ldr	r3, [r1, #4]
    6c90:	6073      	str	r3, [r6, #4]
    6c92:	6843      	ldr	r3, [r0, #4]
    6c94:	3008      	adds	r0, #8
    6c96:	606b      	str	r3, [r5, #4]
    6c98:	3508      	adds	r5, #8
    6c9a:	1c01      	adds	r1, r0, #0
    6c9c:	c908      	ldmia	r1!, {r3}
    6c9e:	1c2a      	adds	r2, r5, #0
    6ca0:	c208      	stmia	r2!, {r3}
    6ca2:	6843      	ldr	r3, [r0, #4]
    6ca4:	606b      	str	r3, [r5, #4]
    6ca6:	684b      	ldr	r3, [r1, #4]
    6ca8:	6053      	str	r3, [r2, #4]
    6caa:	9800      	ldr	r0, [sp, #0]
    6cac:	4651      	mov	r1, sl
    6cae:	f7fe fddd 	bl	586c <_free_r>
    6cb2:	9800      	ldr	r0, [sp, #0]
    6cb4:	f7ff f9fc 	bl	60b0 <__malloc_unlock>
    6cb8:	e713      	b.n	6ae2 <_realloc_r+0x4a>
    6cba:	1c11      	adds	r1, r2, #0
    6cbc:	f7fe fee2 	bl	5a84 <_malloc_r>
    6cc0:	1c04      	adds	r4, r0, #0
    6cc2:	e70e      	b.n	6ae2 <_realloc_r+0x4a>
    6cc4:	68c2      	ldr	r2, [r0, #12]
    6cc6:	6883      	ldr	r3, [r0, #8]
    6cc8:	60da      	str	r2, [r3, #12]
    6cca:	6093      	str	r3, [r2, #8]
    6ccc:	e74a      	b.n	6b64 <_realloc_r+0xcc>
    6cce:	686b      	ldr	r3, [r5, #4]
    6cd0:	1c1c      	adds	r4, r3, #0
    6cd2:	43b4      	bics	r4, r6
    6cd4:	465b      	mov	r3, fp
    6cd6:	19e2      	adds	r2, r4, r7
    6cd8:	3310      	adds	r3, #16
    6cda:	429a      	cmp	r2, r3
    6cdc:	da01      	bge.n	6ce2 <_realloc_r+0x24a>
    6cde:	1c28      	adds	r0, r5, #0
    6ce0:	e729      	b.n	6b36 <_realloc_r+0x9e>
    6ce2:	465d      	mov	r5, fp
    6ce4:	1b53      	subs	r3, r2, r5
    6ce6:	4641      	mov	r1, r8
    6ce8:	2201      	movs	r2, #1
    6cea:	4459      	add	r1, fp
    6cec:	9801      	ldr	r0, [sp, #4]
    6cee:	4313      	orrs	r3, r2
    6cf0:	604b      	str	r3, [r1, #4]
    6cf2:	6081      	str	r1, [r0, #8]
    6cf4:	4640      	mov	r0, r8
    6cf6:	6843      	ldr	r3, [r0, #4]
    6cf8:	4013      	ands	r3, r2
    6cfa:	432b      	orrs	r3, r5
    6cfc:	6043      	str	r3, [r0, #4]
    6cfe:	4644      	mov	r4, r8
    6d00:	9800      	ldr	r0, [sp, #0]
    6d02:	f7ff f9d5 	bl	60b0 <__malloc_unlock>
    6d06:	3408      	adds	r4, #8
    6d08:	e6eb      	b.n	6ae2 <_realloc_r+0x4a>
    6d0a:	1c20      	adds	r0, r4, #0
    6d0c:	4651      	mov	r1, sl
    6d0e:	f7ff f975 	bl	5ffc <memmove>
    6d12:	e7ca      	b.n	6caa <_realloc_r+0x212>
    6d14:	4651      	mov	r1, sl
    6d16:	f7ff f971 	bl	5ffc <memmove>
    6d1a:	9903      	ldr	r1, [sp, #12]
    6d1c:	684d      	ldr	r5, [r1, #4]
    6d1e:	1c0c      	adds	r4, r1, #0
    6d20:	e756      	b.n	6bd0 <_realloc_r+0x138>
    6d22:	19d6      	adds	r6, r2, r7
    6d24:	e71c      	b.n	6b60 <_realloc_r+0xc8>
    6d26:	19d6      	adds	r6, r2, r7
    6d28:	465b      	mov	r3, fp
    6d2a:	19a4      	adds	r4, r4, r6
    6d2c:	3310      	adds	r3, #16
    6d2e:	9402      	str	r4, [sp, #8]
    6d30:	429c      	cmp	r4, r3
    6d32:	da00      	bge.n	6d36 <_realloc_r+0x29e>
    6d34:	e714      	b.n	6b60 <_realloc_r+0xc8>
    6d36:	68ca      	ldr	r2, [r1, #12]
    6d38:	688b      	ldr	r3, [r1, #8]
    6d3a:	1c0c      	adds	r4, r1, #0
    6d3c:	60da      	str	r2, [r3, #12]
    6d3e:	6093      	str	r3, [r2, #8]
    6d40:	1f3a      	subs	r2, r7, #4
    6d42:	3408      	adds	r4, #8
    6d44:	2a24      	cmp	r2, #36
    6d46:	d842      	bhi.n	6dce <_realloc_r+0x336>
    6d48:	4650      	mov	r0, sl
    6d4a:	1c25      	adds	r5, r4, #0
    6d4c:	2a13      	cmp	r2, #19
    6d4e:	d91c      	bls.n	6d8a <_realloc_r+0x2f2>
    6d50:	6803      	ldr	r3, [r0, #0]
    6d52:	608b      	str	r3, [r1, #8]
    6d54:	9d03      	ldr	r5, [sp, #12]
    6d56:	6843      	ldr	r3, [r0, #4]
    6d58:	1d01      	adds	r1, r0, #4
    6d5a:	60eb      	str	r3, [r5, #12]
    6d5c:	1d08      	adds	r0, r1, #4
    6d5e:	3510      	adds	r5, #16
    6d60:	2a1b      	cmp	r2, #27
    6d62:	d912      	bls.n	6d8a <_realloc_r+0x2f2>
    6d64:	684b      	ldr	r3, [r1, #4]
    6d66:	9903      	ldr	r1, [sp, #12]
    6d68:	610b      	str	r3, [r1, #16]
    6d6a:	9d03      	ldr	r5, [sp, #12]
    6d6c:	6843      	ldr	r3, [r0, #4]
    6d6e:	1d01      	adds	r1, r0, #4
    6d70:	616b      	str	r3, [r5, #20]
    6d72:	1d08      	adds	r0, r1, #4
    6d74:	3518      	adds	r5, #24
    6d76:	2a24      	cmp	r2, #36
    6d78:	d107      	bne.n	6d8a <_realloc_r+0x2f2>
    6d7a:	684b      	ldr	r3, [r1, #4]
    6d7c:	9903      	ldr	r1, [sp, #12]
    6d7e:	618b      	str	r3, [r1, #24]
    6d80:	6843      	ldr	r3, [r0, #4]
    6d82:	1c0d      	adds	r5, r1, #0
    6d84:	61cb      	str	r3, [r1, #28]
    6d86:	3520      	adds	r5, #32
    6d88:	3008      	adds	r0, #8
    6d8a:	1c01      	adds	r1, r0, #0
    6d8c:	c908      	ldmia	r1!, {r3}
    6d8e:	1c2a      	adds	r2, r5, #0
    6d90:	c208      	stmia	r2!, {r3}
    6d92:	6843      	ldr	r3, [r0, #4]
    6d94:	606b      	str	r3, [r5, #4]
    6d96:	684b      	ldr	r3, [r1, #4]
    6d98:	6053      	str	r3, [r2, #4]
    6d9a:	9a03      	ldr	r2, [sp, #12]
    6d9c:	9b01      	ldr	r3, [sp, #4]
    6d9e:	1c11      	adds	r1, r2, #0
    6da0:	9d02      	ldr	r5, [sp, #8]
    6da2:	4459      	add	r1, fp
    6da4:	4658      	mov	r0, fp
    6da6:	2201      	movs	r2, #1
    6da8:	6099      	str	r1, [r3, #8]
    6daa:	1a2b      	subs	r3, r5, r0
    6dac:	4313      	orrs	r3, r2
    6dae:	604b      	str	r3, [r1, #4]
    6db0:	9903      	ldr	r1, [sp, #12]
    6db2:	684b      	ldr	r3, [r1, #4]
    6db4:	4013      	ands	r3, r2
    6db6:	4303      	orrs	r3, r0
    6db8:	604b      	str	r3, [r1, #4]
    6dba:	9800      	ldr	r0, [sp, #0]
    6dbc:	f7ff f978 	bl	60b0 <__malloc_unlock>
    6dc0:	e68f      	b.n	6ae2 <_realloc_r+0x4a>
    6dc2:	6853      	ldr	r3, [r2, #4]
    6dc4:	2203      	movs	r2, #3
    6dc6:	4393      	bics	r3, r2
    6dc8:	19de      	adds	r6, r3, r7
    6dca:	4644      	mov	r4, r8
    6dcc:	e700      	b.n	6bd0 <_realloc_r+0x138>
    6dce:	1c20      	adds	r0, r4, #0
    6dd0:	4651      	mov	r1, sl
    6dd2:	f7ff f913 	bl	5ffc <memmove>
    6dd6:	e7e0      	b.n	6d9a <_realloc_r+0x302>
    6dd8:	10000448 	.word	0x10000448

00006ddc <__isinfd>:
    6ddc:	4242      	negs	r2, r0
    6dde:	4b06      	ldr	r3, [pc, #24]	(6df8 <__isinfd+0x1c>)
    6de0:	4302      	orrs	r2, r0
    6de2:	400b      	ands	r3, r1
    6de4:	0fd2      	lsrs	r2, r2, #31
    6de6:	431a      	orrs	r2, r3
    6de8:	4b04      	ldr	r3, [pc, #16]	(6dfc <__isinfd+0x20>)
    6dea:	1a9b      	subs	r3, r3, r2
    6dec:	4258      	negs	r0, r3
    6dee:	4318      	orrs	r0, r3
    6df0:	17c0      	asrs	r0, r0, #31
    6df2:	3001      	adds	r0, #1
    6df4:	4770      	bx	lr
    6df6:	46c0      	nop			(mov r8, r8)
    6df8:	7fffffff 	.word	0x7fffffff
    6dfc:	7ff00000 	.word	0x7ff00000

00006e00 <__isnand>:
    6e00:	4242      	negs	r2, r0
    6e02:	4b04      	ldr	r3, [pc, #16]	(6e14 <__isnand+0x14>)
    6e04:	4302      	orrs	r2, r0
    6e06:	400b      	ands	r3, r1
    6e08:	0fd2      	lsrs	r2, r2, #31
    6e0a:	4803      	ldr	r0, [pc, #12]	(6e18 <__isnand+0x18>)
    6e0c:	431a      	orrs	r2, r3
    6e0e:	1a80      	subs	r0, r0, r2
    6e10:	0fc0      	lsrs	r0, r0, #31
    6e12:	4770      	bx	lr
    6e14:	7fffffff 	.word	0x7fffffff
    6e18:	7ff00000 	.word	0x7ff00000

00006e1c <_sbrk_r>:
    6e1c:	b570      	push	{r4, r5, r6, lr}
    6e1e:	4c08      	ldr	r4, [pc, #32]	(6e40 <_sbrk_r+0x24>)
    6e20:	2300      	movs	r3, #0
    6e22:	1c05      	adds	r5, r0, #0
    6e24:	6023      	str	r3, [r4, #0]
    6e26:	1c08      	adds	r0, r1, #0
    6e28:	f7fc f8c2 	bl	2fb0 <_sbrk>
    6e2c:	1c43      	adds	r3, r0, #1
    6e2e:	d002      	beq.n	6e36 <_sbrk_r+0x1a>
    6e30:	bc70      	pop	{r4, r5, r6}
    6e32:	bc02      	pop	{r1}
    6e34:	4708      	bx	r1
    6e36:	6823      	ldr	r3, [r4, #0]
    6e38:	2b00      	cmp	r3, #0
    6e3a:	d0f9      	beq.n	6e30 <_sbrk_r+0x14>
    6e3c:	602b      	str	r3, [r5, #0]
    6e3e:	e7f7      	b.n	6e30 <_sbrk_r+0x14>
    6e40:	10000c70 	.word	0x10000c70

00006e44 <strcmp>:
    6e44:	7802      	ldrb	r2, [r0, #0]
    6e46:	780b      	ldrb	r3, [r1, #0]
    6e48:	3001      	adds	r0, #1
    6e4a:	3101      	adds	r1, #1
    6e4c:	2a00      	cmp	r2, #0
    6e4e:	d001      	beq.n	6e54 <strcmp+0x10>
    6e50:	429a      	cmp	r2, r3
    6e52:	d0f7      	beq.n	6e44 <strcmp>
    6e54:	1ad0      	subs	r0, r2, r3
    6e56:	4770      	bx	lr

00006e58 <strlen>:
    6e58:	2200      	movs	r2, #0
    6e5a:	5c83      	ldrb	r3, [r0, r2]
    6e5c:	3201      	adds	r2, #1
    6e5e:	2b00      	cmp	r3, #0
    6e60:	d1fb      	bne.n	6e5a <strlen+0x2>
    6e62:	1c10      	adds	r0, r2, #0
    6e64:	3801      	subs	r0, #1
    6e66:	4770      	bx	lr

00006e68 <_calloc_r>:
    6e68:	b510      	push	{r4, lr}
    6e6a:	4351      	muls	r1, r2
    6e6c:	f7fe fe0a 	bl	5a84 <_malloc_r>
    6e70:	1c04      	adds	r4, r0, #0
    6e72:	2800      	cmp	r0, #0
    6e74:	d01e      	beq.n	6eb4 <_calloc_r+0x4c>
    6e76:	1c03      	adds	r3, r0, #0
    6e78:	3b08      	subs	r3, #8
    6e7a:	685b      	ldr	r3, [r3, #4]
    6e7c:	2203      	movs	r2, #3
    6e7e:	4393      	bics	r3, r2
    6e80:	1f1a      	subs	r2, r3, #4
    6e82:	2a24      	cmp	r2, #36
    6e84:	d81a      	bhi.n	6ebc <_calloc_r+0x54>
    6e86:	1c01      	adds	r1, r0, #0
    6e88:	2a13      	cmp	r2, #19
    6e8a:	d90e      	bls.n	6eaa <_calloc_r+0x42>
    6e8c:	2300      	movs	r3, #0
    6e8e:	c008      	stmia	r0!, {r3}
    6e90:	6063      	str	r3, [r4, #4]
    6e92:	1d01      	adds	r1, r0, #4
    6e94:	2a1b      	cmp	r2, #27
    6e96:	d908      	bls.n	6eaa <_calloc_r+0x42>
    6e98:	6043      	str	r3, [r0, #4]
    6e9a:	1d08      	adds	r0, r1, #4
    6e9c:	604b      	str	r3, [r1, #4]
    6e9e:	1d01      	adds	r1, r0, #4
    6ea0:	2a24      	cmp	r2, #36
    6ea2:	d102      	bne.n	6eaa <_calloc_r+0x42>
    6ea4:	6043      	str	r3, [r0, #4]
    6ea6:	604b      	str	r3, [r1, #4]
    6ea8:	3108      	adds	r1, #8
    6eaa:	2200      	movs	r2, #0
    6eac:	1c0b      	adds	r3, r1, #0
    6eae:	c304      	stmia	r3!, {r2}
    6eb0:	604a      	str	r2, [r1, #4]
    6eb2:	605a      	str	r2, [r3, #4]
    6eb4:	1c20      	adds	r0, r4, #0
    6eb6:	bc10      	pop	{r4}
    6eb8:	bc02      	pop	{r1}
    6eba:	4708      	bx	r1
    6ebc:	2100      	movs	r1, #0
    6ebe:	f7fc f94b 	bl	3158 <memset>
    6ec2:	e7f7      	b.n	6eb4 <_calloc_r+0x4c>

00006ec4 <_wrapup_reent>:
    6ec4:	b5f8      	push	{r3, r4, r5, r6, r7, lr}
    6ec6:	1c07      	adds	r7, r0, #0
    6ec8:	2800      	cmp	r0, #0
    6eca:	d01c      	beq.n	6f06 <_wrapup_reent+0x42>
    6ecc:	23a4      	movs	r3, #164
    6ece:	005b      	lsls	r3, r3, #1
    6ed0:	58fe      	ldr	r6, [r7, r3]
    6ed2:	2e00      	cmp	r6, #0
    6ed4:	d00e      	beq.n	6ef4 <_wrapup_reent+0x30>
    6ed6:	6873      	ldr	r3, [r6, #4]
    6ed8:	1e5d      	subs	r5, r3, #1
    6eda:	d408      	bmi.n	6eee <_wrapup_reent+0x2a>
    6edc:	3301      	adds	r3, #1
    6ede:	009b      	lsls	r3, r3, #2
    6ee0:	18f4      	adds	r4, r6, r3
    6ee2:	6823      	ldr	r3, [r4, #0]
    6ee4:	f000 f874 	bl	6fd0 <_reclaim_reent+0xa0>
    6ee8:	3c04      	subs	r4, #4
    6eea:	3d01      	subs	r5, #1
    6eec:	d5f9      	bpl.n	6ee2 <_wrapup_reent+0x1e>
    6eee:	6836      	ldr	r6, [r6, #0]
    6ef0:	2e00      	cmp	r6, #0
    6ef2:	d1f0      	bne.n	6ed6 <_wrapup_reent+0x12>
    6ef4:	6bfb      	ldr	r3, [r7, #60]
    6ef6:	2b00      	cmp	r3, #0
    6ef8:	d002      	beq.n	6f00 <_wrapup_reent+0x3c>
    6efa:	1c38      	adds	r0, r7, #0
    6efc:	f000 f868 	bl	6fd0 <_reclaim_reent+0xa0>
    6f00:	bcf8      	pop	{r3, r4, r5, r6, r7}
    6f02:	bc01      	pop	{r0}
    6f04:	4700      	bx	r0
    6f06:	4b01      	ldr	r3, [pc, #4]	(6f0c <_wrapup_reent+0x48>)
    6f08:	681f      	ldr	r7, [r3, #0]
    6f0a:	e7df      	b.n	6ecc <_wrapup_reent+0x8>
    6f0c:	10000008 	.word	0x10000008

00006f10 <cleanup_glue>:
    6f10:	b570      	push	{r4, r5, r6, lr}
    6f12:	1c0c      	adds	r4, r1, #0
    6f14:	6809      	ldr	r1, [r1, #0]
    6f16:	1c05      	adds	r5, r0, #0
    6f18:	2900      	cmp	r1, #0
    6f1a:	d001      	beq.n	6f20 <cleanup_glue+0x10>
    6f1c:	f7ff fff8 	bl	6f10 <cleanup_glue>
    6f20:	1c28      	adds	r0, r5, #0
    6f22:	1c21      	adds	r1, r4, #0
    6f24:	f7fe fca2 	bl	586c <_free_r>
    6f28:	bc70      	pop	{r4, r5, r6}
    6f2a:	bc01      	pop	{r0}
    6f2c:	4700      	bx	r0
    6f2e:	46c0      	nop			(mov r8, r8)

00006f30 <_reclaim_reent>:
    6f30:	b570      	push	{r4, r5, r6, lr}
    6f32:	4b26      	ldr	r3, [pc, #152]	(6fcc <_reclaim_reent+0x9c>)
    6f34:	681b      	ldr	r3, [r3, #0]
    6f36:	1c05      	adds	r5, r0, #0
    6f38:	4298      	cmp	r0, r3
    6f3a:	d037      	beq.n	6fac <_reclaim_reent+0x7c>
    6f3c:	6cc3      	ldr	r3, [r0, #76]
    6f3e:	2b00      	cmp	r3, #0
    6f40:	d013      	beq.n	6f6a <_reclaim_reent+0x3a>
    6f42:	2600      	movs	r6, #0
    6f44:	5999      	ldr	r1, [r3, r6]
    6f46:	2900      	cmp	r1, #0
    6f48:	d101      	bne.n	6f4e <_reclaim_reent+0x1e>
    6f4a:	e007      	b.n	6f5c <_reclaim_reent+0x2c>
    6f4c:	1c21      	adds	r1, r4, #0
    6f4e:	680c      	ldr	r4, [r1, #0]
    6f50:	1c28      	adds	r0, r5, #0
    6f52:	f7fe fc8b 	bl	586c <_free_r>
    6f56:	2c00      	cmp	r4, #0
    6f58:	d1f8      	bne.n	6f4c <_reclaim_reent+0x1c>
    6f5a:	6ceb      	ldr	r3, [r5, #76]
    6f5c:	3604      	adds	r6, #4
    6f5e:	2e3c      	cmp	r6, #60
    6f60:	d1f0      	bne.n	6f44 <_reclaim_reent+0x14>
    6f62:	1c28      	adds	r0, r5, #0
    6f64:	1c19      	adds	r1, r3, #0
    6f66:	f7fe fc81 	bl	586c <_free_r>
    6f6a:	6c29      	ldr	r1, [r5, #64]
    6f6c:	2900      	cmp	r1, #0
    6f6e:	d002      	beq.n	6f76 <_reclaim_reent+0x46>
    6f70:	1c28      	adds	r0, r5, #0
    6f72:	f7fe fc7b 	bl	586c <_free_r>
    6f76:	23a4      	movs	r3, #164
    6f78:	005b      	lsls	r3, r3, #1
    6f7a:	58e9      	ldr	r1, [r5, r3]
    6f7c:	2900      	cmp	r1, #0
    6f7e:	d00c      	beq.n	6f9a <_reclaim_reent+0x6a>
    6f80:	23a6      	movs	r3, #166
    6f82:	005b      	lsls	r3, r3, #1
    6f84:	18ee      	adds	r6, r5, r3
    6f86:	42b1      	cmp	r1, r6
    6f88:	d101      	bne.n	6f8e <_reclaim_reent+0x5e>
    6f8a:	e006      	b.n	6f9a <_reclaim_reent+0x6a>
    6f8c:	1c21      	adds	r1, r4, #0
    6f8e:	680c      	ldr	r4, [r1, #0]
    6f90:	1c28      	adds	r0, r5, #0
    6f92:	f7fe fc6b 	bl	586c <_free_r>
    6f96:	42a6      	cmp	r6, r4
    6f98:	d1f8      	bne.n	6f8c <_reclaim_reent+0x5c>
    6f9a:	6d69      	ldr	r1, [r5, #84]
    6f9c:	2900      	cmp	r1, #0
    6f9e:	d002      	beq.n	6fa6 <_reclaim_reent+0x76>
    6fa0:	1c28      	adds	r0, r5, #0
    6fa2:	f7fe fc63 	bl	586c <_free_r>
    6fa6:	6bab      	ldr	r3, [r5, #56]
    6fa8:	2b00      	cmp	r3, #0
    6faa:	d102      	bne.n	6fb2 <_reclaim_reent+0x82>
    6fac:	bc70      	pop	{r4, r5, r6}
    6fae:	bc01      	pop	{r0}
    6fb0:	4700      	bx	r0
    6fb2:	6beb      	ldr	r3, [r5, #60]
    6fb4:	1c28      	adds	r0, r5, #0
    6fb6:	f000 f80b 	bl	6fd0 <_reclaim_reent+0xa0>
    6fba:	23b8      	movs	r3, #184
    6fbc:	009b      	lsls	r3, r3, #2
    6fbe:	58e9      	ldr	r1, [r5, r3]
    6fc0:	2900      	cmp	r1, #0
    6fc2:	d0f3      	beq.n	6fac <_reclaim_reent+0x7c>
    6fc4:	1c28      	adds	r0, r5, #0
    6fc6:	f7ff ffa3 	bl	6f10 <cleanup_glue>
    6fca:	e7ef      	b.n	6fac <_reclaim_reent+0x7c>
    6fcc:	10000008 	.word	0x10000008
    6fd0:	4718      	bx	r3
    6fd2:	46c0      	nop			(mov r8, r8)

00006fd4 <__aeabi_uidiv>:
    6fd4:	2900      	cmp	r1, #0
    6fd6:	d034      	beq.n	7042 <.udivsi3_nodiv0+0x6a>

00006fd8 <.udivsi3_nodiv0>:
    6fd8:	2301      	movs	r3, #1
    6fda:	2200      	movs	r2, #0
    6fdc:	b410      	push	{r4}
    6fde:	4288      	cmp	r0, r1
    6fe0:	d32c      	bcc.n	703c <.udivsi3_nodiv0+0x64>
    6fe2:	2401      	movs	r4, #1
    6fe4:	0724      	lsls	r4, r4, #28
    6fe6:	42a1      	cmp	r1, r4
    6fe8:	d204      	bcs.n	6ff4 <.udivsi3_nodiv0+0x1c>
    6fea:	4281      	cmp	r1, r0
    6fec:	d202      	bcs.n	6ff4 <.udivsi3_nodiv0+0x1c>
    6fee:	0109      	lsls	r1, r1, #4
    6ff0:	011b      	lsls	r3, r3, #4
    6ff2:	e7f8      	b.n	6fe6 <.udivsi3_nodiv0+0xe>
    6ff4:	00e4      	lsls	r4, r4, #3
    6ff6:	42a1      	cmp	r1, r4
    6ff8:	d204      	bcs.n	7004 <.udivsi3_nodiv0+0x2c>
    6ffa:	4281      	cmp	r1, r0
    6ffc:	d202      	bcs.n	7004 <.udivsi3_nodiv0+0x2c>
    6ffe:	0049      	lsls	r1, r1, #1
    7000:	005b      	lsls	r3, r3, #1
    7002:	e7f8      	b.n	6ff6 <.udivsi3_nodiv0+0x1e>
    7004:	4288      	cmp	r0, r1
    7006:	d301      	bcc.n	700c <.udivsi3_nodiv0+0x34>
    7008:	1a40      	subs	r0, r0, r1
    700a:	431a      	orrs	r2, r3
    700c:	084c      	lsrs	r4, r1, #1
    700e:	42a0      	cmp	r0, r4
    7010:	d302      	bcc.n	7018 <.udivsi3_nodiv0+0x40>
    7012:	1b00      	subs	r0, r0, r4
    7014:	085c      	lsrs	r4, r3, #1
    7016:	4322      	orrs	r2, r4
    7018:	088c      	lsrs	r4, r1, #2
    701a:	42a0      	cmp	r0, r4
    701c:	d302      	bcc.n	7024 <.udivsi3_nodiv0+0x4c>
    701e:	1b00      	subs	r0, r0, r4
    7020:	089c      	lsrs	r4, r3, #2
    7022:	4322      	orrs	r2, r4
    7024:	08cc      	lsrs	r4, r1, #3
    7026:	42a0      	cmp	r0, r4
    7028:	d302      	bcc.n	7030 <.udivsi3_nodiv0+0x58>
    702a:	1b00      	subs	r0, r0, r4
    702c:	08dc      	lsrs	r4, r3, #3
    702e:	4322      	orrs	r2, r4
    7030:	2800      	cmp	r0, #0
    7032:	d003      	beq.n	703c <.udivsi3_nodiv0+0x64>
    7034:	091b      	lsrs	r3, r3, #4
    7036:	d001      	beq.n	703c <.udivsi3_nodiv0+0x64>
    7038:	0909      	lsrs	r1, r1, #4
    703a:	e7e3      	b.n	7004 <.udivsi3_nodiv0+0x2c>
    703c:	1c10      	adds	r0, r2, #0
    703e:	bc10      	pop	{r4}
    7040:	4770      	bx	lr
    7042:	46c0      	nop			(mov r8, r8)
    7044:	4778      	bx	pc
    7046:	46c0      	nop			(mov r8, r8)
    7048:	e3500000 	cmp	r0, #0	; 0x0
    704c:	13e00000 	mvnne	r0, #0	; 0x0
    7050:	ea000524 	b	84e8 <____aeabi_idiv0_from_arm>

00007054 <__aeabi_uidivmod>:
    7054:	2900      	cmp	r1, #0
    7056:	d0f4      	beq.n	7042 <.udivsi3_nodiv0+0x6a>
    7058:	b503      	push	{r0, r1, lr}
    705a:	f7ff ffbd 	bl	6fd8 <.udivsi3_nodiv0>
    705e:	bc0e      	pop	{r1, r2, r3}
    7060:	4342      	muls	r2, r0
    7062:	1a89      	subs	r1, r1, r2
    7064:	4718      	bx	r3
    7066:	46c0      	nop			(mov r8, r8)

00007068 <__aeabi_idiv>:
    7068:	2900      	cmp	r1, #0
    706a:	d041      	beq.n	70f0 <.divsi3_nodiv0+0x84>

0000706c <.divsi3_nodiv0>:
    706c:	b410      	push	{r4}
    706e:	1c04      	adds	r4, r0, #0
    7070:	404c      	eors	r4, r1
    7072:	46a4      	mov	ip, r4
    7074:	2301      	movs	r3, #1
    7076:	2200      	movs	r2, #0
    7078:	2900      	cmp	r1, #0
    707a:	d500      	bpl.n	707e <.divsi3_nodiv0+0x12>
    707c:	4249      	negs	r1, r1
    707e:	2800      	cmp	r0, #0
    7080:	d500      	bpl.n	7084 <.divsi3_nodiv0+0x18>
    7082:	4240      	negs	r0, r0
    7084:	4288      	cmp	r0, r1
    7086:	d32c      	bcc.n	70e2 <.divsi3_nodiv0+0x76>
    7088:	2401      	movs	r4, #1
    708a:	0724      	lsls	r4, r4, #28
    708c:	42a1      	cmp	r1, r4
    708e:	d204      	bcs.n	709a <.divsi3_nodiv0+0x2e>
    7090:	4281      	cmp	r1, r0
    7092:	d202      	bcs.n	709a <.divsi3_nodiv0+0x2e>
    7094:	0109      	lsls	r1, r1, #4
    7096:	011b      	lsls	r3, r3, #4
    7098:	e7f8      	b.n	708c <.divsi3_nodiv0+0x20>
    709a:	00e4      	lsls	r4, r4, #3
    709c:	42a1      	cmp	r1, r4
    709e:	d204      	bcs.n	70aa <.divsi3_nodiv0+0x3e>
    70a0:	4281      	cmp	r1, r0
    70a2:	d202      	bcs.n	70aa <.divsi3_nodiv0+0x3e>
    70a4:	0049      	lsls	r1, r1, #1
    70a6:	005b      	lsls	r3, r3, #1
    70a8:	e7f8      	b.n	709c <.divsi3_nodiv0+0x30>
    70aa:	4288      	cmp	r0, r1
    70ac:	d301      	bcc.n	70b2 <.divsi3_nodiv0+0x46>
    70ae:	1a40      	subs	r0, r0, r1
    70b0:	431a      	orrs	r2, r3
    70b2:	084c      	lsrs	r4, r1, #1
    70b4:	42a0      	cmp	r0, r4
    70b6:	d302      	bcc.n	70be <.divsi3_nodiv0+0x52>
    70b8:	1b00      	subs	r0, r0, r4
    70ba:	085c      	lsrs	r4, r3, #1
    70bc:	4322      	orrs	r2, r4
    70be:	088c      	lsrs	r4, r1, #2
    70c0:	42a0      	cmp	r0, r4
    70c2:	d302      	bcc.n	70ca <.divsi3_nodiv0+0x5e>
    70c4:	1b00      	subs	r0, r0, r4
    70c6:	089c      	lsrs	r4, r3, #2
    70c8:	4322      	orrs	r2, r4
    70ca:	08cc      	lsrs	r4, r1, #3
    70cc:	42a0      	cmp	r0, r4
    70ce:	d302      	bcc.n	70d6 <.divsi3_nodiv0+0x6a>
    70d0:	1b00      	subs	r0, r0, r4
    70d2:	08dc      	lsrs	r4, r3, #3
    70d4:	4322      	orrs	r2, r4
    70d6:	2800      	cmp	r0, #0
    70d8:	d003      	beq.n	70e2 <.divsi3_nodiv0+0x76>
    70da:	091b      	lsrs	r3, r3, #4
    70dc:	d001      	beq.n	70e2 <.divsi3_nodiv0+0x76>
    70de:	0909      	lsrs	r1, r1, #4
    70e0:	e7e3      	b.n	70aa <.divsi3_nodiv0+0x3e>
    70e2:	1c10      	adds	r0, r2, #0
    70e4:	4664      	mov	r4, ip
    70e6:	2c00      	cmp	r4, #0
    70e8:	d500      	bpl.n	70ec <.divsi3_nodiv0+0x80>
    70ea:	4240      	negs	r0, r0
    70ec:	bc10      	pop	{r4}
    70ee:	4770      	bx	lr
    70f0:	4778      	bx	pc
    70f2:	46c0      	nop			(mov r8, r8)
    70f4:	e3500000 	cmp	r0, #0	; 0x0
    70f8:	c3e00102 	mvngt	r0, #-2147483648	; 0x80000000
    70fc:	b3a00102 	movlt	r0, #-2147483648	; 0x80000000
    7100:	ea0004f8 	b	84e8 <____aeabi_idiv0_from_arm>

00007104 <__aeabi_idivmod>:
    7104:	2900      	cmp	r1, #0
    7106:	d0f3      	beq.n	70f0 <.divsi3_nodiv0+0x84>
    7108:	b503      	push	{r0, r1, lr}
    710a:	f7ff ffaf 	bl	706c <.divsi3_nodiv0>
    710e:	bc0e      	pop	{r1, r2, r3}
    7110:	4342      	muls	r2, r0
    7112:	1a89      	subs	r1, r1, r2
    7114:	4718      	bx	r3
    7116:	46c0      	nop			(mov r8, r8)

00007118 <__aeabi_idiv0>:
    7118:	4770      	bx	lr
    711a:	46c0      	nop			(mov r8, r8)

0000711c <__aeabi_drsub>:
    711c:	e2211102 	eor	r1, r1, #-2147483648	; 0x80000000
    7120:	ea000000 	b	7128 <__adddf3>

00007124 <__aeabi_dsub>:
    7124:	e2233102 	eor	r3, r3, #-2147483648	; 0x80000000

00007128 <__adddf3>:
    7128:	e92d4030 	push	{r4, r5, lr}
    712c:	e1a04081 	lsl	r4, r1, #1
    7130:	e1a05083 	lsl	r5, r3, #1
    7134:	e1340005 	teq	r4, r5
    7138:	01300002 	teqeq	r0, r2
    713c:	1194c000 	orrsne	ip, r4, r0
    7140:	1195c002 	orrsne	ip, r5, r2
    7144:	11f0cac4 	mvnsne	ip, r4, asr #21
    7148:	11f0cac5 	mvnsne	ip, r5, asr #21
    714c:	0a00008c 	beq	7384 <__adddf3+0x25c>
    7150:	e1a04aa4 	lsr	r4, r4, #21
    7154:	e0745aa5 	rsbs	r5, r4, r5, lsr #21
    7158:	b2655000 	rsblt	r5, r5, #0	; 0x0
    715c:	da000006 	ble	717c <__adddf3+0x54>
    7160:	e0844005 	add	r4, r4, r5
    7164:	e0202002 	eor	r2, r0, r2
    7168:	e0213003 	eor	r3, r1, r3
    716c:	e0220000 	eor	r0, r2, r0
    7170:	e0231001 	eor	r1, r3, r1
    7174:	e0202002 	eor	r2, r0, r2
    7178:	e0213003 	eor	r3, r1, r3
    717c:	e3550036 	cmp	r5, #54	; 0x36
    7180:	88bd4030 	pophi	{r4, r5, lr}
    7184:	812fff1e 	bxhi	lr
    7188:	e3110102 	tst	r1, #-2147483648	; 0x80000000
    718c:	e1a01601 	lsl	r1, r1, #12
    7190:	e3a0c601 	mov	ip, #1048576	; 0x100000
    7194:	e18c1621 	orr	r1, ip, r1, lsr #12
    7198:	0a000001 	beq	71a4 <__adddf3+0x7c>
    719c:	e2700000 	rsbs	r0, r0, #0	; 0x0
    71a0:	e2e11000 	rsc	r1, r1, #0	; 0x0
    71a4:	e3130102 	tst	r3, #-2147483648	; 0x80000000
    71a8:	e1a03603 	lsl	r3, r3, #12
    71ac:	e18c3623 	orr	r3, ip, r3, lsr #12
    71b0:	0a000001 	beq	71bc <__adddf3+0x94>
    71b4:	e2722000 	rsbs	r2, r2, #0	; 0x0
    71b8:	e2e33000 	rsc	r3, r3, #0	; 0x0
    71bc:	e1340005 	teq	r4, r5
    71c0:	0a000069 	beq	736c <__adddf3+0x244>
    71c4:	e2444001 	sub	r4, r4, #1	; 0x1
    71c8:	e275e020 	rsbs	lr, r5, #32	; 0x20
    71cc:	ba000005 	blt	71e8 <__adddf3+0xc0>
    71d0:	e1a0ce12 	lsl	ip, r2, lr
    71d4:	e0900532 	adds	r0, r0, r2, lsr r5
    71d8:	e2a11000 	adc	r1, r1, #0	; 0x0
    71dc:	e0900e13 	adds	r0, r0, r3, lsl lr
    71e0:	e0b11553 	adcs	r1, r1, r3, asr r5
    71e4:	ea000006 	b	7204 <__adddf3+0xdc>
    71e8:	e2455020 	sub	r5, r5, #32	; 0x20
    71ec:	e28ee020 	add	lr, lr, #32	; 0x20
    71f0:	e3520001 	cmp	r2, #1	; 0x1
    71f4:	e1a0ce13 	lsl	ip, r3, lr
    71f8:	238cc002 	orrcs	ip, ip, #2	; 0x2
    71fc:	e0900553 	adds	r0, r0, r3, asr r5
    7200:	e0b11fc3 	adcs	r1, r1, r3, asr #31
    7204:	e2015102 	and	r5, r1, #-2147483648	; 0x80000000
    7208:	5a000002 	bpl	7218 <__adddf3+0xf0>
    720c:	e27cc000 	rsbs	ip, ip, #0	; 0x0
    7210:	e2f00000 	rscs	r0, r0, #0	; 0x0
    7214:	e2e11000 	rsc	r1, r1, #0	; 0x0
    7218:	e3510601 	cmp	r1, #1048576	; 0x100000
    721c:	3a00000f 	bcc	7260 <__adddf3+0x138>
    7220:	e3510602 	cmp	r1, #2097152	; 0x200000
    7224:	3a000006 	bcc	7244 <__adddf3+0x11c>
    7228:	e1b010a1 	lsrs	r1, r1, #1
    722c:	e1b00060 	rrxs	r0, r0
    7230:	e1a0c06c 	rrx	ip, ip
    7234:	e2844001 	add	r4, r4, #1	; 0x1
    7238:	e1a02a84 	lsl	r2, r4, #21
    723c:	e3720501 	cmn	r2, #4194304	; 0x400000
    7240:	2a00006b 	bcs	73f4 <__adddf3+0x2cc>
    7244:	e35c0102 	cmp	ip, #-2147483648	; 0x80000000
    7248:	01b0c0a0 	lsrseq	ip, r0, #1
    724c:	e2b00000 	adcs	r0, r0, #0	; 0x0
    7250:	e0a11a04 	adc	r1, r1, r4, lsl #20
    7254:	e1811005 	orr	r1, r1, r5
    7258:	e8bd4030 	pop	{r4, r5, lr}
    725c:	e12fff1e 	bx	lr
    7260:	e1b0c08c 	lsls	ip, ip, #1
    7264:	e0b00000 	adcs	r0, r0, r0
    7268:	e0a11001 	adc	r1, r1, r1
    726c:	e3110601 	tst	r1, #1048576	; 0x100000
    7270:	e2444001 	sub	r4, r4, #1	; 0x1
    7274:	1afffff2 	bne	7244 <__adddf3+0x11c>
    7278:	e3310000 	teq	r1, #0	; 0x0
    727c:	13a03014 	movne	r3, #20	; 0x14
    7280:	03a03034 	moveq	r3, #52	; 0x34
    7284:	01a01000 	moveq	r1, r0
    7288:	03a00000 	moveq	r0, #0	; 0x0
    728c:	e1a02001 	mov	r2, r1
    7290:	e3520801 	cmp	r2, #65536	; 0x10000
    7294:	21a02822 	lsrcs	r2, r2, #16
    7298:	22433010 	subcs	r3, r3, #16	; 0x10
    729c:	e3520c01 	cmp	r2, #256	; 0x100
    72a0:	21a02422 	lsrcs	r2, r2, #8
    72a4:	22433008 	subcs	r3, r3, #8	; 0x8
    72a8:	e3520010 	cmp	r2, #16	; 0x10
    72ac:	21a02222 	lsrcs	r2, r2, #4
    72b0:	22433004 	subcs	r3, r3, #4	; 0x4
    72b4:	e3520004 	cmp	r2, #4	; 0x4
    72b8:	22433002 	subcs	r3, r3, #2	; 0x2
    72bc:	304330a2 	subcc	r3, r3, r2, lsr #1
    72c0:	e04331a2 	sub	r3, r3, r2, lsr #3
    72c4:	e2532020 	subs	r2, r3, #32	; 0x20
    72c8:	aa000007 	bge	72ec <__adddf3+0x1c4>
    72cc:	e292200c 	adds	r2, r2, #12	; 0xc
    72d0:	da000004 	ble	72e8 <__adddf3+0x1c0>
    72d4:	e282c014 	add	ip, r2, #20	; 0x14
    72d8:	e262200c 	rsb	r2, r2, #12	; 0xc
    72dc:	e1a00c11 	lsl	r0, r1, ip
    72e0:	e1a01231 	lsr	r1, r1, r2
    72e4:	ea000004 	b	72fc <__adddf3+0x1d4>
    72e8:	e2822014 	add	r2, r2, #20	; 0x14
    72ec:	d262c020 	rsble	ip, r2, #32	; 0x20
    72f0:	e1a01211 	lsl	r1, r1, r2
    72f4:	d1811c30 	orrle	r1, r1, r0, lsr ip
    72f8:	d1a00210 	lslle	r0, r0, r2
    72fc:	e0544003 	subs	r4, r4, r3
    7300:	a0811a04 	addge	r1, r1, r4, lsl #20
    7304:	a1811005 	orrge	r1, r1, r5
    7308:	a8bd4030 	popge	{r4, r5, lr}
    730c:	a12fff1e 	bxge	lr
    7310:	e1e04004 	mvn	r4, r4
    7314:	e254401f 	subs	r4, r4, #31	; 0x1f
    7318:	aa00000f 	bge	735c <__adddf3+0x234>
    731c:	e294400c 	adds	r4, r4, #12	; 0xc
    7320:	ca000006 	bgt	7340 <__adddf3+0x218>
    7324:	e2844014 	add	r4, r4, #20	; 0x14
    7328:	e2642020 	rsb	r2, r4, #32	; 0x20
    732c:	e1a00430 	lsr	r0, r0, r4
    7330:	e1800211 	orr	r0, r0, r1, lsl r2
    7334:	e1851431 	orr	r1, r5, r1, lsr r4
    7338:	e8bd4030 	pop	{r4, r5, lr}
    733c:	e12fff1e 	bx	lr
    7340:	e264400c 	rsb	r4, r4, #12	; 0xc
    7344:	e2642020 	rsb	r2, r4, #32	; 0x20
    7348:	e1a00230 	lsr	r0, r0, r2
    734c:	e1800411 	orr	r0, r0, r1, lsl r4
    7350:	e1a01005 	mov	r1, r5
    7354:	e8bd4030 	pop	{r4, r5, lr}
    7358:	e12fff1e 	bx	lr
    735c:	e1a00431 	lsr	r0, r1, r4
    7360:	e1a01005 	mov	r1, r5
    7364:	e8bd4030 	pop	{r4, r5, lr}
    7368:	e12fff1e 	bx	lr
    736c:	e3340000 	teq	r4, #0	; 0x0
    7370:	e2233601 	eor	r3, r3, #1048576	; 0x100000
    7374:	02211601 	eoreq	r1, r1, #1048576	; 0x100000
    7378:	02844001 	addeq	r4, r4, #1	; 0x1
    737c:	12455001 	subne	r5, r5, #1	; 0x1
    7380:	eaffff8f 	b	71c4 <__adddf3+0x9c>
    7384:	e1f0cac4 	mvns	ip, r4, asr #21
    7388:	11f0cac5 	mvnsne	ip, r5, asr #21
    738c:	0a00001d 	beq	7408 <__adddf3+0x2e0>
    7390:	e1340005 	teq	r4, r5
    7394:	01300002 	teqeq	r0, r2
    7398:	0a000004 	beq	73b0 <__adddf3+0x288>
    739c:	e194c000 	orrs	ip, r4, r0
    73a0:	01a01003 	moveq	r1, r3
    73a4:	01a00002 	moveq	r0, r2
    73a8:	e8bd4030 	pop	{r4, r5, lr}
    73ac:	e12fff1e 	bx	lr
    73b0:	e1310003 	teq	r1, r3
    73b4:	13a01000 	movne	r1, #0	; 0x0
    73b8:	13a00000 	movne	r0, #0	; 0x0
    73bc:	18bd4030 	popne	{r4, r5, lr}
    73c0:	112fff1e 	bxne	lr
    73c4:	e1b0caa4 	lsrs	ip, r4, #21
    73c8:	1a000004 	bne	73e0 <__adddf3+0x2b8>
    73cc:	e1b00080 	lsls	r0, r0, #1
    73d0:	e0b11001 	adcs	r1, r1, r1
    73d4:	23811102 	orrcs	r1, r1, #-2147483648	; 0x80000000
    73d8:	e8bd4030 	pop	{r4, r5, lr}
    73dc:	e12fff1e 	bx	lr
    73e0:	e2944501 	adds	r4, r4, #4194304	; 0x400000
    73e4:	32811601 	addcc	r1, r1, #1048576	; 0x100000
    73e8:	38bd4030 	popcc	{r4, r5, lr}
    73ec:	312fff1e 	bxcc	lr
    73f0:	e2015102 	and	r5, r1, #-2147483648	; 0x80000000
    73f4:	e385147f 	orr	r1, r5, #2130706432	; 0x7f000000
    73f8:	e381160f 	orr	r1, r1, #15728640	; 0xf00000
    73fc:	e3a00000 	mov	r0, #0	; 0x0
    7400:	e8bd4030 	pop	{r4, r5, lr}
    7404:	e12fff1e 	bx	lr
    7408:	e1f0cac4 	mvns	ip, r4, asr #21
    740c:	11a01003 	movne	r1, r3
    7410:	11a00002 	movne	r0, r2
    7414:	01f0cac5 	mvnseq	ip, r5, asr #21
    7418:	11a03001 	movne	r3, r1
    741c:	11a02000 	movne	r2, r0
    7420:	e1904601 	orrs	r4, r0, r1, lsl #12
    7424:	01925603 	orrseq	r5, r2, r3, lsl #12
    7428:	01310003 	teqeq	r1, r3
    742c:	13811702 	orrne	r1, r1, #524288	; 0x80000
    7430:	e8bd4030 	pop	{r4, r5, lr}
    7434:	e12fff1e 	bx	lr

00007438 <__aeabi_ui2d>:
    7438:	e3300000 	teq	r0, #0	; 0x0
    743c:	03a01000 	moveq	r1, #0	; 0x0
    7440:	012fff1e 	bxeq	lr
    7444:	e92d4030 	push	{r4, r5, lr}
    7448:	e3a04b01 	mov	r4, #1024	; 0x400
    744c:	e2844032 	add	r4, r4, #50	; 0x32
    7450:	e3a05000 	mov	r5, #0	; 0x0
    7454:	e3a01000 	mov	r1, #0	; 0x0
    7458:	eaffff86 	b	7278 <__adddf3+0x150>

0000745c <__aeabi_i2d>:
    745c:	e3300000 	teq	r0, #0	; 0x0
    7460:	03a01000 	moveq	r1, #0	; 0x0
    7464:	012fff1e 	bxeq	lr
    7468:	e92d4030 	push	{r4, r5, lr}
    746c:	e3a04b01 	mov	r4, #1024	; 0x400
    7470:	e2844032 	add	r4, r4, #50	; 0x32
    7474:	e2105102 	ands	r5, r0, #-2147483648	; 0x80000000
    7478:	42600000 	rsbmi	r0, r0, #0	; 0x0
    747c:	e3a01000 	mov	r1, #0	; 0x0
    7480:	eaffff7c 	b	7278 <__adddf3+0x150>

00007484 <__aeabi_f2d>:
    7484:	e1b02080 	lsls	r2, r0, #1
    7488:	e1a011c2 	asr	r1, r2, #3
    748c:	e1a01061 	rrx	r1, r1
    7490:	e1a00e02 	lsl	r0, r2, #28
    7494:	121234ff 	andsne	r3, r2, #-16777216	; 0xff000000
    7498:	133304ff 	teqne	r3, #-16777216	; 0xff000000
    749c:	1221130e 	eorne	r1, r1, #939524096	; 0x38000000
    74a0:	112fff1e 	bxne	lr
    74a4:	e3320000 	teq	r2, #0	; 0x0
    74a8:	133304ff 	teqne	r3, #-16777216	; 0xff000000
    74ac:	012fff1e 	bxeq	lr
    74b0:	e92d4030 	push	{r4, r5, lr}
    74b4:	e3a04d0e 	mov	r4, #896	; 0x380
    74b8:	e2015102 	and	r5, r1, #-2147483648	; 0x80000000
    74bc:	e3c11102 	bic	r1, r1, #-2147483648	; 0x80000000
    74c0:	eaffff6c 	b	7278 <__adddf3+0x150>

000074c4 <__aeabi_ul2d>:
    74c4:	e1902001 	orrs	r2, r0, r1
    74c8:	012fff1e 	bxeq	lr
    74cc:	e92d4030 	push	{r4, r5, lr}
    74d0:	e3a05000 	mov	r5, #0	; 0x0
    74d4:	ea000006 	b	74f4 <__aeabi_l2d+0x1c>

000074d8 <__aeabi_l2d>:
    74d8:	e1902001 	orrs	r2, r0, r1
    74dc:	012fff1e 	bxeq	lr
    74e0:	e92d4030 	push	{r4, r5, lr}
    74e4:	e2115102 	ands	r5, r1, #-2147483648	; 0x80000000
    74e8:	5a000001 	bpl	74f4 <__aeabi_l2d+0x1c>
    74ec:	e2700000 	rsbs	r0, r0, #0	; 0x0
    74f0:	e2e11000 	rsc	r1, r1, #0	; 0x0
    74f4:	e3a04b01 	mov	r4, #1024	; 0x400
    74f8:	e2844032 	add	r4, r4, #50	; 0x32
    74fc:	e1b0cb21 	lsrs	ip, r1, #22
    7500:	0affff44 	beq	7218 <__adddf3+0xf0>
    7504:	e3a02003 	mov	r2, #3	; 0x3
    7508:	e1b0c1ac 	lsrs	ip, ip, #3
    750c:	12822003 	addne	r2, r2, #3	; 0x3
    7510:	e1b0c1ac 	lsrs	ip, ip, #3
    7514:	12822003 	addne	r2, r2, #3	; 0x3
    7518:	e08221ac 	add	r2, r2, ip, lsr #3
    751c:	e2623020 	rsb	r3, r2, #32	; 0x20
    7520:	e1a0c310 	lsl	ip, r0, r3
    7524:	e1a00230 	lsr	r0, r0, r2
    7528:	e1800311 	orr	r0, r0, r1, lsl r3
    752c:	e1a01231 	lsr	r1, r1, r2
    7530:	e0844002 	add	r4, r4, r2
    7534:	eaffff37 	b	7218 <__adddf3+0xf0>

00007538 <__aeabi_dmul>:
    7538:	e92d4070 	push	{r4, r5, r6, lr}
    753c:	e3a0c0ff 	mov	ip, #255	; 0xff
    7540:	e38ccc07 	orr	ip, ip, #1792	; 0x700
    7544:	e01c4a21 	ands	r4, ip, r1, lsr #20
    7548:	101c5a23 	andsne	r5, ip, r3, lsr #20
    754c:	1134000c 	teqne	r4, ip
    7550:	1135000c 	teqne	r5, ip
    7554:	0b000075 	bleq	7730 <__aeabi_dmul+0x1f8>
    7558:	e0844005 	add	r4, r4, r5
    755c:	e0216003 	eor	r6, r1, r3
    7560:	e1c11a8c 	bic	r1, r1, ip, lsl #21
    7564:	e1c33a8c 	bic	r3, r3, ip, lsl #21
    7568:	e1905601 	orrs	r5, r0, r1, lsl #12
    756c:	11925603 	orrsne	r5, r2, r3, lsl #12
    7570:	e3811601 	orr	r1, r1, #1048576	; 0x100000
    7574:	e3833601 	orr	r3, r3, #1048576	; 0x100000
    7578:	0a00001d 	beq	75f4 <__aeabi_dmul+0xbc>
    757c:	e08ec290 	umull	ip, lr, r0, r2
    7580:	e3a05000 	mov	r5, #0	; 0x0
    7584:	e0a5e291 	umlal	lr, r5, r1, r2
    7588:	e2062102 	and	r2, r6, #-2147483648	; 0x80000000
    758c:	e0a5e390 	umlal	lr, r5, r0, r3
    7590:	e3a06000 	mov	r6, #0	; 0x0
    7594:	e0a65391 	umlal	r5, r6, r1, r3
    7598:	e33c0000 	teq	ip, #0	; 0x0
    759c:	138ee001 	orrne	lr, lr, #1	; 0x1
    75a0:	e24440ff 	sub	r4, r4, #255	; 0xff
    75a4:	e3560c02 	cmp	r6, #512	; 0x200
    75a8:	e2c44c03 	sbc	r4, r4, #768	; 0x300
    75ac:	2a000002 	bcs	75bc <__aeabi_dmul+0x84>
    75b0:	e1b0e08e 	lsls	lr, lr, #1
    75b4:	e0b55005 	adcs	r5, r5, r5
    75b8:	e0a66006 	adc	r6, r6, r6
    75bc:	e1821586 	orr	r1, r2, r6, lsl #11
    75c0:	e1811aa5 	orr	r1, r1, r5, lsr #21
    75c4:	e1a00585 	lsl	r0, r5, #11
    75c8:	e1800aae 	orr	r0, r0, lr, lsr #21
    75cc:	e1a0e58e 	lsl	lr, lr, #11
    75d0:	e254c0fd 	subs	ip, r4, #253	; 0xfd
    75d4:	835c0c07 	cmphi	ip, #1792	; 0x700
    75d8:	8a000011 	bhi	7624 <__aeabi_dmul+0xec>
    75dc:	e35e0102 	cmp	lr, #-2147483648	; 0x80000000
    75e0:	01b0e0a0 	lsrseq	lr, r0, #1
    75e4:	e2b00000 	adcs	r0, r0, #0	; 0x0
    75e8:	e0a11a04 	adc	r1, r1, r4, lsl #20
    75ec:	e8bd4070 	pop	{r4, r5, r6, lr}
    75f0:	e12fff1e 	bx	lr
    75f4:	e2066102 	and	r6, r6, #-2147483648	; 0x80000000
    75f8:	e1861001 	orr	r1, r6, r1
    75fc:	e1800002 	orr	r0, r0, r2
    7600:	e0211003 	eor	r1, r1, r3
    7604:	e05440ac 	subs	r4, r4, ip, lsr #1
    7608:	c074500c 	rsbsgt	r5, r4, ip
    760c:	c1811a04 	orrgt	r1, r1, r4, lsl #20
    7610:	c8bd4070 	popgt	{r4, r5, r6, lr}
    7614:	c12fff1e 	bxgt	lr
    7618:	e3811601 	orr	r1, r1, #1048576	; 0x100000
    761c:	e3a0e000 	mov	lr, #0	; 0x0
    7620:	e2544001 	subs	r4, r4, #1	; 0x1
    7624:	ca00005d 	bgt	77a0 <__aeabi_dmul+0x268>
    7628:	e3740036 	cmn	r4, #54	; 0x36
    762c:	d3a00000 	movle	r0, #0	; 0x0
    7630:	d2011102 	andle	r1, r1, #-2147483648	; 0x80000000
    7634:	d8bd4070 	pople	{r4, r5, r6, lr}
    7638:	d12fff1e 	bxle	lr
    763c:	e2644000 	rsb	r4, r4, #0	; 0x0
    7640:	e2544020 	subs	r4, r4, #32	; 0x20
    7644:	aa00001a 	bge	76b4 <__aeabi_dmul+0x17c>
    7648:	e294400c 	adds	r4, r4, #12	; 0xc
    764c:	ca00000c 	bgt	7684 <__aeabi_dmul+0x14c>
    7650:	e2844014 	add	r4, r4, #20	; 0x14
    7654:	e2645020 	rsb	r5, r4, #32	; 0x20
    7658:	e1a03510 	lsl	r3, r0, r5
    765c:	e1a00430 	lsr	r0, r0, r4
    7660:	e1800511 	orr	r0, r0, r1, lsl r5
    7664:	e2012102 	and	r2, r1, #-2147483648	; 0x80000000
    7668:	e3c11102 	bic	r1, r1, #-2147483648	; 0x80000000
    766c:	e0900fa3 	adds	r0, r0, r3, lsr #31
    7670:	e0a21431 	adc	r1, r2, r1, lsr r4
    7674:	e19ee083 	orrs	lr, lr, r3, lsl #1
    7678:	01c00fa3 	biceq	r0, r0, r3, lsr #31
    767c:	e8bd4070 	pop	{r4, r5, r6, lr}
    7680:	e12fff1e 	bx	lr
    7684:	e264400c 	rsb	r4, r4, #12	; 0xc
    7688:	e2645020 	rsb	r5, r4, #32	; 0x20
    768c:	e1a03410 	lsl	r3, r0, r4
    7690:	e1a00530 	lsr	r0, r0, r5
    7694:	e1800411 	orr	r0, r0, r1, lsl r4
    7698:	e2011102 	and	r1, r1, #-2147483648	; 0x80000000
    769c:	e0900fa3 	adds	r0, r0, r3, lsr #31
    76a0:	e2a11000 	adc	r1, r1, #0	; 0x0
    76a4:	e19ee083 	orrs	lr, lr, r3, lsl #1
    76a8:	01c00fa3 	biceq	r0, r0, r3, lsr #31
    76ac:	e8bd4070 	pop	{r4, r5, r6, lr}
    76b0:	e12fff1e 	bx	lr
    76b4:	e2645020 	rsb	r5, r4, #32	; 0x20
    76b8:	e18ee510 	orr	lr, lr, r0, lsl r5
    76bc:	e1a03430 	lsr	r3, r0, r4
    76c0:	e1833511 	orr	r3, r3, r1, lsl r5
    76c4:	e1a00431 	lsr	r0, r1, r4
    76c8:	e2011102 	and	r1, r1, #-2147483648	; 0x80000000
    76cc:	e1c00431 	bic	r0, r0, r1, lsr r4
    76d0:	e0800fa3 	add	r0, r0, r3, lsr #31
    76d4:	e19ee083 	orrs	lr, lr, r3, lsl #1
    76d8:	01c00fa3 	biceq	r0, r0, r3, lsr #31
    76dc:	e8bd4070 	pop	{r4, r5, r6, lr}
    76e0:	e12fff1e 	bx	lr
    76e4:	e3340000 	teq	r4, #0	; 0x0
    76e8:	1a000008 	bne	7710 <__aeabi_dmul+0x1d8>
    76ec:	e2016102 	and	r6, r1, #-2147483648	; 0x80000000
    76f0:	e1b00080 	lsls	r0, r0, #1
    76f4:	e0a11001 	adc	r1, r1, r1
    76f8:	e3110601 	tst	r1, #1048576	; 0x100000
    76fc:	02444001 	subeq	r4, r4, #1	; 0x1
    7700:	0afffffa 	beq	76f0 <__aeabi_dmul+0x1b8>
    7704:	e1811006 	orr	r1, r1, r6
    7708:	e3350000 	teq	r5, #0	; 0x0
    770c:	112fff1e 	bxne	lr
    7710:	e2036102 	and	r6, r3, #-2147483648	; 0x80000000
    7714:	e1b02082 	lsls	r2, r2, #1
    7718:	e0a33003 	adc	r3, r3, r3
    771c:	e3130601 	tst	r3, #1048576	; 0x100000
    7720:	02455001 	subeq	r5, r5, #1	; 0x1
    7724:	0afffffa 	beq	7714 <__aeabi_dmul+0x1dc>
    7728:	e1833006 	orr	r3, r3, r6
    772c:	e12fff1e 	bx	lr
    7730:	e134000c 	teq	r4, ip
    7734:	e00c5a23 	and	r5, ip, r3, lsr #20
    7738:	1135000c 	teqne	r5, ip
    773c:	0a000007 	beq	7760 <__aeabi_dmul+0x228>
    7740:	e1906081 	orrs	r6, r0, r1, lsl #1
    7744:	11926083 	orrsne	r6, r2, r3, lsl #1
    7748:	1affffe5 	bne	76e4 <__aeabi_dmul+0x1ac>
    774c:	e0211003 	eor	r1, r1, r3
    7750:	e2011102 	and	r1, r1, #-2147483648	; 0x80000000
    7754:	e3a00000 	mov	r0, #0	; 0x0
    7758:	e8bd4070 	pop	{r4, r5, r6, lr}
    775c:	e12fff1e 	bx	lr
    7760:	e1906081 	orrs	r6, r0, r1, lsl #1
    7764:	01a00002 	moveq	r0, r2
    7768:	01a01003 	moveq	r1, r3
    776c:	11926083 	orrsne	r6, r2, r3, lsl #1
    7770:	0a000010 	beq	77b8 <__aeabi_dmul+0x280>
    7774:	e134000c 	teq	r4, ip
    7778:	1a000001 	bne	7784 <__aeabi_dmul+0x24c>
    777c:	e1906601 	orrs	r6, r0, r1, lsl #12
    7780:	1a00000c 	bne	77b8 <__aeabi_dmul+0x280>
    7784:	e135000c 	teq	r5, ip
    7788:	1a000003 	bne	779c <__aeabi_dmul+0x264>
    778c:	e1926603 	orrs	r6, r2, r3, lsl #12
    7790:	11a00002 	movne	r0, r2
    7794:	11a01003 	movne	r1, r3
    7798:	1a000006 	bne	77b8 <__aeabi_dmul+0x280>
    779c:	e0211003 	eor	r1, r1, r3
    77a0:	e2011102 	and	r1, r1, #-2147483648	; 0x80000000
    77a4:	e381147f 	orr	r1, r1, #2130706432	; 0x7f000000
    77a8:	e381160f 	orr	r1, r1, #15728640	; 0xf00000
    77ac:	e3a00000 	mov	r0, #0	; 0x0
    77b0:	e8bd4070 	pop	{r4, r5, r6, lr}
    77b4:	e12fff1e 	bx	lr
    77b8:	e381147f 	orr	r1, r1, #2130706432	; 0x7f000000
    77bc:	e381173e 	orr	r1, r1, #16252928	; 0xf80000
    77c0:	e8bd4070 	pop	{r4, r5, r6, lr}
    77c4:	e12fff1e 	bx	lr

000077c8 <__aeabi_ddiv>:
    77c8:	e92d4070 	push	{r4, r5, r6, lr}
    77cc:	e3a0c0ff 	mov	ip, #255	; 0xff
    77d0:	e38ccc07 	orr	ip, ip, #1792	; 0x700
    77d4:	e01c4a21 	ands	r4, ip, r1, lsr #20
    77d8:	101c5a23 	andsne	r5, ip, r3, lsr #20
    77dc:	1134000c 	teqne	r4, ip
    77e0:	1135000c 	teqne	r5, ip
    77e4:	0b00005e 	bleq	7964 <__aeabi_ddiv+0x19c>
    77e8:	e0444005 	sub	r4, r4, r5
    77ec:	e021e003 	eor	lr, r1, r3
    77f0:	e1925603 	orrs	r5, r2, r3, lsl #12
    77f4:	e1a01601 	lsl	r1, r1, #12
    77f8:	0a00004c 	beq	7930 <__aeabi_ddiv+0x168>
    77fc:	e1a03603 	lsl	r3, r3, #12
    7800:	e3a05201 	mov	r5, #268435456	; 0x10000000
    7804:	e1853223 	orr	r3, r5, r3, lsr #4
    7808:	e1833c22 	orr	r3, r3, r2, lsr #24
    780c:	e1a02402 	lsl	r2, r2, #8
    7810:	e1855221 	orr	r5, r5, r1, lsr #4
    7814:	e1855c20 	orr	r5, r5, r0, lsr #24
    7818:	e1a06400 	lsl	r6, r0, #8
    781c:	e20e1102 	and	r1, lr, #-2147483648	; 0x80000000
    7820:	e1550003 	cmp	r5, r3
    7824:	01560002 	cmpeq	r6, r2
    7828:	e2a440fd 	adc	r4, r4, #253	; 0xfd
    782c:	e2844c03 	add	r4, r4, #768	; 0x300
    7830:	2a000001 	bcs	783c <__aeabi_ddiv+0x74>
    7834:	e1b030a3 	lsrs	r3, r3, #1
    7838:	e1a02062 	rrx	r2, r2
    783c:	e0566002 	subs	r6, r6, r2
    7840:	e0c55003 	sbc	r5, r5, r3
    7844:	e1b030a3 	lsrs	r3, r3, #1
    7848:	e1a02062 	rrx	r2, r2
    784c:	e3a00601 	mov	r0, #1048576	; 0x100000
    7850:	e3a0c702 	mov	ip, #524288	; 0x80000
    7854:	e056e002 	subs	lr, r6, r2
    7858:	e0d5e003 	sbcs	lr, r5, r3
    785c:	20466002 	subcs	r6, r6, r2
    7860:	21a0500e 	movcs	r5, lr
    7864:	2180000c 	orrcs	r0, r0, ip
    7868:	e1b030a3 	lsrs	r3, r3, #1
    786c:	e1a02062 	rrx	r2, r2
    7870:	e056e002 	subs	lr, r6, r2
    7874:	e0d5e003 	sbcs	lr, r5, r3
    7878:	20466002 	subcs	r6, r6, r2
    787c:	21a0500e 	movcs	r5, lr
    7880:	218000ac 	orrcs	r0, r0, ip, lsr #1
    7884:	e1b030a3 	lsrs	r3, r3, #1
    7888:	e1a02062 	rrx	r2, r2
    788c:	e056e002 	subs	lr, r6, r2
    7890:	e0d5e003 	sbcs	lr, r5, r3
    7894:	20466002 	subcs	r6, r6, r2
    7898:	21a0500e 	movcs	r5, lr
    789c:	2180012c 	orrcs	r0, r0, ip, lsr #2
    78a0:	e1b030a3 	lsrs	r3, r3, #1
    78a4:	e1a02062 	rrx	r2, r2
    78a8:	e056e002 	subs	lr, r6, r2
    78ac:	e0d5e003 	sbcs	lr, r5, r3
    78b0:	20466002 	subcs	r6, r6, r2
    78b4:	21a0500e 	movcs	r5, lr
    78b8:	218001ac 	orrcs	r0, r0, ip, lsr #3
    78bc:	e195e006 	orrs	lr, r5, r6
    78c0:	0a00000d 	beq	78fc <__aeabi_ddiv+0x134>
    78c4:	e1a05205 	lsl	r5, r5, #4
    78c8:	e1855e26 	orr	r5, r5, r6, lsr #28
    78cc:	e1a06206 	lsl	r6, r6, #4
    78d0:	e1a03183 	lsl	r3, r3, #3
    78d4:	e1833ea2 	orr	r3, r3, r2, lsr #29
    78d8:	e1a02182 	lsl	r2, r2, #3
    78dc:	e1b0c22c 	lsrs	ip, ip, #4
    78e0:	1affffdb 	bne	7854 <__aeabi_ddiv+0x8c>
    78e4:	e3110601 	tst	r1, #1048576	; 0x100000
    78e8:	1a000006 	bne	7908 <__aeabi_ddiv+0x140>
    78ec:	e1811000 	orr	r1, r1, r0
    78f0:	e3a00000 	mov	r0, #0	; 0x0
    78f4:	e3a0c102 	mov	ip, #-2147483648	; 0x80000000
    78f8:	eaffffd5 	b	7854 <__aeabi_ddiv+0x8c>
    78fc:	e3110601 	tst	r1, #1048576	; 0x100000
    7900:	01811000 	orreq	r1, r1, r0
    7904:	03a00000 	moveq	r0, #0	; 0x0
    7908:	e254c0fd 	subs	ip, r4, #253	; 0xfd
    790c:	835c0c07 	cmphi	ip, #1792	; 0x700
    7910:	8affff43 	bhi	7624 <__aeabi_dmul+0xec>
    7914:	e055c003 	subs	ip, r5, r3
    7918:	0056c002 	subseq	ip, r6, r2
    791c:	01b0c0a0 	lsrseq	ip, r0, #1
    7920:	e2b00000 	adcs	r0, r0, #0	; 0x0
    7924:	e0a11a04 	adc	r1, r1, r4, lsl #20
    7928:	e8bd4070 	pop	{r4, r5, r6, lr}
    792c:	e12fff1e 	bx	lr
    7930:	e20ee102 	and	lr, lr, #-2147483648	; 0x80000000
    7934:	e18e1621 	orr	r1, lr, r1, lsr #12
    7938:	e09440ac 	adds	r4, r4, ip, lsr #1
    793c:	c074500c 	rsbsgt	r5, r4, ip
    7940:	c1811a04 	orrgt	r1, r1, r4, lsl #20
    7944:	c8bd4070 	popgt	{r4, r5, r6, lr}
    7948:	c12fff1e 	bxgt	lr
    794c:	e3811601 	orr	r1, r1, #1048576	; 0x100000
    7950:	e3a0e000 	mov	lr, #0	; 0x0
    7954:	e2544001 	subs	r4, r4, #1	; 0x1
    7958:	eaffff31 	b	7624 <__aeabi_dmul+0xec>
    795c:	e185e006 	orr	lr, r5, r6
    7960:	eaffff2f 	b	7624 <__aeabi_dmul+0xec>
    7964:	e00c5a23 	and	r5, ip, r3, lsr #20
    7968:	e134000c 	teq	r4, ip
    796c:	0135000c 	teqeq	r5, ip
    7970:	0affff90 	beq	77b8 <__aeabi_dmul+0x280>
    7974:	e134000c 	teq	r4, ip
    7978:	1a000006 	bne	7998 <__aeabi_ddiv+0x1d0>
    797c:	e1904601 	orrs	r4, r0, r1, lsl #12
    7980:	1affff8c 	bne	77b8 <__aeabi_dmul+0x280>
    7984:	e135000c 	teq	r5, ip
    7988:	1affff83 	bne	779c <__aeabi_dmul+0x264>
    798c:	e1a00002 	mov	r0, r2
    7990:	e1a01003 	mov	r1, r3
    7994:	eaffff87 	b	77b8 <__aeabi_dmul+0x280>
    7998:	e135000c 	teq	r5, ip
    799c:	1a000004 	bne	79b4 <__aeabi_ddiv+0x1ec>
    79a0:	e1925603 	orrs	r5, r2, r3, lsl #12
    79a4:	0affff68 	beq	774c <__aeabi_dmul+0x214>
    79a8:	e1a00002 	mov	r0, r2
    79ac:	e1a01003 	mov	r1, r3
    79b0:	eaffff80 	b	77b8 <__aeabi_dmul+0x280>
    79b4:	e1906081 	orrs	r6, r0, r1, lsl #1
    79b8:	11926083 	orrsne	r6, r2, r3, lsl #1
    79bc:	1affff48 	bne	76e4 <__aeabi_dmul+0x1ac>
    79c0:	e1904081 	orrs	r4, r0, r1, lsl #1
    79c4:	1affff74 	bne	779c <__aeabi_dmul+0x264>
    79c8:	e1925083 	orrs	r5, r2, r3, lsl #1
    79cc:	1affff5e 	bne	774c <__aeabi_dmul+0x214>
    79d0:	eaffff78 	b	77b8 <__aeabi_dmul+0x280>

000079d4 <__gedf2>:
    79d4:	e3e0c000 	mvn	ip, #0	; 0x0
    79d8:	ea000002 	b	79e8 <__cmpdf2+0x4>

000079dc <__ledf2>:
    79dc:	e3a0c001 	mov	ip, #1	; 0x1
    79e0:	ea000000 	b	79e8 <__cmpdf2+0x4>

000079e4 <__cmpdf2>:
    79e4:	e3a0c001 	mov	ip, #1	; 0x1
    79e8:	e52dc004 	push	{ip}		; (str ip, [sp, #-4]!)
    79ec:	e1a0c081 	lsl	ip, r1, #1
    79f0:	e1f0cacc 	mvns	ip, ip, asr #21
    79f4:	e1a0c083 	lsl	ip, r3, #1
    79f8:	11f0cacc 	mvnsne	ip, ip, asr #21
    79fc:	0a00000e 	beq	7a3c <__cmpdf2+0x58>
    7a00:	e28dd004 	add	sp, sp, #4	; 0x4
    7a04:	e190c081 	orrs	ip, r0, r1, lsl #1
    7a08:	0192c083 	orrseq	ip, r2, r3, lsl #1
    7a0c:	11310003 	teqne	r1, r3
    7a10:	01300002 	teqeq	r0, r2
    7a14:	03a00000 	moveq	r0, #0	; 0x0
    7a18:	012fff1e 	bxeq	lr
    7a1c:	e3700000 	cmn	r0, #0	; 0x0
    7a20:	e1310003 	teq	r1, r3
    7a24:	51510003 	cmppl	r1, r3
    7a28:	01500002 	cmpeq	r0, r2
    7a2c:	21a00fc3 	asrcs	r0, r3, #31
    7a30:	31e00fc3 	mvncc	r0, r3, asr #31
    7a34:	e3800001 	orr	r0, r0, #1	; 0x1
    7a38:	e12fff1e 	bx	lr
    7a3c:	e1a0c081 	lsl	ip, r1, #1
    7a40:	e1f0cacc 	mvns	ip, ip, asr #21
    7a44:	1a000001 	bne	7a50 <__cmpdf2+0x6c>
    7a48:	e190c601 	orrs	ip, r0, r1, lsl #12
    7a4c:	1a000004 	bne	7a64 <__cmpdf2+0x80>
    7a50:	e1a0c083 	lsl	ip, r3, #1
    7a54:	e1f0cacc 	mvns	ip, ip, asr #21
    7a58:	1affffe8 	bne	7a00 <__cmpdf2+0x1c>
    7a5c:	e192c603 	orrs	ip, r2, r3, lsl #12
    7a60:	0affffe6 	beq	7a00 <__cmpdf2+0x1c>
    7a64:	e49d0004 	pop	{r0}		; (ldr r0, [sp], #4)
    7a68:	e12fff1e 	bx	lr

00007a6c <__aeabi_cdrcmple>:
    7a6c:	e1a0c000 	mov	ip, r0
    7a70:	e1a00002 	mov	r0, r2
    7a74:	e1a0200c 	mov	r2, ip
    7a78:	e1a0c001 	mov	ip, r1
    7a7c:	e1a01003 	mov	r1, r3
    7a80:	e1a0300c 	mov	r3, ip
    7a84:	eaffffff 	b	7a88 <__aeabi_cdcmpeq>

00007a88 <__aeabi_cdcmpeq>:
    7a88:	e92d4001 	push	{r0, lr}
    7a8c:	ebffffd4 	bl	79e4 <__cmpdf2>
    7a90:	e3500000 	cmp	r0, #0	; 0x0
    7a94:	43700000 	cmnmi	r0, #0	; 0x0
    7a98:	e8bd4001 	pop	{r0, lr}
    7a9c:	e12fff1e 	bx	lr

00007aa0 <__aeabi_dcmpeq>:
    7aa0:	e52de008 	str	lr, [sp, #-8]!
    7aa4:	ebfffff7 	bl	7a88 <__aeabi_cdcmpeq>
    7aa8:	03a00001 	moveq	r0, #1	; 0x1
    7aac:	13a00000 	movne	r0, #0	; 0x0
    7ab0:	e49de008 	ldr	lr, [sp], #8
    7ab4:	e12fff1e 	bx	lr

00007ab8 <__aeabi_dcmplt>:
    7ab8:	e52de008 	str	lr, [sp, #-8]!
    7abc:	ebfffff1 	bl	7a88 <__aeabi_cdcmpeq>
    7ac0:	33a00001 	movcc	r0, #1	; 0x1
    7ac4:	23a00000 	movcs	r0, #0	; 0x0
    7ac8:	e49de008 	ldr	lr, [sp], #8
    7acc:	e12fff1e 	bx	lr

00007ad0 <__aeabi_dcmple>:
    7ad0:	e52de008 	str	lr, [sp, #-8]!
    7ad4:	ebffffeb 	bl	7a88 <__aeabi_cdcmpeq>
    7ad8:	93a00001 	movls	r0, #1	; 0x1
    7adc:	83a00000 	movhi	r0, #0	; 0x0
    7ae0:	e49de008 	ldr	lr, [sp], #8
    7ae4:	e12fff1e 	bx	lr

00007ae8 <__aeabi_dcmpge>:
    7ae8:	e52de008 	str	lr, [sp, #-8]!
    7aec:	ebffffde 	bl	7a6c <__aeabi_cdrcmple>
    7af0:	93a00001 	movls	r0, #1	; 0x1
    7af4:	83a00000 	movhi	r0, #0	; 0x0
    7af8:	e49de008 	ldr	lr, [sp], #8
    7afc:	e12fff1e 	bx	lr

00007b00 <__aeabi_dcmpgt>:
    7b00:	e52de008 	str	lr, [sp, #-8]!
    7b04:	ebffffd8 	bl	7a6c <__aeabi_cdrcmple>
    7b08:	33a00001 	movcc	r0, #1	; 0x1
    7b0c:	23a00000 	movcs	r0, #0	; 0x0
    7b10:	e49de008 	ldr	lr, [sp], #8
    7b14:	e12fff1e 	bx	lr

00007b18 <__aeabi_d2iz>:
    7b18:	e1a02081 	lsl	r2, r1, #1
    7b1c:	e2922602 	adds	r2, r2, #2097152	; 0x200000
    7b20:	2a00000c 	bcs	7b58 <__aeabi_d2iz+0x40>
    7b24:	5a000009 	bpl	7b50 <__aeabi_d2iz+0x38>
    7b28:	e3e03e3e 	mvn	r3, #992	; 0x3e0
    7b2c:	e0532ac2 	subs	r2, r3, r2, asr #21
    7b30:	9a00000a 	bls	7b60 <__aeabi_d2iz+0x48>
    7b34:	e1a03581 	lsl	r3, r1, #11
    7b38:	e3833102 	orr	r3, r3, #-2147483648	; 0x80000000
    7b3c:	e1833aa0 	orr	r3, r3, r0, lsr #21
    7b40:	e3110102 	tst	r1, #-2147483648	; 0x80000000
    7b44:	e1a00233 	lsr	r0, r3, r2
    7b48:	12600000 	rsbne	r0, r0, #0	; 0x0
    7b4c:	e12fff1e 	bx	lr
    7b50:	e3a00000 	mov	r0, #0	; 0x0
    7b54:	e12fff1e 	bx	lr
    7b58:	e1900601 	orrs	r0, r0, r1, lsl #12
    7b5c:	1a000002 	bne	7b6c <__aeabi_d2iz+0x54>
    7b60:	e2110102 	ands	r0, r1, #-2147483648	; 0x80000000
    7b64:	03e00102 	mvneq	r0, #-2147483648	; 0x80000000
    7b68:	e12fff1e 	bx	lr
    7b6c:	e3a00000 	mov	r0, #0	; 0x0
    7b70:	e12fff1e 	bx	lr

00007b74 <__aeabi_uldivmod>:
    7b74:	e3530000 	cmp	r3, #0	; 0x0
    7b78:	03520000 	cmpeq	r2, #0	; 0x0
    7b7c:	1a000004 	bne	7b94 <__aeabi_uldivmod+0x20>
    7b80:	e3510000 	cmp	r1, #0	; 0x0
    7b84:	03500000 	cmpeq	r0, #0	; 0x0
    7b88:	13e01000 	mvnne	r1, #0	; 0x0
    7b8c:	13e00000 	mvnne	r0, #0	; 0x0
    7b90:	ea000256 	b	84f0 <____aeabi_ldiv0_from_arm>
    7b94:	e24dd008 	sub	sp, sp, #8	; 0x8
    7b98:	e92d6000 	push	{sp, lr}
    7b9c:	fa000003 	blx	7bb0 <__gnu_uldivmod_helper>
    7ba0:	e59de004 	ldr	lr, [sp, #4]
    7ba4:	e28dd008 	add	sp, sp, #8	; 0x8
    7ba8:	e8bd000c 	pop	{r2, r3}
    7bac:	e12fff1e 	bx	lr

00007bb0 <__gnu_uldivmod_helper>:
    7bb0:	b5f0      	push	{r4, r5, r6, r7, lr}
    7bb2:	b083      	sub	sp, #12
    7bb4:	1c16      	adds	r6, r2, #0
    7bb6:	1c1f      	adds	r7, r3, #0
    7bb8:	9000      	str	r0, [sp, #0]
    7bba:	9101      	str	r1, [sp, #4]
    7bbc:	f000 fa94 	bl	80e8 <__udivdi3>
    7bc0:	1c32      	adds	r2, r6, #0
    7bc2:	1c3b      	adds	r3, r7, #0
    7bc4:	1c0d      	adds	r5, r1, #0
    7bc6:	1c04      	adds	r4, r0, #0
    7bc8:	f000 f82e 	bl	7c28 <__aeabi_lmul>
    7bcc:	9a00      	ldr	r2, [sp, #0]
    7bce:	9b01      	ldr	r3, [sp, #4]
    7bd0:	1a12      	subs	r2, r2, r0
    7bd2:	418b      	sbcs	r3, r1
    7bd4:	1c19      	adds	r1, r3, #0
    7bd6:	9b08      	ldr	r3, [sp, #32]
    7bd8:	1c10      	adds	r0, r2, #0
    7bda:	b003      	add	sp, #12
    7bdc:	6018      	str	r0, [r3, #0]
    7bde:	6059      	str	r1, [r3, #4]
    7be0:	1c29      	adds	r1, r5, #0
    7be2:	1c20      	adds	r0, r4, #0
    7be4:	bcf0      	pop	{r4, r5, r6, r7}
    7be6:	bc04      	pop	{r2}
    7be8:	4710      	bx	r2
    7bea:	46c0      	nop			(mov r8, r8)

00007bec <__gnu_ldivmod_helper>:
    7bec:	b5f0      	push	{r4, r5, r6, r7, lr}
    7bee:	b083      	sub	sp, #12
    7bf0:	1c16      	adds	r6, r2, #0
    7bf2:	1c1f      	adds	r7, r3, #0
    7bf4:	9000      	str	r0, [sp, #0]
    7bf6:	9101      	str	r1, [sp, #4]
    7bf8:	f000 f84e 	bl	7c98 <__divdi3>
    7bfc:	1c32      	adds	r2, r6, #0
    7bfe:	1c3b      	adds	r3, r7, #0
    7c00:	1c0d      	adds	r5, r1, #0
    7c02:	1c04      	adds	r4, r0, #0
    7c04:	f000 f810 	bl	7c28 <__aeabi_lmul>
    7c08:	9a00      	ldr	r2, [sp, #0]
    7c0a:	9b01      	ldr	r3, [sp, #4]
    7c0c:	1a12      	subs	r2, r2, r0
    7c0e:	418b      	sbcs	r3, r1
    7c10:	1c19      	adds	r1, r3, #0
    7c12:	9b08      	ldr	r3, [sp, #32]
    7c14:	1c10      	adds	r0, r2, #0
    7c16:	b003      	add	sp, #12
    7c18:	6018      	str	r0, [r3, #0]
    7c1a:	6059      	str	r1, [r3, #4]
    7c1c:	1c29      	adds	r1, r5, #0
    7c1e:	1c20      	adds	r0, r4, #0
    7c20:	bcf0      	pop	{r4, r5, r6, r7}
    7c22:	bc04      	pop	{r2}
    7c24:	4710      	bx	r2
    7c26:	46c0      	nop			(mov r8, r8)

00007c28 <__aeabi_lmul>:
    7c28:	b5f0      	push	{r4, r5, r6, r7, lr}
    7c2a:	4657      	mov	r7, sl
    7c2c:	464e      	mov	r6, r9
    7c2e:	4645      	mov	r5, r8
    7c30:	b4e0      	push	{r5, r6, r7}
    7c32:	4690      	mov	r8, r2
    7c34:	4699      	mov	r9, r3
    7c36:	4b17      	ldr	r3, [pc, #92]	(7c94 <__aeabi_lmul+0x6c>)
    7c38:	1c02      	adds	r2, r0, #0
    7c3a:	4646      	mov	r6, r8
    7c3c:	401a      	ands	r2, r3
    7c3e:	4033      	ands	r3, r6
    7c40:	0c04      	lsrs	r4, r0, #16
    7c42:	1c07      	adds	r7, r0, #0
    7c44:	1c10      	adds	r0, r2, #0
    7c46:	4358      	muls	r0, r3
    7c48:	468a      	mov	sl, r1
    7c4a:	0c31      	lsrs	r1, r6, #16
    7c4c:	4684      	mov	ip, r0
    7c4e:	434a      	muls	r2, r1
    7c50:	1c20      	adds	r0, r4, #0
    7c52:	4358      	muls	r0, r3
    7c54:	1c25      	adds	r5, r4, #0
    7c56:	434d      	muls	r5, r1
    7c58:	4661      	mov	r1, ip
    7c5a:	1882      	adds	r2, r0, r2
    7c5c:	0c0b      	lsrs	r3, r1, #16
    7c5e:	18d1      	adds	r1, r2, r3
    7c60:	4288      	cmp	r0, r1
    7c62:	d902      	bls.n	7c6a <__aeabi_lmul+0x42>
    7c64:	2280      	movs	r2, #128
    7c66:	0252      	lsls	r2, r2, #9
    7c68:	18ad      	adds	r5, r5, r2
    7c6a:	4b0a      	ldr	r3, [pc, #40]	(7c94 <__aeabi_lmul+0x6c>)
    7c6c:	4660      	mov	r0, ip
    7c6e:	0c0c      	lsrs	r4, r1, #16
    7c70:	4003      	ands	r3, r0
    7c72:	0409      	lsls	r1, r1, #16
    7c74:	18c8      	adds	r0, r1, r3
    7c76:	4649      	mov	r1, r9
    7c78:	4379      	muls	r1, r7
    7c7a:	4653      	mov	r3, sl
    7c7c:	4373      	muls	r3, r6
    7c7e:	192a      	adds	r2, r5, r4
    7c80:	18c9      	adds	r1, r1, r3
    7c82:	1889      	adds	r1, r1, r2
    7c84:	bc1c      	pop	{r2, r3, r4}
    7c86:	4690      	mov	r8, r2
    7c88:	4699      	mov	r9, r3
    7c8a:	46a2      	mov	sl, r4
    7c8c:	bcf0      	pop	{r4, r5, r6, r7}
    7c8e:	bc04      	pop	{r2}
    7c90:	4710      	bx	r2
    7c92:	46c0      	nop			(mov r8, r8)
    7c94:	0000ffff 	.word	0x0000ffff

00007c98 <__divdi3>:
    7c98:	b5f0      	push	{r4, r5, r6, r7, lr}
    7c9a:	465f      	mov	r7, fp
    7c9c:	4656      	mov	r6, sl
    7c9e:	464d      	mov	r5, r9
    7ca0:	4644      	mov	r4, r8
    7ca2:	b4f0      	push	{r4, r5, r6, r7}
    7ca4:	b08b      	sub	sp, #44
    7ca6:	9200      	str	r2, [sp, #0]
    7ca8:	9301      	str	r3, [sp, #4]
    7caa:	9b00      	ldr	r3, [sp, #0]
    7cac:	9c01      	ldr	r4, [sp, #4]
    7cae:	2900      	cmp	r1, #0
    7cb0:	da00      	bge.n	7cb4 <__divdi3+0x1c>
    7cb2:	e0f6      	b.n	7ea2 <__divdi3+0x20a>
    7cb4:	2200      	movs	r2, #0
    7cb6:	9203      	str	r2, [sp, #12]
    7cb8:	9a01      	ldr	r2, [sp, #4]
    7cba:	2a00      	cmp	r2, #0
    7cbc:	da00      	bge.n	7cc0 <__divdi3+0x28>
    7cbe:	e0fc      	b.n	7eba <__divdi3+0x222>
    7cc0:	1c1d      	adds	r5, r3, #0
    7cc2:	4682      	mov	sl, r0
    7cc4:	1c0e      	adds	r6, r1, #0
    7cc6:	1e21      	subs	r1, r4, #0
    7cc8:	d15d      	bne.n	7d86 <__divdi3+0xee>
    7cca:	42b3      	cmp	r3, r6
    7ccc:	d800      	bhi.n	7cd0 <__divdi3+0x38>
    7cce:	e074      	b.n	7dba <__divdi3+0x122>
    7cd0:	4bc1      	ldr	r3, [pc, #772]	(7fd8 <__divdi3+0x340>)
    7cd2:	429d      	cmp	r5, r3
    7cd4:	d900      	bls.n	7cd8 <__divdi3+0x40>
    7cd6:	e105      	b.n	7ee4 <__divdi3+0x24c>
    7cd8:	2dff      	cmp	r5, #255
    7cda:	d800      	bhi.n	7cde <__divdi3+0x46>
    7cdc:	e1e7      	b.n	80ae <__divdi3+0x416>
    7cde:	2208      	movs	r2, #8
    7ce0:	2118      	movs	r1, #24
    7ce2:	4bbe      	ldr	r3, [pc, #760]	(7fdc <__divdi3+0x344>)
    7ce4:	1c28      	adds	r0, r5, #0
    7ce6:	40d0      	lsrs	r0, r2
    7ce8:	5c1b      	ldrb	r3, [r3, r0]
    7cea:	1ac9      	subs	r1, r1, r3
    7cec:	2900      	cmp	r1, #0
    7cee:	d00b      	beq.n	7d08 <__divdi3+0x70>
    7cf0:	2320      	movs	r3, #32
    7cf2:	4654      	mov	r4, sl
    7cf4:	1a5b      	subs	r3, r3, r1
    7cf6:	1c32      	adds	r2, r6, #0
    7cf8:	4650      	mov	r0, sl
    7cfa:	40dc      	lsrs	r4, r3
    7cfc:	408a      	lsls	r2, r1
    7cfe:	1c26      	adds	r6, r4, #0
    7d00:	4088      	lsls	r0, r1
    7d02:	408d      	lsls	r5, r1
    7d04:	4316      	orrs	r6, r2
    7d06:	4682      	mov	sl, r0
    7d08:	4bb3      	ldr	r3, [pc, #716]	(7fd8 <__divdi3+0x340>)
    7d0a:	0c2f      	lsrs	r7, r5, #16
    7d0c:	402b      	ands	r3, r5
    7d0e:	1c39      	adds	r1, r7, #0
    7d10:	1c30      	adds	r0, r6, #0
    7d12:	469b      	mov	fp, r3
    7d14:	f7ff f95e 	bl	6fd4 <__aeabi_uidiv>
    7d18:	1c39      	adds	r1, r7, #0
    7d1a:	4680      	mov	r8, r0
    7d1c:	465c      	mov	r4, fp
    7d1e:	4344      	muls	r4, r0
    7d20:	1c30      	adds	r0, r6, #0
    7d22:	f7ff f997 	bl	7054 <__aeabi_uidivmod>
    7d26:	4652      	mov	r2, sl
    7d28:	0409      	lsls	r1, r1, #16
    7d2a:	0c13      	lsrs	r3, r2, #16
    7d2c:	4319      	orrs	r1, r3
    7d2e:	428c      	cmp	r4, r1
    7d30:	d908      	bls.n	7d44 <__divdi3+0xac>
    7d32:	2301      	movs	r3, #1
    7d34:	425b      	negs	r3, r3
    7d36:	1949      	adds	r1, r1, r5
    7d38:	4498      	add	r8, r3
    7d3a:	428d      	cmp	r5, r1
    7d3c:	d802      	bhi.n	7d44 <__divdi3+0xac>
    7d3e:	428c      	cmp	r4, r1
    7d40:	d900      	bls.n	7d44 <__divdi3+0xac>
    7d42:	e1c9      	b.n	80d8 <__divdi3+0x440>
    7d44:	1b0c      	subs	r4, r1, r4
    7d46:	1c20      	adds	r0, r4, #0
    7d48:	1c39      	adds	r1, r7, #0
    7d4a:	f7ff f943 	bl	6fd4 <__aeabi_uidiv>
    7d4e:	1c06      	adds	r6, r0, #0
    7d50:	4658      	mov	r0, fp
    7d52:	4370      	muls	r0, r6
    7d54:	1c39      	adds	r1, r7, #0
    7d56:	4681      	mov	r9, r0
    7d58:	1c20      	adds	r0, r4, #0
    7d5a:	f7ff f97b 	bl	7054 <__aeabi_uidivmod>
    7d5e:	4b9e      	ldr	r3, [pc, #632]	(7fd8 <__divdi3+0x340>)
    7d60:	4652      	mov	r2, sl
    7d62:	0409      	lsls	r1, r1, #16
    7d64:	4013      	ands	r3, r2
    7d66:	4319      	orrs	r1, r3
    7d68:	4589      	cmp	r9, r1
    7d6a:	d906      	bls.n	7d7a <__divdi3+0xe2>
    7d6c:	1949      	adds	r1, r1, r5
    7d6e:	3e01      	subs	r6, #1
    7d70:	428d      	cmp	r5, r1
    7d72:	d802      	bhi.n	7d7a <__divdi3+0xe2>
    7d74:	4589      	cmp	r9, r1
    7d76:	d900      	bls.n	7d7a <__divdi3+0xe2>
    7d78:	3e01      	subs	r6, #1
    7d7a:	4644      	mov	r4, r8
    7d7c:	0423      	lsls	r3, r4, #16
    7d7e:	1c32      	adds	r2, r6, #0
    7d80:	431a      	orrs	r2, r3
    7d82:	2000      	movs	r0, #0
    7d84:	e004      	b.n	7d90 <__divdi3+0xf8>
    7d86:	42b1      	cmp	r1, r6
    7d88:	d800      	bhi.n	7d8c <__divdi3+0xf4>
    7d8a:	e071      	b.n	7e70 <__divdi3+0x1d8>
    7d8c:	2200      	movs	r2, #0
    7d8e:	2000      	movs	r0, #0
    7d90:	9d03      	ldr	r5, [sp, #12]
    7d92:	1c13      	adds	r3, r2, #0
    7d94:	1c04      	adds	r4, r0, #0
    7d96:	2d00      	cmp	r5, #0
    7d98:	d004      	beq.n	7da4 <__divdi3+0x10c>
    7d9a:	1c10      	adds	r0, r2, #0
    7d9c:	1c21      	adds	r1, r4, #0
    7d9e:	2400      	movs	r4, #0
    7da0:	4243      	negs	r3, r0
    7da2:	418c      	sbcs	r4, r1
    7da4:	b00b      	add	sp, #44
    7da6:	1c18      	adds	r0, r3, #0
    7da8:	1c21      	adds	r1, r4, #0
    7daa:	bc3c      	pop	{r2, r3, r4, r5}
    7dac:	4690      	mov	r8, r2
    7dae:	4699      	mov	r9, r3
    7db0:	46a2      	mov	sl, r4
    7db2:	46ab      	mov	fp, r5
    7db4:	bcf0      	pop	{r4, r5, r6, r7}
    7db6:	bc04      	pop	{r2}
    7db8:	4710      	bx	r2
    7dba:	2b00      	cmp	r3, #0
    7dbc:	d104      	bne.n	7dc8 <__divdi3+0x130>
    7dbe:	2001      	movs	r0, #1
    7dc0:	2100      	movs	r1, #0
    7dc2:	f7ff f907 	bl	6fd4 <__aeabi_uidiv>
    7dc6:	1c05      	adds	r5, r0, #0
    7dc8:	4b83      	ldr	r3, [pc, #524]	(7fd8 <__divdi3+0x340>)
    7dca:	429d      	cmp	r5, r3
    7dcc:	d97e      	bls.n	7ecc <__divdi3+0x234>
    7dce:	4b84      	ldr	r3, [pc, #528]	(7fe0 <__divdi3+0x348>)
    7dd0:	429d      	cmp	r5, r3
    7dd2:	d800      	bhi.n	7dd6 <__divdi3+0x13e>
    7dd4:	e171      	b.n	80ba <__divdi3+0x422>
    7dd6:	2218      	movs	r2, #24
    7dd8:	2108      	movs	r1, #8
    7dda:	4b80      	ldr	r3, [pc, #512]	(7fdc <__divdi3+0x344>)
    7ddc:	1c28      	adds	r0, r5, #0
    7dde:	40d0      	lsrs	r0, r2
    7de0:	5c1b      	ldrb	r3, [r3, r0]
    7de2:	1acb      	subs	r3, r1, r3
    7de4:	4699      	mov	r9, r3
    7de6:	2b00      	cmp	r3, #0
    7de8:	d000      	beq.n	7dec <__divdi3+0x154>
    7dea:	e0fb      	b.n	7fe4 <__divdi3+0x34c>
    7dec:	4b7a      	ldr	r3, [pc, #488]	(7fd8 <__divdi3+0x340>)
    7dee:	2101      	movs	r1, #1
    7df0:	402b      	ands	r3, r5
    7df2:	9106      	str	r1, [sp, #24]
    7df4:	1b74      	subs	r4, r6, r5
    7df6:	0c2f      	lsrs	r7, r5, #16
    7df8:	469b      	mov	fp, r3
    7dfa:	1c20      	adds	r0, r4, #0
    7dfc:	1c39      	adds	r1, r7, #0
    7dfe:	f7ff f8e9 	bl	6fd4 <__aeabi_uidiv>
    7e02:	1c39      	adds	r1, r7, #0
    7e04:	4680      	mov	r8, r0
    7e06:	465e      	mov	r6, fp
    7e08:	4346      	muls	r6, r0
    7e0a:	1c20      	adds	r0, r4, #0
    7e0c:	f7ff f922 	bl	7054 <__aeabi_uidivmod>
    7e10:	4654      	mov	r4, sl
    7e12:	0409      	lsls	r1, r1, #16
    7e14:	0c23      	lsrs	r3, r4, #16
    7e16:	4319      	orrs	r1, r3
    7e18:	428e      	cmp	r6, r1
    7e1a:	d908      	bls.n	7e2e <__divdi3+0x196>
    7e1c:	2001      	movs	r0, #1
    7e1e:	4240      	negs	r0, r0
    7e20:	1949      	adds	r1, r1, r5
    7e22:	4480      	add	r8, r0
    7e24:	428d      	cmp	r5, r1
    7e26:	d802      	bhi.n	7e2e <__divdi3+0x196>
    7e28:	428e      	cmp	r6, r1
    7e2a:	d900      	bls.n	7e2e <__divdi3+0x196>
    7e2c:	e157      	b.n	80de <__divdi3+0x446>
    7e2e:	1b8c      	subs	r4, r1, r6
    7e30:	1c20      	adds	r0, r4, #0
    7e32:	1c39      	adds	r1, r7, #0
    7e34:	f7ff f8ce 	bl	6fd4 <__aeabi_uidiv>
    7e38:	4659      	mov	r1, fp
    7e3a:	4341      	muls	r1, r0
    7e3c:	1c06      	adds	r6, r0, #0
    7e3e:	4689      	mov	r9, r1
    7e40:	1c20      	adds	r0, r4, #0
    7e42:	1c39      	adds	r1, r7, #0
    7e44:	f7ff f906 	bl	7054 <__aeabi_uidivmod>
    7e48:	4b63      	ldr	r3, [pc, #396]	(7fd8 <__divdi3+0x340>)
    7e4a:	4652      	mov	r2, sl
    7e4c:	0409      	lsls	r1, r1, #16
    7e4e:	4013      	ands	r3, r2
    7e50:	4319      	orrs	r1, r3
    7e52:	4589      	cmp	r9, r1
    7e54:	d906      	bls.n	7e64 <__divdi3+0x1cc>
    7e56:	1949      	adds	r1, r1, r5
    7e58:	3e01      	subs	r6, #1
    7e5a:	428d      	cmp	r5, r1
    7e5c:	d802      	bhi.n	7e64 <__divdi3+0x1cc>
    7e5e:	4589      	cmp	r9, r1
    7e60:	d900      	bls.n	7e64 <__divdi3+0x1cc>
    7e62:	3e01      	subs	r6, #1
    7e64:	4644      	mov	r4, r8
    7e66:	0423      	lsls	r3, r4, #16
    7e68:	1c32      	adds	r2, r6, #0
    7e6a:	431a      	orrs	r2, r3
    7e6c:	9806      	ldr	r0, [sp, #24]
    7e6e:	e78f      	b.n	7d90 <__divdi3+0xf8>
    7e70:	4b59      	ldr	r3, [pc, #356]	(7fd8 <__divdi3+0x340>)
    7e72:	4299      	cmp	r1, r3
    7e74:	d930      	bls.n	7ed8 <__divdi3+0x240>
    7e76:	4b5a      	ldr	r3, [pc, #360]	(7fe0 <__divdi3+0x348>)
    7e78:	4299      	cmp	r1, r3
    7e7a:	d800      	bhi.n	7e7e <__divdi3+0x1e6>
    7e7c:	e11a      	b.n	80b4 <__divdi3+0x41c>
    7e7e:	2218      	movs	r2, #24
    7e80:	2008      	movs	r0, #8
    7e82:	4b56      	ldr	r3, [pc, #344]	(7fdc <__divdi3+0x344>)
    7e84:	1c0c      	adds	r4, r1, #0
    7e86:	40d4      	lsrs	r4, r2
    7e88:	5d1b      	ldrb	r3, [r3, r4]
    7e8a:	1ac3      	subs	r3, r0, r3
    7e8c:	4699      	mov	r9, r3
    7e8e:	2b00      	cmp	r3, #0
    7e90:	d12f      	bne.n	7ef2 <__divdi3+0x25a>
    7e92:	42b1      	cmp	r1, r6
    7e94:	d302      	bcc.n	7e9c <__divdi3+0x204>
    7e96:	4555      	cmp	r5, sl
    7e98:	d900      	bls.n	7e9c <__divdi3+0x204>
    7e9a:	e777      	b.n	7d8c <__divdi3+0xf4>
    7e9c:	2201      	movs	r2, #1
    7e9e:	2000      	movs	r0, #0
    7ea0:	e776      	b.n	7d90 <__divdi3+0xf8>
    7ea2:	1c0e      	adds	r6, r1, #0
    7ea4:	1c05      	adds	r5, r0, #0
    7ea6:	2100      	movs	r1, #0
    7ea8:	4268      	negs	r0, r5
    7eaa:	41b1      	sbcs	r1, r6
    7eac:	9a01      	ldr	r2, [sp, #4]
    7eae:	2601      	movs	r6, #1
    7eb0:	4276      	negs	r6, r6
    7eb2:	9603      	str	r6, [sp, #12]
    7eb4:	2a00      	cmp	r2, #0
    7eb6:	db00      	blt.n	7eba <__divdi3+0x222>
    7eb8:	e702      	b.n	7cc0 <__divdi3+0x28>
    7eba:	9b03      	ldr	r3, [sp, #12]
    7ebc:	9d00      	ldr	r5, [sp, #0]
    7ebe:	9e01      	ldr	r6, [sp, #4]
    7ec0:	43db      	mvns	r3, r3
    7ec2:	9303      	str	r3, [sp, #12]
    7ec4:	2400      	movs	r4, #0
    7ec6:	426b      	negs	r3, r5
    7ec8:	41b4      	sbcs	r4, r6
    7eca:	e6f9      	b.n	7cc0 <__divdi3+0x28>
    7ecc:	2dff      	cmp	r5, #255
    7ece:	d800      	bhi.n	7ed2 <__divdi3+0x23a>
    7ed0:	e0ea      	b.n	80a8 <__divdi3+0x410>
    7ed2:	2208      	movs	r2, #8
    7ed4:	2118      	movs	r1, #24
    7ed6:	e780      	b.n	7dda <__divdi3+0x142>
    7ed8:	29ff      	cmp	r1, #255
    7eda:	d800      	bhi.n	7ede <__divdi3+0x246>
    7edc:	e0f0      	b.n	80c0 <__divdi3+0x428>
    7ede:	2208      	movs	r2, #8
    7ee0:	2018      	movs	r0, #24
    7ee2:	e7ce      	b.n	7e82 <__divdi3+0x1ea>
    7ee4:	4b3e      	ldr	r3, [pc, #248]	(7fe0 <__divdi3+0x348>)
    7ee6:	429d      	cmp	r5, r3
    7ee8:	d800      	bhi.n	7eec <__divdi3+0x254>
    7eea:	e0ec      	b.n	80c6 <__divdi3+0x42e>
    7eec:	2218      	movs	r2, #24
    7eee:	2108      	movs	r1, #8
    7ef0:	e6f7      	b.n	7ce2 <__divdi3+0x4a>
    7ef2:	1c18      	adds	r0, r3, #0
    7ef4:	4099      	lsls	r1, r3
    7ef6:	2320      	movs	r3, #32
    7ef8:	1a1b      	subs	r3, r3, r0
    7efa:	1c2a      	adds	r2, r5, #0
    7efc:	40da      	lsrs	r2, r3
    7efe:	430a      	orrs	r2, r1
    7f00:	4651      	mov	r1, sl
    7f02:	4690      	mov	r8, r2
    7f04:	40d9      	lsrs	r1, r3
    7f06:	1c34      	adds	r4, r6, #0
    7f08:	1c32      	adds	r2, r6, #0
    7f0a:	40dc      	lsrs	r4, r3
    7f0c:	4082      	lsls	r2, r0
    7f0e:	1c0b      	adds	r3, r1, #0
    7f10:	4313      	orrs	r3, r2
    7f12:	9309      	str	r3, [sp, #36]
    7f14:	4642      	mov	r2, r8
    7f16:	4b30      	ldr	r3, [pc, #192]	(7fd8 <__divdi3+0x340>)
    7f18:	0c17      	lsrs	r7, r2, #16
    7f1a:	4085      	lsls	r5, r0
    7f1c:	401a      	ands	r2, r3
    7f1e:	1c20      	adds	r0, r4, #0
    7f20:	1c39      	adds	r1, r7, #0
    7f22:	9508      	str	r5, [sp, #32]
    7f24:	9204      	str	r2, [sp, #16]
    7f26:	f7ff f855 	bl	6fd4 <__aeabi_uidiv>
    7f2a:	9b04      	ldr	r3, [sp, #16]
    7f2c:	4683      	mov	fp, r0
    7f2e:	1c39      	adds	r1, r7, #0
    7f30:	1c20      	adds	r0, r4, #0
    7f32:	465d      	mov	r5, fp
    7f34:	435d      	muls	r5, r3
    7f36:	f7ff f88d 	bl	7054 <__aeabi_uidivmod>
    7f3a:	9c09      	ldr	r4, [sp, #36]
    7f3c:	0409      	lsls	r1, r1, #16
    7f3e:	0c23      	lsrs	r3, r4, #16
    7f40:	4319      	orrs	r1, r3
    7f42:	428d      	cmp	r5, r1
    7f44:	d909      	bls.n	7f5a <__divdi3+0x2c2>
    7f46:	2601      	movs	r6, #1
    7f48:	4276      	negs	r6, r6
    7f4a:	4441      	add	r1, r8
    7f4c:	44b3      	add	fp, r6
    7f4e:	4588      	cmp	r8, r1
    7f50:	d803      	bhi.n	7f5a <__divdi3+0x2c2>
    7f52:	428d      	cmp	r5, r1
    7f54:	d901      	bls.n	7f5a <__divdi3+0x2c2>
    7f56:	44b3      	add	fp, r6
    7f58:	4441      	add	r1, r8
    7f5a:	1b4c      	subs	r4, r1, r5
    7f5c:	1c20      	adds	r0, r4, #0
    7f5e:	1c39      	adds	r1, r7, #0
    7f60:	f7ff f838 	bl	6fd4 <__aeabi_uidiv>
    7f64:	1c05      	adds	r5, r0, #0
    7f66:	9804      	ldr	r0, [sp, #16]
    7f68:	1c39      	adds	r1, r7, #0
    7f6a:	1c06      	adds	r6, r0, #0
    7f6c:	436e      	muls	r6, r5
    7f6e:	1c20      	adds	r0, r4, #0
    7f70:	f7ff f870 	bl	7054 <__aeabi_uidivmod>
    7f74:	4b18      	ldr	r3, [pc, #96]	(7fd8 <__divdi3+0x340>)
    7f76:	9a09      	ldr	r2, [sp, #36]
    7f78:	0409      	lsls	r1, r1, #16
    7f7a:	4013      	ands	r3, r2
    7f7c:	1c08      	adds	r0, r1, #0
    7f7e:	4318      	orrs	r0, r3
    7f80:	4286      	cmp	r6, r0
    7f82:	d904      	bls.n	7f8e <__divdi3+0x2f6>
    7f84:	4440      	add	r0, r8
    7f86:	3d01      	subs	r5, #1
    7f88:	4580      	cmp	r8, r0
    7f8a:	d800      	bhi.n	7f8e <__divdi3+0x2f6>
    7f8c:	e09e      	b.n	80cc <__divdi3+0x434>
    7f8e:	1b86      	subs	r6, r0, r6
    7f90:	465c      	mov	r4, fp
    7f92:	0423      	lsls	r3, r4, #16
    7f94:	46b4      	mov	ip, r6
    7f96:	1c2e      	adds	r6, r5, #0
    7f98:	431e      	orrs	r6, r3
    7f9a:	9d08      	ldr	r5, [sp, #32]
    7f9c:	4b0e      	ldr	r3, [pc, #56]	(7fd8 <__divdi3+0x340>)
    7f9e:	1c32      	adds	r2, r6, #0
    7fa0:	401a      	ands	r2, r3
    7fa2:	0c34      	lsrs	r4, r6, #16
    7fa4:	402b      	ands	r3, r5
    7fa6:	0c29      	lsrs	r1, r5, #16
    7fa8:	1c1f      	adds	r7, r3, #0
    7faa:	4357      	muls	r7, r2
    7fac:	1c18      	adds	r0, r3, #0
    7fae:	4360      	muls	r0, r4
    7fb0:	434a      	muls	r2, r1
    7fb2:	0c3b      	lsrs	r3, r7, #16
    7fb4:	1882      	adds	r2, r0, r2
    7fb6:	18d2      	adds	r2, r2, r3
    7fb8:	1c0d      	adds	r5, r1, #0
    7fba:	4365      	muls	r5, r4
    7fbc:	4290      	cmp	r0, r2
    7fbe:	d902      	bls.n	7fc6 <__divdi3+0x32e>
    7fc0:	2080      	movs	r0, #128
    7fc2:	0240      	lsls	r0, r0, #9
    7fc4:	182d      	adds	r5, r5, r0
    7fc6:	0c13      	lsrs	r3, r2, #16
    7fc8:	18e9      	adds	r1, r5, r3
    7fca:	458c      	cmp	ip, r1
    7fcc:	d369      	bcc.n	80a2 <__divdi3+0x40a>
    7fce:	458c      	cmp	ip, r1
    7fd0:	d05e      	beq.n	8090 <__divdi3+0x3f8>
    7fd2:	1c32      	adds	r2, r6, #0
    7fd4:	2000      	movs	r0, #0
    7fd6:	e6db      	b.n	7d90 <__divdi3+0xf8>
    7fd8:	0000ffff 	.word	0x0000ffff
    7fdc:	00008ea0 	.word	0x00008ea0
    7fe0:	00ffffff 	.word	0x00ffffff
    7fe4:	1c1a      	adds	r2, r3, #0
    7fe6:	409d      	lsls	r5, r3
    7fe8:	2320      	movs	r3, #32
    7fea:	1a9b      	subs	r3, r3, r2
    7fec:	4651      	mov	r1, sl
    7fee:	1c34      	adds	r4, r6, #0
    7ff0:	1c32      	adds	r2, r6, #0
    7ff2:	4648      	mov	r0, r9
    7ff4:	40d9      	lsrs	r1, r3
    7ff6:	4082      	lsls	r2, r0
    7ff8:	40dc      	lsrs	r4, r3
    7ffa:	1c0b      	adds	r3, r1, #0
    7ffc:	4313      	orrs	r3, r2
    7ffe:	9307      	str	r3, [sp, #28]
    8000:	4b38      	ldr	r3, [pc, #224]	(80e4 <__divdi3+0x44c>)
    8002:	0c2f      	lsrs	r7, r5, #16
    8004:	402b      	ands	r3, r5
    8006:	1c39      	adds	r1, r7, #0
    8008:	1c20      	adds	r0, r4, #0
    800a:	469b      	mov	fp, r3
    800c:	f7fe ffe2 	bl	6fd4 <__aeabi_uidiv>
    8010:	1c39      	adds	r1, r7, #0
    8012:	9005      	str	r0, [sp, #20]
    8014:	465e      	mov	r6, fp
    8016:	4346      	muls	r6, r0
    8018:	1c20      	adds	r0, r4, #0
    801a:	f7ff f81b 	bl	7054 <__aeabi_uidivmod>
    801e:	9a07      	ldr	r2, [sp, #28]
    8020:	0409      	lsls	r1, r1, #16
    8022:	0c13      	lsrs	r3, r2, #16
    8024:	430b      	orrs	r3, r1
    8026:	429e      	cmp	r6, r3
    8028:	d90a      	bls.n	8040 <__divdi3+0x3a8>
    802a:	9c05      	ldr	r4, [sp, #20]
    802c:	195b      	adds	r3, r3, r5
    802e:	3c01      	subs	r4, #1
    8030:	9405      	str	r4, [sp, #20]
    8032:	429d      	cmp	r5, r3
    8034:	d804      	bhi.n	8040 <__divdi3+0x3a8>
    8036:	429e      	cmp	r6, r3
    8038:	d902      	bls.n	8040 <__divdi3+0x3a8>
    803a:	3c01      	subs	r4, #1
    803c:	9405      	str	r4, [sp, #20]
    803e:	195b      	adds	r3, r3, r5
    8040:	1b9c      	subs	r4, r3, r6
    8042:	1c39      	adds	r1, r7, #0
    8044:	1c20      	adds	r0, r4, #0
    8046:	f7fe ffc5 	bl	6fd4 <__aeabi_uidiv>
    804a:	1c06      	adds	r6, r0, #0
    804c:	4658      	mov	r0, fp
    804e:	4370      	muls	r0, r6
    8050:	1c39      	adds	r1, r7, #0
    8052:	4680      	mov	r8, r0
    8054:	1c20      	adds	r0, r4, #0
    8056:	f7fe fffd 	bl	7054 <__aeabi_uidivmod>
    805a:	4b22      	ldr	r3, [pc, #136]	(80e4 <__divdi3+0x44c>)
    805c:	9a07      	ldr	r2, [sp, #28]
    805e:	0409      	lsls	r1, r1, #16
    8060:	4013      	ands	r3, r2
    8062:	1c08      	adds	r0, r1, #0
    8064:	4318      	orrs	r0, r3
    8066:	4580      	cmp	r8, r0
    8068:	d907      	bls.n	807a <__divdi3+0x3e2>
    806a:	1940      	adds	r0, r0, r5
    806c:	3e01      	subs	r6, #1
    806e:	4285      	cmp	r5, r0
    8070:	d803      	bhi.n	807a <__divdi3+0x3e2>
    8072:	4580      	cmp	r8, r0
    8074:	d901      	bls.n	807a <__divdi3+0x3e2>
    8076:	3e01      	subs	r6, #1
    8078:	1940      	adds	r0, r0, r5
    807a:	4653      	mov	r3, sl
    807c:	464c      	mov	r4, r9
    807e:	9a05      	ldr	r2, [sp, #20]
    8080:	40a3      	lsls	r3, r4
    8082:	469a      	mov	sl, r3
    8084:	0413      	lsls	r3, r2, #16
    8086:	4641      	mov	r1, r8
    8088:	431e      	orrs	r6, r3
    808a:	1a44      	subs	r4, r0, r1
    808c:	9606      	str	r6, [sp, #24]
    808e:	e6b4      	b.n	7dfa <__divdi3+0x162>
    8090:	464b      	mov	r3, r9
    8092:	4651      	mov	r1, sl
    8094:	4099      	lsls	r1, r3
    8096:	0413      	lsls	r3, r2, #16
    8098:	4a12      	ldr	r2, [pc, #72]	(80e4 <__divdi3+0x44c>)
    809a:	403a      	ands	r2, r7
    809c:	189b      	adds	r3, r3, r2
    809e:	4299      	cmp	r1, r3
    80a0:	d297      	bcs.n	7fd2 <__divdi3+0x33a>
    80a2:	1e72      	subs	r2, r6, #1
    80a4:	2000      	movs	r0, #0
    80a6:	e673      	b.n	7d90 <__divdi3+0xf8>
    80a8:	2200      	movs	r2, #0
    80aa:	2120      	movs	r1, #32
    80ac:	e695      	b.n	7dda <__divdi3+0x142>
    80ae:	2200      	movs	r2, #0
    80b0:	2120      	movs	r1, #32
    80b2:	e616      	b.n	7ce2 <__divdi3+0x4a>
    80b4:	2210      	movs	r2, #16
    80b6:	2010      	movs	r0, #16
    80b8:	e6e3      	b.n	7e82 <__divdi3+0x1ea>
    80ba:	2210      	movs	r2, #16
    80bc:	2110      	movs	r1, #16
    80be:	e68c      	b.n	7dda <__divdi3+0x142>
    80c0:	2200      	movs	r2, #0
    80c2:	2020      	movs	r0, #32
    80c4:	e6dd      	b.n	7e82 <__divdi3+0x1ea>
    80c6:	2210      	movs	r2, #16
    80c8:	2110      	movs	r1, #16
    80ca:	e60a      	b.n	7ce2 <__divdi3+0x4a>
    80cc:	4286      	cmp	r6, r0
    80ce:	d800      	bhi.n	80d2 <__divdi3+0x43a>
    80d0:	e75d      	b.n	7f8e <__divdi3+0x2f6>
    80d2:	3d01      	subs	r5, #1
    80d4:	4440      	add	r0, r8
    80d6:	e75a      	b.n	7f8e <__divdi3+0x2f6>
    80d8:	4498      	add	r8, r3
    80da:	1949      	adds	r1, r1, r5
    80dc:	e632      	b.n	7d44 <__divdi3+0xac>
    80de:	4480      	add	r8, r0
    80e0:	1949      	adds	r1, r1, r5
    80e2:	e6a4      	b.n	7e2e <__divdi3+0x196>
    80e4:	0000ffff 	.word	0x0000ffff

000080e8 <__udivdi3>:
    80e8:	b5f0      	push	{r4, r5, r6, r7, lr}
    80ea:	465f      	mov	r7, fp
    80ec:	4656      	mov	r6, sl
    80ee:	464d      	mov	r5, r9
    80f0:	4644      	mov	r4, r8
    80f2:	b4f0      	push	{r4, r5, r6, r7}
    80f4:	1c0e      	adds	r6, r1, #0
    80f6:	b087      	sub	sp, #28
    80f8:	1c19      	adds	r1, r3, #0
    80fa:	1c15      	adds	r5, r2, #0
    80fc:	4682      	mov	sl, r0
    80fe:	1c34      	adds	r4, r6, #0
    8100:	2b00      	cmp	r3, #0
    8102:	d15c      	bne.n	81be <__udivdi3+0xd6>
    8104:	42b2      	cmp	r2, r6
    8106:	d800      	bhi.n	810a <__udivdi3+0x22>
    8108:	e081      	b.n	820e <__udivdi3+0x126>
    810a:	4bb3      	ldr	r3, [pc, #716]	(83d8 <__udivdi3+0x2f0>)
    810c:	429a      	cmp	r2, r3
    810e:	d900      	bls.n	8112 <__udivdi3+0x2a>
    8110:	e0e4      	b.n	82dc <__udivdi3+0x1f4>
    8112:	2aff      	cmp	r2, #255
    8114:	d800      	bhi.n	8118 <__udivdi3+0x30>
    8116:	e1d6      	b.n	84c6 <__udivdi3+0x3de>
    8118:	2208      	movs	r2, #8
    811a:	2118      	movs	r1, #24
    811c:	4baf      	ldr	r3, [pc, #700]	(83dc <__udivdi3+0x2f4>)
    811e:	1c28      	adds	r0, r5, #0
    8120:	40d0      	lsrs	r0, r2
    8122:	5c1b      	ldrb	r3, [r3, r0]
    8124:	1ac9      	subs	r1, r1, r3
    8126:	2900      	cmp	r1, #0
    8128:	d00a      	beq.n	8140 <__udivdi3+0x58>
    812a:	2320      	movs	r3, #32
    812c:	4654      	mov	r4, sl
    812e:	4650      	mov	r0, sl
    8130:	1c32      	adds	r2, r6, #0
    8132:	1a5b      	subs	r3, r3, r1
    8134:	408a      	lsls	r2, r1
    8136:	40dc      	lsrs	r4, r3
    8138:	4088      	lsls	r0, r1
    813a:	408d      	lsls	r5, r1
    813c:	4314      	orrs	r4, r2
    813e:	4682      	mov	sl, r0
    8140:	4ba5      	ldr	r3, [pc, #660]	(83d8 <__udivdi3+0x2f0>)
    8142:	0c2f      	lsrs	r7, r5, #16
    8144:	402b      	ands	r3, r5
    8146:	1c39      	adds	r1, r7, #0
    8148:	1c20      	adds	r0, r4, #0
    814a:	469b      	mov	fp, r3
    814c:	f7fe ff42 	bl	6fd4 <__aeabi_uidiv>
    8150:	1c39      	adds	r1, r7, #0
    8152:	4680      	mov	r8, r0
    8154:	465e      	mov	r6, fp
    8156:	4346      	muls	r6, r0
    8158:	1c20      	adds	r0, r4, #0
    815a:	f7fe ff7b 	bl	7054 <__aeabi_uidivmod>
    815e:	4652      	mov	r2, sl
    8160:	0409      	lsls	r1, r1, #16
    8162:	0c13      	lsrs	r3, r2, #16
    8164:	4319      	orrs	r1, r3
    8166:	428e      	cmp	r6, r1
    8168:	d908      	bls.n	817c <__udivdi3+0x94>
    816a:	2301      	movs	r3, #1
    816c:	425b      	negs	r3, r3
    816e:	1949      	adds	r1, r1, r5
    8170:	4498      	add	r8, r3
    8172:	428d      	cmp	r5, r1
    8174:	d802      	bhi.n	817c <__udivdi3+0x94>
    8176:	428e      	cmp	r6, r1
    8178:	d900      	bls.n	817c <__udivdi3+0x94>
    817a:	e1ad      	b.n	84d8 <__udivdi3+0x3f0>
    817c:	1b8c      	subs	r4, r1, r6
    817e:	1c20      	adds	r0, r4, #0
    8180:	1c39      	adds	r1, r7, #0
    8182:	f7fe ff27 	bl	6fd4 <__aeabi_uidiv>
    8186:	1c06      	adds	r6, r0, #0
    8188:	4658      	mov	r0, fp
    818a:	4370      	muls	r0, r6
    818c:	1c39      	adds	r1, r7, #0
    818e:	4681      	mov	r9, r0
    8190:	1c20      	adds	r0, r4, #0
    8192:	f7fe ff5f 	bl	7054 <__aeabi_uidivmod>
    8196:	4b90      	ldr	r3, [pc, #576]	(83d8 <__udivdi3+0x2f0>)
    8198:	4652      	mov	r2, sl
    819a:	0409      	lsls	r1, r1, #16
    819c:	4013      	ands	r3, r2
    819e:	4319      	orrs	r1, r3
    81a0:	4589      	cmp	r9, r1
    81a2:	d906      	bls.n	81b2 <__udivdi3+0xca>
    81a4:	1949      	adds	r1, r1, r5
    81a6:	3e01      	subs	r6, #1
    81a8:	428d      	cmp	r5, r1
    81aa:	d802      	bhi.n	81b2 <__udivdi3+0xca>
    81ac:	4589      	cmp	r9, r1
    81ae:	d900      	bls.n	81b2 <__udivdi3+0xca>
    81b0:	3e01      	subs	r6, #1
    81b2:	4644      	mov	r4, r8
    81b4:	0423      	lsls	r3, r4, #16
    81b6:	1c32      	adds	r2, r6, #0
    81b8:	431a      	orrs	r2, r3
    81ba:	2300      	movs	r3, #0
    81bc:	e01c      	b.n	81f8 <__udivdi3+0x110>
    81be:	42b3      	cmp	r3, r6
    81c0:	d818      	bhi.n	81f4 <__udivdi3+0x10c>
    81c2:	4b85      	ldr	r3, [pc, #532]	(83d8 <__udivdi3+0x2f0>)
    81c4:	4299      	cmp	r1, r3
    81c6:	d800      	bhi.n	81ca <__udivdi3+0xe2>
    81c8:	e07c      	b.n	82c4 <__udivdi3+0x1dc>
    81ca:	4b85      	ldr	r3, [pc, #532]	(83e0 <__udivdi3+0x2f8>)
    81cc:	4299      	cmp	r1, r3
    81ce:	d800      	bhi.n	81d2 <__udivdi3+0xea>
    81d0:	e16d      	b.n	84ae <__udivdi3+0x3c6>
    81d2:	2218      	movs	r2, #24
    81d4:	2008      	movs	r0, #8
    81d6:	4b81      	ldr	r3, [pc, #516]	(83dc <__udivdi3+0x2f4>)
    81d8:	1c0c      	adds	r4, r1, #0
    81da:	40d4      	lsrs	r4, r2
    81dc:	5d1b      	ldrb	r3, [r3, r4]
    81de:	1ac3      	subs	r3, r0, r3
    81e0:	4699      	mov	r9, r3
    81e2:	2b00      	cmp	r3, #0
    81e4:	d000      	beq.n	81e8 <__udivdi3+0x100>
    81e6:	e083      	b.n	82f0 <__udivdi3+0x208>
    81e8:	42b1      	cmp	r1, r6
    81ea:	d200      	bcs.n	81ee <__udivdi3+0x106>
    81ec:	e07d      	b.n	82ea <__udivdi3+0x202>
    81ee:	4555      	cmp	r5, sl
    81f0:	d800      	bhi.n	81f4 <__udivdi3+0x10c>
    81f2:	e07a      	b.n	82ea <__udivdi3+0x202>
    81f4:	2200      	movs	r2, #0
    81f6:	2300      	movs	r3, #0
    81f8:	b007      	add	sp, #28
    81fa:	1c10      	adds	r0, r2, #0
    81fc:	1c19      	adds	r1, r3, #0
    81fe:	bc3c      	pop	{r2, r3, r4, r5}
    8200:	4690      	mov	r8, r2
    8202:	4699      	mov	r9, r3
    8204:	46a2      	mov	sl, r4
    8206:	46ab      	mov	fp, r5
    8208:	bcf0      	pop	{r4, r5, r6, r7}
    820a:	bc04      	pop	{r2}
    820c:	4710      	bx	r2
    820e:	2a00      	cmp	r2, #0
    8210:	d104      	bne.n	821c <__udivdi3+0x134>
    8212:	2001      	movs	r0, #1
    8214:	2100      	movs	r1, #0
    8216:	f7fe fedd 	bl	6fd4 <__aeabi_uidiv>
    821a:	1c05      	adds	r5, r0, #0
    821c:	4b6e      	ldr	r3, [pc, #440]	(83d8 <__udivdi3+0x2f0>)
    821e:	429d      	cmp	r5, r3
    8220:	d956      	bls.n	82d0 <__udivdi3+0x1e8>
    8222:	4b6f      	ldr	r3, [pc, #444]	(83e0 <__udivdi3+0x2f8>)
    8224:	429d      	cmp	r5, r3
    8226:	d800      	bhi.n	822a <__udivdi3+0x142>
    8228:	e147      	b.n	84ba <__udivdi3+0x3d2>
    822a:	2218      	movs	r2, #24
    822c:	2108      	movs	r1, #8
    822e:	4b6b      	ldr	r3, [pc, #428]	(83dc <__udivdi3+0x2f4>)
    8230:	1c28      	adds	r0, r5, #0
    8232:	40d0      	lsrs	r0, r2
    8234:	5c1b      	ldrb	r3, [r3, r0]
    8236:	1acb      	subs	r3, r1, r3
    8238:	4699      	mov	r9, r3
    823a:	2b00      	cmp	r3, #0
    823c:	d000      	beq.n	8240 <__udivdi3+0x158>
    823e:	e0d1      	b.n	83e4 <__udivdi3+0x2fc>
    8240:	4b65      	ldr	r3, [pc, #404]	(83d8 <__udivdi3+0x2f0>)
    8242:	2101      	movs	r1, #1
    8244:	402b      	ands	r3, r5
    8246:	9102      	str	r1, [sp, #8]
    8248:	1b74      	subs	r4, r6, r5
    824a:	0c2f      	lsrs	r7, r5, #16
    824c:	469b      	mov	fp, r3
    824e:	1c20      	adds	r0, r4, #0
    8250:	1c39      	adds	r1, r7, #0
    8252:	f7fe febf 	bl	6fd4 <__aeabi_uidiv>
    8256:	1c39      	adds	r1, r7, #0
    8258:	4680      	mov	r8, r0
    825a:	465e      	mov	r6, fp
    825c:	4346      	muls	r6, r0
    825e:	1c20      	adds	r0, r4, #0
    8260:	f7fe fef8 	bl	7054 <__aeabi_uidivmod>
    8264:	4654      	mov	r4, sl
    8266:	0409      	lsls	r1, r1, #16
    8268:	0c23      	lsrs	r3, r4, #16
    826a:	4319      	orrs	r1, r3
    826c:	428e      	cmp	r6, r1
    826e:	d908      	bls.n	8282 <__udivdi3+0x19a>
    8270:	2001      	movs	r0, #1
    8272:	4240      	negs	r0, r0
    8274:	1949      	adds	r1, r1, r5
    8276:	4480      	add	r8, r0
    8278:	428d      	cmp	r5, r1
    827a:	d802      	bhi.n	8282 <__udivdi3+0x19a>
    827c:	428e      	cmp	r6, r1
    827e:	d900      	bls.n	8282 <__udivdi3+0x19a>
    8280:	e12d      	b.n	84de <__udivdi3+0x3f6>
    8282:	1b8c      	subs	r4, r1, r6
    8284:	1c20      	adds	r0, r4, #0
    8286:	1c39      	adds	r1, r7, #0
    8288:	f7fe fea4 	bl	6fd4 <__aeabi_uidiv>
    828c:	4659      	mov	r1, fp
    828e:	4341      	muls	r1, r0
    8290:	1c06      	adds	r6, r0, #0
    8292:	4689      	mov	r9, r1
    8294:	1c20      	adds	r0, r4, #0
    8296:	1c39      	adds	r1, r7, #0
    8298:	f7fe fedc 	bl	7054 <__aeabi_uidivmod>
    829c:	4b4e      	ldr	r3, [pc, #312]	(83d8 <__udivdi3+0x2f0>)
    829e:	4652      	mov	r2, sl
    82a0:	0409      	lsls	r1, r1, #16
    82a2:	4013      	ands	r3, r2
    82a4:	4319      	orrs	r1, r3
    82a6:	4589      	cmp	r9, r1
    82a8:	d906      	bls.n	82b8 <__udivdi3+0x1d0>
    82aa:	1949      	adds	r1, r1, r5
    82ac:	3e01      	subs	r6, #1
    82ae:	428d      	cmp	r5, r1
    82b0:	d802      	bhi.n	82b8 <__udivdi3+0x1d0>
    82b2:	4589      	cmp	r9, r1
    82b4:	d900      	bls.n	82b8 <__udivdi3+0x1d0>
    82b6:	3e01      	subs	r6, #1
    82b8:	4644      	mov	r4, r8
    82ba:	0423      	lsls	r3, r4, #16
    82bc:	1c32      	adds	r2, r6, #0
    82be:	431a      	orrs	r2, r3
    82c0:	9b02      	ldr	r3, [sp, #8]
    82c2:	e799      	b.n	81f8 <__udivdi3+0x110>
    82c4:	29ff      	cmp	r1, #255
    82c6:	d800      	bhi.n	82ca <__udivdi3+0x1e2>
    82c8:	e0ee      	b.n	84a8 <__udivdi3+0x3c0>
    82ca:	2208      	movs	r2, #8
    82cc:	2018      	movs	r0, #24
    82ce:	e782      	b.n	81d6 <__udivdi3+0xee>
    82d0:	2dff      	cmp	r5, #255
    82d2:	d800      	bhi.n	82d6 <__udivdi3+0x1ee>
    82d4:	e0f4      	b.n	84c0 <__udivdi3+0x3d8>
    82d6:	2208      	movs	r2, #8
    82d8:	2118      	movs	r1, #24
    82da:	e7a8      	b.n	822e <__udivdi3+0x146>
    82dc:	4b40      	ldr	r3, [pc, #256]	(83e0 <__udivdi3+0x2f8>)
    82de:	429a      	cmp	r2, r3
    82e0:	d800      	bhi.n	82e4 <__udivdi3+0x1fc>
    82e2:	e0e7      	b.n	84b4 <__udivdi3+0x3cc>
    82e4:	2218      	movs	r2, #24
    82e6:	2108      	movs	r1, #8
    82e8:	e718      	b.n	811c <__udivdi3+0x34>
    82ea:	2201      	movs	r2, #1
    82ec:	2300      	movs	r3, #0
    82ee:	e783      	b.n	81f8 <__udivdi3+0x110>
    82f0:	1c18      	adds	r0, r3, #0
    82f2:	4099      	lsls	r1, r3
    82f4:	2320      	movs	r3, #32
    82f6:	1a1b      	subs	r3, r3, r0
    82f8:	1c2a      	adds	r2, r5, #0
    82fa:	40da      	lsrs	r2, r3
    82fc:	430a      	orrs	r2, r1
    82fe:	4651      	mov	r1, sl
    8300:	4690      	mov	r8, r2
    8302:	40d9      	lsrs	r1, r3
    8304:	1c34      	adds	r4, r6, #0
    8306:	1c32      	adds	r2, r6, #0
    8308:	40dc      	lsrs	r4, r3
    830a:	4082      	lsls	r2, r0
    830c:	1c0b      	adds	r3, r1, #0
    830e:	4313      	orrs	r3, r2
    8310:	9305      	str	r3, [sp, #20]
    8312:	4642      	mov	r2, r8
    8314:	4b30      	ldr	r3, [pc, #192]	(83d8 <__udivdi3+0x2f0>)
    8316:	0c17      	lsrs	r7, r2, #16
    8318:	4085      	lsls	r5, r0
    831a:	401a      	ands	r2, r3
    831c:	1c20      	adds	r0, r4, #0
    831e:	1c39      	adds	r1, r7, #0
    8320:	9504      	str	r5, [sp, #16]
    8322:	9200      	str	r2, [sp, #0]
    8324:	f7fe fe56 	bl	6fd4 <__aeabi_uidiv>
    8328:	9b00      	ldr	r3, [sp, #0]
    832a:	4683      	mov	fp, r0
    832c:	1c39      	adds	r1, r7, #0
    832e:	1c20      	adds	r0, r4, #0
    8330:	465d      	mov	r5, fp
    8332:	435d      	muls	r5, r3
    8334:	f7fe fe8e 	bl	7054 <__aeabi_uidivmod>
    8338:	9c05      	ldr	r4, [sp, #20]
    833a:	0409      	lsls	r1, r1, #16
    833c:	0c23      	lsrs	r3, r4, #16
    833e:	4319      	orrs	r1, r3
    8340:	428d      	cmp	r5, r1
    8342:	d909      	bls.n	8358 <__udivdi3+0x270>
    8344:	2001      	movs	r0, #1
    8346:	4240      	negs	r0, r0
    8348:	4441      	add	r1, r8
    834a:	4483      	add	fp, r0
    834c:	4588      	cmp	r8, r1
    834e:	d803      	bhi.n	8358 <__udivdi3+0x270>
    8350:	428d      	cmp	r5, r1
    8352:	d901      	bls.n	8358 <__udivdi3+0x270>
    8354:	4483      	add	fp, r0
    8356:	4441      	add	r1, r8
    8358:	1b4c      	subs	r4, r1, r5
    835a:	1c20      	adds	r0, r4, #0
    835c:	1c39      	adds	r1, r7, #0
    835e:	f7fe fe39 	bl	6fd4 <__aeabi_uidiv>
    8362:	9900      	ldr	r1, [sp, #0]
    8364:	1c05      	adds	r5, r0, #0
    8366:	1c0e      	adds	r6, r1, #0
    8368:	4346      	muls	r6, r0
    836a:	1c20      	adds	r0, r4, #0
    836c:	1c39      	adds	r1, r7, #0
    836e:	f7fe fe71 	bl	7054 <__aeabi_uidivmod>
    8372:	4b19      	ldr	r3, [pc, #100]	(83d8 <__udivdi3+0x2f0>)
    8374:	9a05      	ldr	r2, [sp, #20]
    8376:	0409      	lsls	r1, r1, #16
    8378:	4013      	ands	r3, r2
    837a:	1c08      	adds	r0, r1, #0
    837c:	4318      	orrs	r0, r3
    837e:	4286      	cmp	r6, r0
    8380:	d904      	bls.n	838c <__udivdi3+0x2a4>
    8382:	4440      	add	r0, r8
    8384:	3d01      	subs	r5, #1
    8386:	4580      	cmp	r8, r0
    8388:	d800      	bhi.n	838c <__udivdi3+0x2a4>
    838a:	e09f      	b.n	84cc <__udivdi3+0x3e4>
    838c:	1b86      	subs	r6, r0, r6
    838e:	465c      	mov	r4, fp
    8390:	0423      	lsls	r3, r4, #16
    8392:	46b4      	mov	ip, r6
    8394:	1c2e      	adds	r6, r5, #0
    8396:	431e      	orrs	r6, r3
    8398:	9804      	ldr	r0, [sp, #16]
    839a:	4b0f      	ldr	r3, [pc, #60]	(83d8 <__udivdi3+0x2f0>)
    839c:	1c32      	adds	r2, r6, #0
    839e:	401a      	ands	r2, r3
    83a0:	0c01      	lsrs	r1, r0, #16
    83a2:	4003      	ands	r3, r0
    83a4:	0c34      	lsrs	r4, r6, #16
    83a6:	1c1f      	adds	r7, r3, #0
    83a8:	4357      	muls	r7, r2
    83aa:	1c18      	adds	r0, r3, #0
    83ac:	4360      	muls	r0, r4
    83ae:	434a      	muls	r2, r1
    83b0:	0c3b      	lsrs	r3, r7, #16
    83b2:	1882      	adds	r2, r0, r2
    83b4:	18d2      	adds	r2, r2, r3
    83b6:	1c0d      	adds	r5, r1, #0
    83b8:	4365      	muls	r5, r4
    83ba:	4290      	cmp	r0, r2
    83bc:	d902      	bls.n	83c4 <__udivdi3+0x2dc>
    83be:	2180      	movs	r1, #128
    83c0:	0249      	lsls	r1, r1, #9
    83c2:	186d      	adds	r5, r5, r1
    83c4:	0c13      	lsrs	r3, r2, #16
    83c6:	18e9      	adds	r1, r5, r3
    83c8:	458c      	cmp	ip, r1
    83ca:	d36a      	bcc.n	84a2 <__udivdi3+0x3ba>
    83cc:	458c      	cmp	ip, r1
    83ce:	d05f      	beq.n	8490 <__udivdi3+0x3a8>
    83d0:	1c32      	adds	r2, r6, #0
    83d2:	2300      	movs	r3, #0
    83d4:	e710      	b.n	81f8 <__udivdi3+0x110>
    83d6:	46c0      	nop			(mov r8, r8)
    83d8:	0000ffff 	.word	0x0000ffff
    83dc:	00008ea0 	.word	0x00008ea0
    83e0:	00ffffff 	.word	0x00ffffff
    83e4:	1c1a      	adds	r2, r3, #0
    83e6:	409d      	lsls	r5, r3
    83e8:	2320      	movs	r3, #32
    83ea:	1a9b      	subs	r3, r3, r2
    83ec:	4651      	mov	r1, sl
    83ee:	1c34      	adds	r4, r6, #0
    83f0:	1c32      	adds	r2, r6, #0
    83f2:	4648      	mov	r0, r9
    83f4:	40d9      	lsrs	r1, r3
    83f6:	4082      	lsls	r2, r0
    83f8:	40dc      	lsrs	r4, r3
    83fa:	1c0b      	adds	r3, r1, #0
    83fc:	4313      	orrs	r3, r2
    83fe:	9303      	str	r3, [sp, #12]
    8400:	4b38      	ldr	r3, [pc, #224]	(84e4 <__udivdi3+0x3fc>)
    8402:	0c2f      	lsrs	r7, r5, #16
    8404:	402b      	ands	r3, r5
    8406:	1c39      	adds	r1, r7, #0
    8408:	1c20      	adds	r0, r4, #0
    840a:	469b      	mov	fp, r3
    840c:	f7fe fde2 	bl	6fd4 <__aeabi_uidiv>
    8410:	1c39      	adds	r1, r7, #0
    8412:	9001      	str	r0, [sp, #4]
    8414:	465e      	mov	r6, fp
    8416:	4346      	muls	r6, r0
    8418:	1c20      	adds	r0, r4, #0
    841a:	f7fe fe1b 	bl	7054 <__aeabi_uidivmod>
    841e:	9a03      	ldr	r2, [sp, #12]
    8420:	0409      	lsls	r1, r1, #16
    8422:	0c13      	lsrs	r3, r2, #16
    8424:	430b      	orrs	r3, r1
    8426:	429e      	cmp	r6, r3
    8428:	d90a      	bls.n	8440 <__udivdi3+0x358>
    842a:	9c01      	ldr	r4, [sp, #4]
    842c:	195b      	adds	r3, r3, r5
    842e:	3c01      	subs	r4, #1
    8430:	9401      	str	r4, [sp, #4]
    8432:	429d      	cmp	r5, r3
    8434:	d804      	bhi.n	8440 <__udivdi3+0x358>
    8436:	429e      	cmp	r6, r3
    8438:	d902      	bls.n	8440 <__udivdi3+0x358>
    843a:	3c01      	subs	r4, #1
    843c:	9401      	str	r4, [sp, #4]
    843e:	195b      	adds	r3, r3, r5
    8440:	1b9c      	subs	r4, r3, r6
    8442:	1c39      	adds	r1, r7, #0
    8444:	1c20      	adds	r0, r4, #0
    8446:	f7fe fdc5 	bl	6fd4 <__aeabi_uidiv>
    844a:	1c06      	adds	r6, r0, #0
    844c:	4658      	mov	r0, fp
    844e:	4370      	muls	r0, r6
    8450:	1c39      	adds	r1, r7, #0
    8452:	4680      	mov	r8, r0
    8454:	1c20      	adds	r0, r4, #0
    8456:	f7fe fdfd 	bl	7054 <__aeabi_uidivmod>
    845a:	4b22      	ldr	r3, [pc, #136]	(84e4 <__udivdi3+0x3fc>)
    845c:	9a03      	ldr	r2, [sp, #12]
    845e:	0409      	lsls	r1, r1, #16
    8460:	4013      	ands	r3, r2
    8462:	1c08      	adds	r0, r1, #0
    8464:	4318      	orrs	r0, r3
    8466:	4580      	cmp	r8, r0
    8468:	d907      	bls.n	847a <__udivdi3+0x392>
    846a:	1940      	adds	r0, r0, r5
    846c:	3e01      	subs	r6, #1
    846e:	4285      	cmp	r5, r0
    8470:	d803      	bhi.n	847a <__udivdi3+0x392>
    8472:	4580      	cmp	r8, r0
    8474:	d901      	bls.n	847a <__udivdi3+0x392>
    8476:	3e01      	subs	r6, #1
    8478:	1940      	adds	r0, r0, r5
    847a:	4653      	mov	r3, sl
    847c:	464c      	mov	r4, r9
    847e:	9a01      	ldr	r2, [sp, #4]
    8480:	40a3      	lsls	r3, r4
    8482:	469a      	mov	sl, r3
    8484:	0413      	lsls	r3, r2, #16
    8486:	4641      	mov	r1, r8
    8488:	431e      	orrs	r6, r3
    848a:	1a44      	subs	r4, r0, r1
    848c:	9602      	str	r6, [sp, #8]
    848e:	e6de      	b.n	824e <__udivdi3+0x166>
    8490:	464b      	mov	r3, r9
    8492:	4651      	mov	r1, sl
    8494:	4099      	lsls	r1, r3
    8496:	0413      	lsls	r3, r2, #16
    8498:	4a12      	ldr	r2, [pc, #72]	(84e4 <__udivdi3+0x3fc>)
    849a:	403a      	ands	r2, r7
    849c:	189b      	adds	r3, r3, r2
    849e:	4299      	cmp	r1, r3
    84a0:	d296      	bcs.n	83d0 <__udivdi3+0x2e8>
    84a2:	1e72      	subs	r2, r6, #1
    84a4:	2300      	movs	r3, #0
    84a6:	e6a7      	b.n	81f8 <__udivdi3+0x110>
    84a8:	2200      	movs	r2, #0
    84aa:	2020      	movs	r0, #32
    84ac:	e693      	b.n	81d6 <__udivdi3+0xee>
    84ae:	2210      	movs	r2, #16
    84b0:	2010      	movs	r0, #16
    84b2:	e690      	b.n	81d6 <__udivdi3+0xee>
    84b4:	2210      	movs	r2, #16
    84b6:	2110      	movs	r1, #16
    84b8:	e630      	b.n	811c <__udivdi3+0x34>
    84ba:	2210      	movs	r2, #16
    84bc:	2110      	movs	r1, #16
    84be:	e6b6      	b.n	822e <__udivdi3+0x146>
    84c0:	2200      	movs	r2, #0
    84c2:	2120      	movs	r1, #32
    84c4:	e6b3      	b.n	822e <__udivdi3+0x146>
    84c6:	2200      	movs	r2, #0
    84c8:	2120      	movs	r1, #32
    84ca:	e627      	b.n	811c <__udivdi3+0x34>
    84cc:	4286      	cmp	r6, r0
    84ce:	d800      	bhi.n	84d2 <__udivdi3+0x3ea>
    84d0:	e75c      	b.n	838c <__udivdi3+0x2a4>
    84d2:	3d01      	subs	r5, #1
    84d4:	4440      	add	r0, r8
    84d6:	e759      	b.n	838c <__udivdi3+0x2a4>
    84d8:	4498      	add	r8, r3
    84da:	1949      	adds	r1, r1, r5
    84dc:	e64e      	b.n	817c <__udivdi3+0x94>
    84de:	4480      	add	r8, r0
    84e0:	1949      	adds	r1, r1, r5
    84e2:	e6ce      	b.n	8282 <__udivdi3+0x19a>
    84e4:	0000ffff 	.word	0x0000ffff

000084e8 <____aeabi_idiv0_from_arm>:
    84e8:	e51ff004 	ldr	pc, [pc, #-4]	; 84ec <____aeabi_idiv0_from_arm+0x4>
    84ec:	00007119 	.word	0x00007119

000084f0 <____aeabi_ldiv0_from_arm>:
    84f0:	e51ff004 	ldr	pc, [pc, #-4]	; 84f4 <____aeabi_ldiv0_from_arm+0x4>
    84f4:	00007119 	.word	0x00007119

Disassembly of section .rodata:

000084f8 <GetResponse>:
    84f8:	50545448 	.word	0x50545448
    84fc:	302e312f 	.word	0x302e312f
    8500:	30303220 	.word	0x30303220
    8504:	0d4b4f20 	.word	0x0d4b4f20
    8508:	6e6f430a 	.word	0x6e6f430a
    850c:	746e6574 	.word	0x746e6574
    8510:	7079542d 	.word	0x7079542d
    8514:	74203a65 	.word	0x74203a65
    8518:	2f747865 	.word	0x2f747865
    851c:	6c6d7468 	.word	0x6c6d7468
    8520:	0a0d0a0d 	.word	0x0a0d0a0d
	...

00008526 <MyIP>:
    8526:	a8c0      	.short	0xa8c0
    8528:	6e00      	.short	0x6e00

0000852a <SubnetMask>:
    852a:	ffff      	.short	0xffff
    852c:	00ff      	.short	0x00ff

0000852e <GatewayIP>:
    852e:	a8c0      	.short	0xa8c0
    8530:	0000fe00 	.word	0x0000fe00

00008534 <WebSide>:
    8534:	6d74683c 	.word	0x6d74683c
    8538:	0a0d3e6c 	.word	0x0a0d3e6c
    853c:	6165683c 	.word	0x6165683c
    8540:	0a0d3e64 	.word	0x0a0d3e64
    8544:	74656d3c 	.word	0x74656d3c
    8548:	74682061 	.word	0x74682061
    854c:	652d7074 	.word	0x652d7074
    8550:	76697571 	.word	0x76697571
    8554:	6572223d 	.word	0x6572223d
    8558:	73657266 	.word	0x73657266
    855c:	63202268 	.word	0x63202268
    8560:	65746e6f 	.word	0x65746e6f
    8564:	223d746e 	.word	0x223d746e
    8568:	0d3e2235 	.word	0x0d3e2235
    856c:	69743c0a 	.word	0x69743c0a
    8570:	3e656c74 	.word	0x3e656c74
    8574:	79736165 	.word	0x79736165
    8578:	20424557 	.word	0x20424557
    857c:	7964202d 	.word	0x7964202d
    8580:	696d616e 	.word	0x696d616e
    8584:	65572063 	.word	0x65572063
    8588:	64697362 	.word	0x64697362
    858c:	742f3c65 	.word	0x742f3c65
    8590:	656c7469 	.word	0x656c7469
    8594:	3c0a0d3e 	.word	0x3c0a0d3e
    8598:	6165682f 	.word	0x6165682f
    859c:	0a0d3e64 	.word	0x0a0d3e64
    85a0:	623c0a0d 	.word	0x623c0a0d
    85a4:	2079646f 	.word	0x2079646f
    85a8:	6f636762 	.word	0x6f636762
    85ac:	3d726f6c 	.word	0x3d726f6c
    85b0:	30332322 	.word	0x30332322
    85b4:	30413033 	.word	0x30413033
    85b8:	65742022 	.word	0x65742022
    85bc:	223d7478 	.word	0x223d7478
    85c0:	46464623 	.word	0x46464623
    85c4:	22303046 	.word	0x22303046
    85c8:	3c0a0d3e 	.word	0x3c0a0d3e
    85cc:	623c3e70 	.word	0x623c3e70
    85d0:	6f663c3e 	.word	0x6f663c3e
    85d4:	6320746e 	.word	0x6320746e
    85d8:	726f6c6f 	.word	0x726f6c6f
    85dc:	4623223d 	.word	0x4623223d
    85e0:	46464646 	.word	0x46464646
    85e4:	73202246 	.word	0x73202246
    85e8:	3d657a69 	.word	0x3d657a69
    85ec:	3e223622 	.word	0x3e223622
    85f0:	483e693c 	.word	0x483e693c
    85f4:	6f6c6c65 	.word	0x6f6c6c65
    85f8:	6f654720 	.word	0x6f654720
    85fc:	21656772 	.word	0x21656772
    8600:	3e692f3c 	.word	0x3e692f3c
    8604:	6f662f3c 	.word	0x6f662f3c
    8608:	3c3e746e 	.word	0x3c3e746e
    860c:	3c3e622f 	.word	0x3c3e622f
    8610:	0d3e702f 	.word	0x0d3e702f
    8614:	3c0a0d0a 	.word	0x3c0a0d0a
    8618:	623c3e70 	.word	0x623c3e70
    861c:	6968543e 	.word	0x6968543e
    8620:	73692073 	.word	0x73692073
    8624:	64206120 	.word	0x64206120
    8628:	6d616e79 	.word	0x6d616e79
    862c:	77206369 	.word	0x77206369
    8630:	69736265 	.word	0x69736265
    8634:	68206574 	.word	0x68206574
    8638:	6574736f 	.word	0x6574736f
    863c:	79622064 	.word	0x79622064
    8640:	65687420 	.word	0x65687420
    8644:	626d6520 	.word	0x626d6520
    8648:	65646465 	.word	0x65646465
    864c:	65572064 	.word	0x65572064
    8650:	72657362 	.word	0x72657362
    8654:	3c726576 	.word	0x3c726576
    8658:	203e622f 	.word	0x203e622f
    865c:	653e623c 	.word	0x653e623c
    8660:	57797361 	.word	0x57797361
    8664:	3c2e4245 	.word	0x3c2e4245
    8668:	3c3e622f 	.word	0x3c3e622f
    866c:	0d3e702f 	.word	0x0d3e702f
    8670:	3e703c0a 	.word	0x3e703c0a
    8674:	483e623c 	.word	0x483e623c
    8678:	77647261 	.word	0x77647261
    867c:	3a657261 	.word	0x3a657261
    8680:	3e622f3c 	.word	0x3e622f3c
    8684:	3e702f3c 	.word	0x3e702f3c
    8688:	753c0a0d 	.word	0x753c0a0d
    868c:	0a0d3e6c 	.word	0x0a0d3e6c
    8690:	3e696c3c 	.word	0x3e696c3c
    8694:	4b3e623c 	.word	0x4b3e623c
    8698:	206c6965 	.word	0x206c6965
    869c:	3142434d 	.word	0x3142434d
    86a0:	20303037 	.word	0x20303037
    86a4:	72616f62 	.word	0x72616f62
    86a8:	622f3c64 	.word	0x622f3c64
    86ac:	6c2f3c3e 	.word	0x6c2f3c3e
    86b0:	0a0d3e69 	.word	0x0a0d3e69
    86b4:	3e696c3c 	.word	0x3e696c3c
    86b8:	453e623c 	.word	0x453e623c
    86bc:	6465626d 	.word	0x6465626d
    86c0:	20646564 	.word	0x20646564
    86c4:	43414d45 	.word	0x43414d45
    86c8:	68744520 	.word	0x68744520
    86cc:	656e7265 	.word	0x656e7265
    86d0:	6f432074 	.word	0x6f432074
    86d4:	6f72746e 	.word	0x6f72746e
    86d8:	72656c6c 	.word	0x72656c6c
    86dc:	3e622f3c 	.word	0x3e622f3c
    86e0:	696c2f3c 	.word	0x696c2f3c
    86e4:	3c0a0d3e 	.word	0x3c0a0d3e
    86e8:	3e6c752f 	.word	0x3e6c752f
    86ec:	0a0d0a0d 	.word	0x0a0d0a0d
    86f0:	3c3e703c 	.word	0x3c3e703c
    86f4:	2f413e62 	.word	0x2f413e62
    86f8:	6f432044 	.word	0x6f432044
    86fc:	7265766e 	.word	0x7265766e
    8700:	20726574 	.word	0x20726574
    8704:	75706e49 	.word	0x75706e49
    8708:	3a322074 	.word	0x3a322074
    870c:	3e622f3c 	.word	0x3e622f3c
    8710:	3e702f3c 	.word	0x3e702f3c
    8714:	0a0d0a0d 	.word	0x0a0d0a0d
    8718:	6261743c 	.word	0x6261743c
    871c:	6220656c 	.word	0x6220656c
    8720:	6c6f6367 	.word	0x6c6f6367
    8724:	223d726f 	.word	0x223d726f
    8728:	30666623 	.word	0x30666623
    872c:	22303030 	.word	0x22303030
    8730:	726f6220 	.word	0x726f6220
    8734:	3d726564 	.word	0x3d726564
    8738:	20223522 	.word	0x20223522
    873c:	6c6c6563 	.word	0x6c6c6563
    8740:	64646170 	.word	0x64646170
    8744:	3d676e69 	.word	0x3d676e69
    8748:	20223022 	.word	0x20223022
    874c:	6c6c6563 	.word	0x6c6c6563
    8750:	63617073 	.word	0x63617073
    8754:	3d676e69 	.word	0x3d676e69
    8758:	20223022 	.word	0x20223022
    875c:	74646977 	.word	0x74646977
    8760:	35223d68 	.word	0x35223d68
    8764:	3e223030 	.word	0x3e223030
    8768:	743c0a0d 	.word	0x743c0a0d
    876c:	0a0d3e72 	.word	0x0a0d3e72
    8770:	3e64743c 	.word	0x3e64743c
    8774:	743c0a0d 	.word	0x743c0a0d
    8778:	656c6261 	.word	0x656c6261
    877c:	64697720 	.word	0x64697720
    8780:	223d6874 	.word	0x223d6874
    8784:	25374441 	.word	0x25374441
    8788:	6f622022 	.word	0x6f622022
    878c:	72656472 	.word	0x72656472
    8790:	2230223d 	.word	0x2230223d
    8794:	6c656320 	.word	0x6c656320
    8798:	6461706c 	.word	0x6461706c
    879c:	676e6964 	.word	0x676e6964
    87a0:	2230223d 	.word	0x2230223d
    87a4:	6c656320 	.word	0x6c656320
    87a8:	6170736c 	.word	0x6170736c
    87ac:	676e6963 	.word	0x676e6963
    87b0:	2230223d 	.word	0x2230223d
    87b4:	3c0a0d3e 	.word	0x3c0a0d3e
    87b8:	3c3e7274 	.word	0x3c3e7274
    87bc:	62206474 	.word	0x62206474
    87c0:	6c6f6367 	.word	0x6c6f6367
    87c4:	223d726f 	.word	0x223d726f
    87c8:	66303023 	.word	0x66303023
    87cc:	22303066 	.word	0x22303066
    87d0:	626e263e 	.word	0x626e263e
    87d4:	3c3b7073 	.word	0x3c3b7073
    87d8:	3e64742f 	.word	0x3e64742f
    87dc:	72742f3c 	.word	0x72742f3c
    87e0:	3c0a0d3e 	.word	0x3c0a0d3e
    87e4:	6261742f 	.word	0x6261742f
    87e8:	0d3e656c 	.word	0x0d3e656c
    87ec:	742f3c0a 	.word	0x742f3c0a
    87f0:	0a0d3e64 	.word	0x0a0d3e64
    87f4:	72742f3c 	.word	0x72742f3c
    87f8:	3c0a0d3e 	.word	0x3c0a0d3e
    87fc:	6261742f 	.word	0x6261742f
    8800:	0d3e656c 	.word	0x0d3e656c
    8804:	3c0a0d0a 	.word	0x3c0a0d0a
    8808:	6c626174 	.word	0x6c626174
    880c:	6f622065 	.word	0x6f622065
    8810:	72656472 	.word	0x72656472
    8814:	2230223d 	.word	0x2230223d
    8818:	64697720 	.word	0x64697720
    881c:	223d6874 	.word	0x223d6874
    8820:	22303435 	.word	0x22303435
    8824:	3c0a0d3e 	.word	0x3c0a0d3e
    8828:	0d3e7274 	.word	0x0d3e7274
    882c:	64743c0a 	.word	0x64743c0a
    8830:	64697720 	.word	0x64697720
    8834:	223d6874 	.word	0x223d6874
    8838:	22253431 	.word	0x22253431
    883c:	3c56303e 	.word	0x3c56303e
    8840:	3e64742f 	.word	0x3e64742f
    8844:	743c0a0d 	.word	0x743c0a0d
    8848:	69772064 	.word	0x69772064
    884c:	3d687464 	.word	0x3d687464
    8850:	25343122 	.word	0x25343122
    8854:	2e303e22 	.word	0x2e303e22
    8858:	2f3c5635 	.word	0x2f3c5635
    885c:	0d3e6474 	.word	0x0d3e6474
    8860:	64743c0a 	.word	0x64743c0a
    8864:	64697720 	.word	0x64697720
    8868:	223d6874 	.word	0x223d6874
    886c:	22253431 	.word	0x22253431
    8870:	3c56313e 	.word	0x3c56313e
    8874:	3e64742f 	.word	0x3e64742f
    8878:	743c0a0d 	.word	0x743c0a0d
    887c:	69772064 	.word	0x69772064
    8880:	3d687464 	.word	0x3d687464
    8884:	25343122 	.word	0x25343122
    8888:	2e313e22 	.word	0x2e313e22
    888c:	2f3c5635 	.word	0x2f3c5635
    8890:	0d3e6474 	.word	0x0d3e6474
    8894:	64743c0a 	.word	0x64743c0a
    8898:	64697720 	.word	0x64697720
    889c:	223d6874 	.word	0x223d6874
    88a0:	22253431 	.word	0x22253431
    88a4:	3c56323e 	.word	0x3c56323e
    88a8:	3e64742f 	.word	0x3e64742f
    88ac:	743c0a0d 	.word	0x743c0a0d
    88b0:	69772064 	.word	0x69772064
    88b4:	3d687464 	.word	0x3d687464
    88b8:	25343122 	.word	0x25343122
    88bc:	2e323e22 	.word	0x2e323e22
    88c0:	2f3c5635 	.word	0x2f3c5635
    88c4:	0d3e6474 	.word	0x0d3e6474
    88c8:	64743c0a 	.word	0x64743c0a
    88cc:	64697720 	.word	0x64697720
    88d0:	223d6874 	.word	0x223d6874
    88d4:	22253431 	.word	0x22253431
    88d8:	3c56333e 	.word	0x3c56333e
    88dc:	3e64742f 	.word	0x3e64742f
    88e0:	2f3c0a0d 	.word	0x2f3c0a0d
    88e4:	0d3e7274 	.word	0x0d3e7274
    88e8:	742f3c0a 	.word	0x742f3c0a
    88ec:	656c6261 	.word	0x656c6261
    88f0:	0d0a0d3e 	.word	0x0d0a0d3e
    88f4:	3e703c0a 	.word	0x3e703c0a
    88f8:	413e623c 	.word	0x413e623c
    88fc:	4320442f 	.word	0x4320442f
    8900:	65766e6f 	.word	0x65766e6f
    8904:	72657472 	.word	0x72657472
    8908:	706e4920 	.word	0x706e4920
    890c:	32207475 	.word	0x32207475
    8910:	6d617328 	.word	0x6d617328
    8914:	3c3a2965 	.word	0x3c3a2965
    8918:	3c3e622f 	.word	0x3c3e622f
    891c:	0d3e702f 	.word	0x0d3e702f
    8920:	3c0a0d0a 	.word	0x3c0a0d0a
    8924:	6c626174 	.word	0x6c626174
    8928:	67622065 	.word	0x67622065
    892c:	6f6c6f63 	.word	0x6f6c6f63
    8930:	23223d72 	.word	0x23223d72
    8934:	30306666 	.word	0x30306666
    8938:	20223030 	.word	0x20223030
    893c:	64726f62 	.word	0x64726f62
    8940:	223d7265 	.word	0x223d7265
    8944:	63202235 	.word	0x63202235
    8948:	706c6c65 	.word	0x706c6c65
    894c:	69646461 	.word	0x69646461
    8950:	223d676e 	.word	0x223d676e
    8954:	63202230 	.word	0x63202230
    8958:	736c6c65 	.word	0x736c6c65
    895c:	69636170 	.word	0x69636170
    8960:	223d676e 	.word	0x223d676e
    8964:	77202230 	.word	0x77202230
    8968:	68746469 	.word	0x68746469
    896c:	3035223d 	.word	0x3035223d
    8970:	0d3e2230 	.word	0x0d3e2230
    8974:	72743c0a 	.word	0x72743c0a
    8978:	3c0a0d3e 	.word	0x3c0a0d3e
    897c:	0d3e6474 	.word	0x0d3e6474
    8980:	61743c0a 	.word	0x61743c0a
    8984:	20656c62 	.word	0x20656c62
    8988:	74646977 	.word	0x74646977
    898c:	41223d68 	.word	0x41223d68
    8990:	22254144 	.word	0x22254144
    8994:	726f6220 	.word	0x726f6220
    8998:	3d726564 	.word	0x3d726564
    899c:	20223022 	.word	0x20223022
    89a0:	6c6c6563 	.word	0x6c6c6563
    89a4:	64646170 	.word	0x64646170
    89a8:	3d676e69 	.word	0x3d676e69
    89ac:	20223022 	.word	0x20223022
    89b0:	6c6c6563 	.word	0x6c6c6563
    89b4:	63617073 	.word	0x63617073
    89b8:	3d676e69 	.word	0x3d676e69
    89bc:	3e223022 	.word	0x3e223022
    89c0:	743c0a0d 	.word	0x743c0a0d
    89c4:	743c3e72 	.word	0x743c3e72
    89c8:	67622064 	.word	0x67622064
    89cc:	6f6c6f63 	.word	0x6f6c6f63
    89d0:	23223d72 	.word	0x23223d72
    89d4:	66663030 	.word	0x66663030
    89d8:	3e223030 	.word	0x3e223030
    89dc:	73626e26 	.word	0x73626e26
    89e0:	2f3c3b70 	.word	0x2f3c3b70
    89e4:	3c3e6474 	.word	0x3c3e6474
    89e8:	3e72742f 	.word	0x3e72742f
    89ec:	3c0a0d20 	.word	0x3c0a0d20
    89f0:	6261742f 	.word	0x6261742f
    89f4:	0d3e656c 	.word	0x0d3e656c
    89f8:	742f3c0a 	.word	0x742f3c0a
    89fc:	0a0d3e64 	.word	0x0a0d3e64
    8a00:	72742f3c 	.word	0x72742f3c
    8a04:	3c0a0d3e 	.word	0x3c0a0d3e
    8a08:	6261742f 	.word	0x6261742f
    8a0c:	0d3e656c 	.word	0x0d3e656c
    8a10:	3c0a0d0a 	.word	0x3c0a0d0a
    8a14:	6c626174 	.word	0x6c626174
    8a18:	6f622065 	.word	0x6f622065
    8a1c:	72656472 	.word	0x72656472
    8a20:	2230223d 	.word	0x2230223d
    8a24:	64697720 	.word	0x64697720
    8a28:	223d6874 	.word	0x223d6874
    8a2c:	22303435 	.word	0x22303435
    8a30:	3c0a0d3e 	.word	0x3c0a0d3e
    8a34:	0d3e7274 	.word	0x0d3e7274
    8a38:	64743c0a 	.word	0x64743c0a
    8a3c:	64697720 	.word	0x64697720
    8a40:	223d6874 	.word	0x223d6874
    8a44:	22253231 	.word	0x22253231
    8a48:	3c56303e 	.word	0x3c56303e
    8a4c:	3e64742f 	.word	0x3e64742f
    8a50:	743c0a0d 	.word	0x743c0a0d
    8a54:	69772064 	.word	0x69772064
    8a58:	3d687464 	.word	0x3d687464
    8a5c:	25323122 	.word	0x25323122
    8a60:	2e303e22 	.word	0x2e303e22
    8a64:	2f3c5635 	.word	0x2f3c5635
    8a68:	0d3e6474 	.word	0x0d3e6474
    8a6c:	64743c0a 	.word	0x64743c0a
    8a70:	64697720 	.word	0x64697720
    8a74:	223d6874 	.word	0x223d6874
    8a78:	22253231 	.word	0x22253231
    8a7c:	3c56313e 	.word	0x3c56313e
    8a80:	3e64742f 	.word	0x3e64742f
    8a84:	743c0a0d 	.word	0x743c0a0d
    8a88:	69772064 	.word	0x69772064
    8a8c:	3d687464 	.word	0x3d687464
    8a90:	25323122 	.word	0x25323122
    8a94:	2e313e22 	.word	0x2e313e22
    8a98:	2f3c5635 	.word	0x2f3c5635
    8a9c:	0d3e6474 	.word	0x0d3e6474
    8aa0:	64743c0a 	.word	0x64743c0a
    8aa4:	64697720 	.word	0x64697720
    8aa8:	223d6874 	.word	0x223d6874
    8aac:	22253231 	.word	0x22253231
    8ab0:	3c56323e 	.word	0x3c56323e
    8ab4:	3e64742f 	.word	0x3e64742f
    8ab8:	743c0a0d 	.word	0x743c0a0d
    8abc:	69772064 	.word	0x69772064
    8ac0:	3d687464 	.word	0x3d687464
    8ac4:	25323122 	.word	0x25323122
    8ac8:	2e323e22 	.word	0x2e323e22
    8acc:	2f3c5635 	.word	0x2f3c5635
    8ad0:	0d3e6474 	.word	0x0d3e6474
    8ad4:	64743c0a 	.word	0x64743c0a
    8ad8:	64697720 	.word	0x64697720
    8adc:	223d6874 	.word	0x223d6874
    8ae0:	22253231 	.word	0x22253231
    8ae4:	3c56333e 	.word	0x3c56333e
    8ae8:	3e64742f 	.word	0x3e64742f
    8aec:	2f3c0a0d 	.word	0x2f3c0a0d
    8af0:	0d3e7274 	.word	0x0d3e7274
    8af4:	742f3c0a 	.word	0x742f3c0a
    8af8:	656c6261 	.word	0x656c6261
    8afc:	3c0a0d3e 	.word	0x3c0a0d3e
    8b00:	646f622f 	.word	0x646f622f
    8b04:	0a0d3e79 	.word	0x0a0d3e79
    8b08:	74682f3c 	.word	0x74682f3c
    8b0c:	0d3e6c6d 	.word	0x0d3e6c6d
    8b10:	000a0d0a 	.word	0x000a0d0a

00008b14 <.LC0>:
    8b14:	00753325 	.word	0x00753325

00008b18 <MyMAC>:
    8b18:	a26c301e 	.word	0xa26c301e
    8b1c:	00005e45 	.word	0x00005e45
    8b20:	0000388c 	.word	0x0000388c
    8b24:	00003480 	.word	0x00003480
    8b28:	00003480 	.word	0x00003480
    8b2c:	000038a4 	.word	0x000038a4
    8b30:	00003480 	.word	0x00003480
    8b34:	00003480 	.word	0x00003480
    8b38:	00003480 	.word	0x00003480
    8b3c:	00003480 	.word	0x00003480
    8b40:	00003480 	.word	0x00003480
    8b44:	00003480 	.word	0x00003480
    8b48:	000038b6 	.word	0x000038b6
    8b4c:	000038d0 	.word	0x000038d0
    8b50:	00003480 	.word	0x00003480
    8b54:	00003b0c 	.word	0x00003b0c
    8b58:	00003b1e 	.word	0x00003b1e
    8b5c:	00003480 	.word	0x00003480
    8b60:	000038e2 	.word	0x000038e2
    8b64:	000038f4 	.word	0x000038f4
    8b68:	000038f4 	.word	0x000038f4
    8b6c:	000038f4 	.word	0x000038f4
    8b70:	000038f4 	.word	0x000038f4
    8b74:	000038f4 	.word	0x000038f4
    8b78:	000038f4 	.word	0x000038f4
    8b7c:	000038f4 	.word	0x000038f4
    8b80:	000038f4 	.word	0x000038f4
    8b84:	000038f4 	.word	0x000038f4
    8b88:	00003480 	.word	0x00003480
    8b8c:	00003480 	.word	0x00003480
    8b90:	00003480 	.word	0x00003480
    8b94:	00003480 	.word	0x00003480
    8b98:	00003480 	.word	0x00003480
    8b9c:	00003480 	.word	0x00003480
    8ba0:	00003480 	.word	0x00003480
    8ba4:	00003480 	.word	0x00003480
    8ba8:	00003480 	.word	0x00003480
    8bac:	00003480 	.word	0x00003480
    8bb0:	00003518 	.word	0x00003518
    8bb4:	00003916 	.word	0x00003916
    8bb8:	00003480 	.word	0x00003480
    8bbc:	00003916 	.word	0x00003916
    8bc0:	00003480 	.word	0x00003480
    8bc4:	00003480 	.word	0x00003480
    8bc8:	00003480 	.word	0x00003480
    8bcc:	00003480 	.word	0x00003480
    8bd0:	0000397a 	.word	0x0000397a
    8bd4:	00003480 	.word	0x00003480
    8bd8:	00003480 	.word	0x00003480
    8bdc:	000034e0 	.word	0x000034e0
    8be0:	00003480 	.word	0x00003480
    8be4:	00003480 	.word	0x00003480
    8be8:	00003480 	.word	0x00003480
    8bec:	00003480 	.word	0x00003480
    8bf0:	00003480 	.word	0x00003480
    8bf4:	000034b0 	.word	0x000034b0
    8bf8:	00003480 	.word	0x00003480
    8bfc:	00003480 	.word	0x00003480
    8c00:	0000397e 	.word	0x0000397e
    8c04:	00003480 	.word	0x00003480
    8c08:	00003480 	.word	0x00003480
    8c0c:	00003480 	.word	0x00003480
    8c10:	00003480 	.word	0x00003480
    8c14:	00003480 	.word	0x00003480
    8c18:	00003480 	.word	0x00003480
    8c1c:	00003480 	.word	0x00003480
    8c20:	00003480 	.word	0x00003480
    8c24:	00003480 	.word	0x00003480
    8c28:	00003480 	.word	0x00003480
    8c2c:	00003aee 	.word	0x00003aee
    8c30:	00003520 	.word	0x00003520
    8c34:	00003916 	.word	0x00003916
    8c38:	00003916 	.word	0x00003916
    8c3c:	00003916 	.word	0x00003916
    8c40:	00003a2c 	.word	0x00003a2c
    8c44:	00003520 	.word	0x00003520
    8c48:	00003480 	.word	0x00003480
    8c4c:	00003480 	.word	0x00003480
    8c50:	00003a3c 	.word	0x00003a3c
    8c54:	00003480 	.word	0x00003480
    8c58:	00003a54 	.word	0x00003a54
    8c5c:	000034e8 	.word	0x000034e8
    8c60:	000039c6 	.word	0x000039c6
    8c64:	000039f6 	.word	0x000039f6
    8c68:	00003480 	.word	0x00003480
    8c6c:	00003a98 	.word	0x00003a98
    8c70:	00003480 	.word	0x00003480
    8c74:	000034b8 	.word	0x000034b8
    8c78:	00003480 	.word	0x00003480
    8c7c:	00003480 	.word	0x00003480
    8c80:	00003a06 	.word	0x00003a06

00008c84 <blanks.3555>:
    8c84:	20202020 	.word	0x20202020
    8c88:	20202020 	.word	0x20202020
    8c8c:	20202020 	.word	0x20202020
    8c90:	20202020 	.word	0x20202020

00008c94 <zeroes.3556>:
    8c94:	30303030 	.word	0x30303030
    8c98:	30303030 	.word	0x30303030
    8c9c:	30303030 	.word	0x30303030
    8ca0:	30303030 	.word	0x30303030
    8ca4:	33323130 	.word	0x33323130
    8ca8:	37363534 	.word	0x37363534
    8cac:	42413938 	.word	0x42413938
    8cb0:	46454443 	.word	0x46454443
    8cb4:	00000000 	.word	0x00000000
    8cb8:	00666e69 	.word	0x00666e69
    8cbc:	00464e49 	.word	0x00464e49
    8cc0:	006e616e 	.word	0x006e616e
    8cc4:	004e414e 	.word	0x004e414e
    8cc8:	33323130 	.word	0x33323130
    8ccc:	37363534 	.word	0x37363534
    8cd0:	62613938 	.word	0x62613938
    8cd4:	66656463 	.word	0x66656463
    8cd8:	00000000 	.word	0x00000000
    8cdc:	6c756e28 	.word	0x6c756e28
    8ce0:	0000296c 	.word	0x0000296c
    8ce4:	20677562 	.word	0x20677562
    8ce8:	76206e69 	.word	0x76206e69
    8cec:	69727066 	.word	0x69727066
    8cf0:	3a66746e 	.word	0x3a66746e
    8cf4:	64616220 	.word	0x64616220
    8cf8:	73616220 	.word	0x73616220
    8cfc:	00000065 	.word	0x00000065
    8d00:	00000030 	.word	0x00000030
    8d04:	00004b1a 	.word	0x00004b1a
    8d08:	00004b1a 	.word	0x00004b1a
    8d0c:	0000525a 	.word	0x0000525a
    8d10:	00005254 	.word	0x00005254
    8d14:	00005240 	.word	0x00005240
    8d18:	00005226 	.word	0x00005226
    8d1c:	69666e49 	.word	0x69666e49
    8d20:	7974696e 	.word	0x7974696e
    8d24:	00000000 	.word	0x00000000
    8d28:	004e614e 	.word	0x004e614e

00008d2c <_global_impure_ptr>:
    8d2c:	10000010 	.word	0x10000010
    8d30:	00000043 	.word	0x00000043

00008d34 <charset>:
    8d34:	00008d6c 	.word	0x00008d6c

00008d38 <lconv>:
    8d38:	00008d68 	.word	0x00008d68
    8d3c:	00008cb4 	.word	0x00008cb4
    8d40:	00008cb4 	.word	0x00008cb4
    8d44:	00008cb4 	.word	0x00008cb4
    8d48:	00008cb4 	.word	0x00008cb4
    8d4c:	00008cb4 	.word	0x00008cb4
    8d50:	00008cb4 	.word	0x00008cb4
    8d54:	00008cb4 	.word	0x00008cb4
    8d58:	00008cb4 	.word	0x00008cb4
    8d5c:	00008cb4 	.word	0x00008cb4
    8d60:	ffffffff 	.word	0xffffffff
    8d64:	ffffffff 	.word	0xffffffff
    8d68:	0000002e 	.word	0x0000002e
    8d6c:	2d4f5349 	.word	0x2d4f5349
    8d70:	39353838 	.word	0x39353838
    8d74:	0000312d 	.word	0x0000312d

00008d78 <__mprec_tens>:
    8d78:	00000000 	.word	0x00000000
    8d7c:	3ff00000 	.word	0x3ff00000
    8d80:	00000000 	.word	0x00000000
    8d84:	40240000 	.word	0x40240000
    8d88:	00000000 	.word	0x00000000
    8d8c:	40590000 	.word	0x40590000
    8d90:	00000000 	.word	0x00000000
    8d94:	408f4000 	.word	0x408f4000
    8d98:	00000000 	.word	0x00000000
    8d9c:	40c38800 	.word	0x40c38800
    8da0:	00000000 	.word	0x00000000
    8da4:	40f86a00 	.word	0x40f86a00
    8da8:	00000000 	.word	0x00000000
    8dac:	412e8480 	.word	0x412e8480
    8db0:	00000000 	.word	0x00000000
    8db4:	416312d0 	.word	0x416312d0
    8db8:	00000000 	.word	0x00000000
    8dbc:	4197d784 	.word	0x4197d784
    8dc0:	00000000 	.word	0x00000000
    8dc4:	41cdcd65 	.word	0x41cdcd65
    8dc8:	20000000 	.word	0x20000000
    8dcc:	4202a05f 	.word	0x4202a05f
    8dd0:	e8000000 	.word	0xe8000000
    8dd4:	42374876 	.word	0x42374876
    8dd8:	a2000000 	.word	0xa2000000
    8ddc:	426d1a94 	.word	0x426d1a94
    8de0:	e5400000 	.word	0xe5400000
    8de4:	42a2309c 	.word	0x42a2309c
    8de8:	1e900000 	.word	0x1e900000
    8dec:	42d6bcc4 	.word	0x42d6bcc4
    8df0:	26340000 	.word	0x26340000
    8df4:	430c6bf5 	.word	0x430c6bf5
    8df8:	37e08000 	.word	0x37e08000
    8dfc:	4341c379 	.word	0x4341c379
    8e00:	85d8a000 	.word	0x85d8a000
    8e04:	43763457 	.word	0x43763457
    8e08:	674ec800 	.word	0x674ec800
    8e0c:	43abc16d 	.word	0x43abc16d
    8e10:	60913d00 	.word	0x60913d00
    8e14:	43e158e4 	.word	0x43e158e4
    8e18:	78b58c40 	.word	0x78b58c40
    8e1c:	4415af1d 	.word	0x4415af1d
    8e20:	d6e2ef50 	.word	0xd6e2ef50
    8e24:	444b1ae4 	.word	0x444b1ae4
    8e28:	064dd592 	.word	0x064dd592
    8e2c:	4480f0cf 	.word	0x4480f0cf
    8e30:	c7e14af6 	.word	0xc7e14af6
    8e34:	44b52d02 	.word	0x44b52d02
    8e38:	79d99db4 	.word	0x79d99db4
    8e3c:	44ea7843 	.word	0x44ea7843

00008e40 <p05.2363>:
    8e40:	00000005 	.word	0x00000005
    8e44:	00000019 	.word	0x00000019
    8e48:	0000007d 	.word	0x0000007d
    8e4c:	00000000 	.word	0x00000000

00008e50 <__mprec_bigtens>:
    8e50:	37e08000 	.word	0x37e08000
    8e54:	4341c379 	.word	0x4341c379
    8e58:	b5056e17 	.word	0xb5056e17
    8e5c:	4693b8b5 	.word	0x4693b8b5
    8e60:	e93ff9f5 	.word	0xe93ff9f5
    8e64:	4d384f03 	.word	0x4d384f03
    8e68:	f9301d32 	.word	0xf9301d32
    8e6c:	5a827748 	.word	0x5a827748
    8e70:	7f73bf3c 	.word	0x7f73bf3c
    8e74:	75154fdd 	.word	0x75154fdd

00008e78 <__mprec_tinytens>:
    8e78:	97d889bc 	.word	0x97d889bc
    8e7c:	3c9cd2b2 	.word	0x3c9cd2b2
    8e80:	d5a8a733 	.word	0xd5a8a733
    8e84:	3949f623 	.word	0x3949f623
    8e88:	44f4a73d 	.word	0x44f4a73d
    8e8c:	32a50ffd 	.word	0x32a50ffd
    8e90:	cf8c979d 	.word	0xcf8c979d
    8e94:	255bba08 	.word	0x255bba08
    8e98:	64ac6f43 	.word	0x64ac6f43
    8e9c:	0ac80628 	.word	0x0ac80628

00008ea0 <__clz_tab>:
    8ea0:	02020100 	.word	0x02020100
    8ea4:	03030303 	.word	0x03030303
    8ea8:	04040404 	.word	0x04040404
    8eac:	04040404 	.word	0x04040404
    8eb0:	05050505 	.word	0x05050505
    8eb4:	05050505 	.word	0x05050505
    8eb8:	05050505 	.word	0x05050505
    8ebc:	05050505 	.word	0x05050505
    8ec0:	06060606 	.word	0x06060606
    8ec4:	06060606 	.word	0x06060606
    8ec8:	06060606 	.word	0x06060606
    8ecc:	06060606 	.word	0x06060606
    8ed0:	06060606 	.word	0x06060606
    8ed4:	06060606 	.word	0x06060606
    8ed8:	06060606 	.word	0x06060606
    8edc:	06060606 	.word	0x06060606
    8ee0:	07070707 	.word	0x07070707
    8ee4:	07070707 	.word	0x07070707
    8ee8:	07070707 	.word	0x07070707
    8eec:	07070707 	.word	0x07070707
    8ef0:	07070707 	.word	0x07070707
    8ef4:	07070707 	.word	0x07070707
    8ef8:	07070707 	.word	0x07070707
    8efc:	07070707 	.word	0x07070707
    8f00:	07070707 	.word	0x07070707
    8f04:	07070707 	.word	0x07070707
    8f08:	07070707 	.word	0x07070707
    8f0c:	07070707 	.word	0x07070707
    8f10:	07070707 	.word	0x07070707
    8f14:	07070707 	.word	0x07070707
    8f18:	07070707 	.word	0x07070707
    8f1c:	07070707 	.word	0x07070707
    8f20:	08080808 	.word	0x08080808
    8f24:	08080808 	.word	0x08080808
    8f28:	08080808 	.word	0x08080808
    8f2c:	08080808 	.word	0x08080808
    8f30:	08080808 	.word	0x08080808
    8f34:	08080808 	.word	0x08080808
    8f38:	08080808 	.word	0x08080808
    8f3c:	08080808 	.word	0x08080808
    8f40:	08080808 	.word	0x08080808
    8f44:	08080808 	.word	0x08080808
    8f48:	08080808 	.word	0x08080808
    8f4c:	08080808 	.word	0x08080808
    8f50:	08080808 	.word	0x08080808
    8f54:	08080808 	.word	0x08080808
    8f58:	08080808 	.word	0x08080808
    8f5c:	08080808 	.word	0x08080808
    8f60:	08080808 	.word	0x08080808
    8f64:	08080808 	.word	0x08080808
    8f68:	08080808 	.word	0x08080808
    8f6c:	08080808 	.word	0x08080808
    8f70:	08080808 	.word	0x08080808
    8f74:	08080808 	.word	0x08080808
    8f78:	08080808 	.word	0x08080808
    8f7c:	08080808 	.word	0x08080808
    8f80:	08080808 	.word	0x08080808
    8f84:	08080808 	.word	0x08080808
    8f88:	08080808 	.word	0x08080808
    8f8c:	08080808 	.word	0x08080808
    8f90:	08080808 	.word	0x08080808
    8f94:	08080808 	.word	0x08080808
    8f98:	08080808 	.word	0x08080808
    8f9c:	08080808 	.word	0x08080808

Disassembly of section .ARM.exidx.text.Reset_Handler:

00008fa0 <.ARM.exidx.text.Reset_Handler>:
    8fa0:	7fff7154 	.word	0x7fff7154
    8fa4:	00000001 	.word	0x00000001

Disassembly of section .data:

10000000 <SystemFrequency>:
10000000:	003d0900 	.word	0x003d0900
10000004:	00000000 	.word	0x00000000

10000008 <_impure_ptr>:
10000008:	10000010 	.word	0x10000010
1000000c:	00000000 	.word	0x00000000

10000010 <impure_data>:
10000010:	00000000 	.word	0x00000000
10000014:	100002fc 	.word	0x100002fc
10000018:	10000364 	.word	0x10000364
1000001c:	100003cc 	.word	0x100003cc
	...
10000044:	00008d30 	.word	0x00008d30
	...
100000b8:	00000001 	.word	0x00000001
100000bc:	00000000 	.word	0x00000000
100000c0:	abcd330e 	.word	0xabcd330e
100000c4:	e66d1234 	.word	0xe66d1234
100000c8:	0005deec 	.word	0x0005deec
100000cc:	0000000b 	.word	0x0000000b
	...

10000438 <__mb_cur_max>:
10000438:	00000001 	.word	0x00000001

1000043c <__lc_ctype>:
1000043c:	00000043 	.word	0x00000043
	...

10000448 <__malloc_av_>:
	...
10000450:	10000448 	.word	0x10000448
10000454:	10000448 	.word	0x10000448
10000458:	10000450 	.word	0x10000450
1000045c:	10000450 	.word	0x10000450
10000460:	10000458 	.word	0x10000458
10000464:	10000458 	.word	0x10000458
10000468:	10000460 	.word	0x10000460
1000046c:	10000460 	.word	0x10000460
10000470:	10000468 	.word	0x10000468
10000474:	10000468 	.word	0x10000468
10000478:	10000470 	.word	0x10000470
1000047c:	10000470 	.word	0x10000470
10000480:	10000478 	.word	0x10000478
10000484:	10000478 	.word	0x10000478
10000488:	10000480 	.word	0x10000480
1000048c:	10000480 	.word	0x10000480
10000490:	10000488 	.word	0x10000488
10000494:	10000488 	.word	0x10000488
10000498:	10000490 	.word	0x10000490
1000049c:	10000490 	.word	0x10000490
100004a0:	10000498 	.word	0x10000498
100004a4:	10000498 	.word	0x10000498
100004a8:	100004a0 	.word	0x100004a0
100004ac:	100004a0 	.word	0x100004a0
100004b0:	100004a8 	.word	0x100004a8
100004b4:	100004a8 	.word	0x100004a8
100004b8:	100004b0 	.word	0x100004b0
100004bc:	100004b0 	.word	0x100004b0
100004c0:	100004b8 	.word	0x100004b8
100004c4:	100004b8 	.word	0x100004b8
100004c8:	100004c0 	.word	0x100004c0
100004cc:	100004c0 	.word	0x100004c0
100004d0:	100004c8 	.word	0x100004c8
100004d4:	100004c8 	.word	0x100004c8
100004d8:	100004d0 	.word	0x100004d0
100004dc:	100004d0 	.word	0x100004d0
100004e0:	100004d8 	.word	0x100004d8
100004e4:	100004d8 	.word	0x100004d8
100004e8:	100004e0 	.word	0x100004e0
100004ec:	100004e0 	.word	0x100004e0
100004f0:	100004e8 	.word	0x100004e8
100004f4:	100004e8 	.word	0x100004e8
100004f8:	100004f0 	.word	0x100004f0
100004fc:	100004f0 	.word	0x100004f0
10000500:	100004f8 	.word	0x100004f8
10000504:	100004f8 	.word	0x100004f8
10000508:	10000500 	.word	0x10000500
1000050c:	10000500 	.word	0x10000500
10000510:	10000508 	.word	0x10000508
10000514:	10000508 	.word	0x10000508
10000518:	10000510 	.word	0x10000510
1000051c:	10000510 	.word	0x10000510
10000520:	10000518 	.word	0x10000518
10000524:	10000518 	.word	0x10000518
10000528:	10000520 	.word	0x10000520
1000052c:	10000520 	.word	0x10000520
10000530:	10000528 	.word	0x10000528
10000534:	10000528 	.word	0x10000528
10000538:	10000530 	.word	0x10000530
1000053c:	10000530 	.word	0x10000530
10000540:	10000538 	.word	0x10000538
10000544:	10000538 	.word	0x10000538
10000548:	10000540 	.word	0x10000540
1000054c:	10000540 	.word	0x10000540
10000550:	10000548 	.word	0x10000548
10000554:	10000548 	.word	0x10000548
10000558:	10000550 	.word	0x10000550
1000055c:	10000550 	.word	0x10000550
10000560:	10000558 	.word	0x10000558
10000564:	10000558 	.word	0x10000558
10000568:	10000560 	.word	0x10000560
1000056c:	10000560 	.word	0x10000560
10000570:	10000568 	.word	0x10000568
10000574:	10000568 	.word	0x10000568
10000578:	10000570 	.word	0x10000570
1000057c:	10000570 	.word	0x10000570
10000580:	10000578 	.word	0x10000578
10000584:	10000578 	.word	0x10000578
10000588:	10000580 	.word	0x10000580
1000058c:	10000580 	.word	0x10000580
10000590:	10000588 	.word	0x10000588
10000594:	10000588 	.word	0x10000588
10000598:	10000590 	.word	0x10000590
1000059c:	10000590 	.word	0x10000590
100005a0:	10000598 	.word	0x10000598
100005a4:	10000598 	.word	0x10000598
100005a8:	100005a0 	.word	0x100005a0
100005ac:	100005a0 	.word	0x100005a0
100005b0:	100005a8 	.word	0x100005a8
100005b4:	100005a8 	.word	0x100005a8
100005b8:	100005b0 	.word	0x100005b0
100005bc:	100005b0 	.word	0x100005b0
100005c0:	100005b8 	.word	0x100005b8
100005c4:	100005b8 	.word	0x100005b8
100005c8:	100005c0 	.word	0x100005c0
100005cc:	100005c0 	.word	0x100005c0
100005d0:	100005c8 	.word	0x100005c8
100005d4:	100005c8 	.word	0x100005c8
100005d8:	100005d0 	.word	0x100005d0
100005dc:	100005d0 	.word	0x100005d0
100005e0:	100005d8 	.word	0x100005d8
100005e4:	100005d8 	.word	0x100005d8
100005e8:	100005e0 	.word	0x100005e0
100005ec:	100005e0 	.word	0x100005e0
100005f0:	100005e8 	.word	0x100005e8
100005f4:	100005e8 	.word	0x100005e8
100005f8:	100005f0 	.word	0x100005f0
100005fc:	100005f0 	.word	0x100005f0
10000600:	100005f8 	.word	0x100005f8
10000604:	100005f8 	.word	0x100005f8
10000608:	10000600 	.word	0x10000600
1000060c:	10000600 	.word	0x10000600
10000610:	10000608 	.word	0x10000608
10000614:	10000608 	.word	0x10000608
10000618:	10000610 	.word	0x10000610
1000061c:	10000610 	.word	0x10000610
10000620:	10000618 	.word	0x10000618
10000624:	10000618 	.word	0x10000618
10000628:	10000620 	.word	0x10000620
1000062c:	10000620 	.word	0x10000620
10000630:	10000628 	.word	0x10000628
10000634:	10000628 	.word	0x10000628
10000638:	10000630 	.word	0x10000630
1000063c:	10000630 	.word	0x10000630
10000640:	10000638 	.word	0x10000638
10000644:	10000638 	.word	0x10000638
10000648:	10000640 	.word	0x10000640
1000064c:	10000640 	.word	0x10000640
10000650:	10000648 	.word	0x10000648
10000654:	10000648 	.word	0x10000648
10000658:	10000650 	.word	0x10000650
1000065c:	10000650 	.word	0x10000650
10000660:	10000658 	.word	0x10000658
10000664:	10000658 	.word	0x10000658
10000668:	10000660 	.word	0x10000660
1000066c:	10000660 	.word	0x10000660
10000670:	10000668 	.word	0x10000668
10000674:	10000668 	.word	0x10000668
10000678:	10000670 	.word	0x10000670
1000067c:	10000670 	.word	0x10000670
10000680:	10000678 	.word	0x10000678
10000684:	10000678 	.word	0x10000678
10000688:	10000680 	.word	0x10000680
1000068c:	10000680 	.word	0x10000680
10000690:	10000688 	.word	0x10000688
10000694:	10000688 	.word	0x10000688
10000698:	10000690 	.word	0x10000690
1000069c:	10000690 	.word	0x10000690
100006a0:	10000698 	.word	0x10000698
100006a4:	10000698 	.word	0x10000698
100006a8:	100006a0 	.word	0x100006a0
100006ac:	100006a0 	.word	0x100006a0
100006b0:	100006a8 	.word	0x100006a8
100006b4:	100006a8 	.word	0x100006a8
100006b8:	100006b0 	.word	0x100006b0
100006bc:	100006b0 	.word	0x100006b0
100006c0:	100006b8 	.word	0x100006b8
100006c4:	100006b8 	.word	0x100006b8
100006c8:	100006c0 	.word	0x100006c0
100006cc:	100006c0 	.word	0x100006c0
100006d0:	100006c8 	.word	0x100006c8
100006d4:	100006c8 	.word	0x100006c8
100006d8:	100006d0 	.word	0x100006d0
100006dc:	100006d0 	.word	0x100006d0
100006e0:	100006d8 	.word	0x100006d8
100006e4:	100006d8 	.word	0x100006d8
100006e8:	100006e0 	.word	0x100006e0
100006ec:	100006e0 	.word	0x100006e0
100006f0:	100006e8 	.word	0x100006e8
100006f4:	100006e8 	.word	0x100006e8
100006f8:	100006f0 	.word	0x100006f0
100006fc:	100006f0 	.word	0x100006f0
10000700:	100006f8 	.word	0x100006f8
10000704:	100006f8 	.word	0x100006f8
10000708:	10000700 	.word	0x10000700
1000070c:	10000700 	.word	0x10000700
10000710:	10000708 	.word	0x10000708
10000714:	10000708 	.word	0x10000708
10000718:	10000710 	.word	0x10000710
1000071c:	10000710 	.word	0x10000710
10000720:	10000718 	.word	0x10000718
10000724:	10000718 	.word	0x10000718
10000728:	10000720 	.word	0x10000720
1000072c:	10000720 	.word	0x10000720
10000730:	10000728 	.word	0x10000728
10000734:	10000728 	.word	0x10000728
10000738:	10000730 	.word	0x10000730
1000073c:	10000730 	.word	0x10000730
10000740:	10000738 	.word	0x10000738
10000744:	10000738 	.word	0x10000738
10000748:	10000740 	.word	0x10000740
1000074c:	10000740 	.word	0x10000740
10000750:	10000748 	.word	0x10000748
10000754:	10000748 	.word	0x10000748
10000758:	10000750 	.word	0x10000750
1000075c:	10000750 	.word	0x10000750
10000760:	10000758 	.word	0x10000758
10000764:	10000758 	.word	0x10000758
10000768:	10000760 	.word	0x10000760
1000076c:	10000760 	.word	0x10000760
10000770:	10000768 	.word	0x10000768
10000774:	10000768 	.word	0x10000768
10000778:	10000770 	.word	0x10000770
1000077c:	10000770 	.word	0x10000770
10000780:	10000778 	.word	0x10000778
10000784:	10000778 	.word	0x10000778
10000788:	10000780 	.word	0x10000780
1000078c:	10000780 	.word	0x10000780
10000790:	10000788 	.word	0x10000788
10000794:	10000788 	.word	0x10000788
10000798:	10000790 	.word	0x10000790
1000079c:	10000790 	.word	0x10000790
100007a0:	10000798 	.word	0x10000798
100007a4:	10000798 	.word	0x10000798
100007a8:	100007a0 	.word	0x100007a0
100007ac:	100007a0 	.word	0x100007a0
100007b0:	100007a8 	.word	0x100007a8
100007b4:	100007a8 	.word	0x100007a8
100007b8:	100007b0 	.word	0x100007b0
100007bc:	100007b0 	.word	0x100007b0
100007c0:	100007b8 	.word	0x100007b8
100007c4:	100007b8 	.word	0x100007b8
100007c8:	100007c0 	.word	0x100007c0
100007cc:	100007c0 	.word	0x100007c0
100007d0:	100007c8 	.word	0x100007c8
100007d4:	100007c8 	.word	0x100007c8
100007d8:	100007d0 	.word	0x100007d0
100007dc:	100007d0 	.word	0x100007d0
100007e0:	100007d8 	.word	0x100007d8
100007e4:	100007d8 	.word	0x100007d8
100007e8:	100007e0 	.word	0x100007e0
100007ec:	100007e0 	.word	0x100007e0
100007f0:	100007e8 	.word	0x100007e8
100007f4:	100007e8 	.word	0x100007e8
100007f8:	100007f0 	.word	0x100007f0
100007fc:	100007f0 	.word	0x100007f0
10000800:	100007f8 	.word	0x100007f8
10000804:	100007f8 	.word	0x100007f8
10000808:	10000800 	.word	0x10000800
1000080c:	10000800 	.word	0x10000800
10000810:	10000808 	.word	0x10000808
10000814:	10000808 	.word	0x10000808
10000818:	10000810 	.word	0x10000810
1000081c:	10000810 	.word	0x10000810
10000820:	10000818 	.word	0x10000818
10000824:	10000818 	.word	0x10000818
10000828:	10000820 	.word	0x10000820
1000082c:	10000820 	.word	0x10000820
10000830:	10000828 	.word	0x10000828
10000834:	10000828 	.word	0x10000828
10000838:	10000830 	.word	0x10000830
1000083c:	10000830 	.word	0x10000830
10000840:	10000838 	.word	0x10000838
10000844:	10000838 	.word	0x10000838
10000848:	10000840 	.word	0x10000840
1000084c:	10000840 	.word	0x10000840

10000850 <__malloc_sbrk_base>:
10000850:	ffffffff 	.word	0xffffffff

10000854 <__malloc_trim_threshold>:
10000854:	00020000 	.word	0x00020000

Disassembly of section .bss:

10000858 <_bss>:
10000858:	00000000 	.word	0x00000000

1000085c <tptr>:
1000085c:	00000000 	.word	0x00000000

10000860 <__nlocale_changed>:
10000860:	00000000 	.word	0x00000000

10000864 <__mlocale_changed>:
10000864:	00000000 	.word	0x00000000

10000868 <_PathLocale>:
10000868:	00000000 	.word	0x00000000

1000086c <__malloc_top_pad>:
1000086c:	00000000 	.word	0x00000000

10000870 <__malloc_current_mallinfo>:
	...

10000898 <__malloc_max_sbrked_mem>:
10000898:	00000000 	.word	0x00000000

1000089c <__malloc_max_total_mem>:
1000089c:	00000000 	.word	0x00000000

100008a0 <TCPTimer>:
100008a0:	00000000 	.word	0x00000000

100008a4 <HTTPBytesToSend>:
100008a4:	00000000 	.word	0x00000000

100008a8 <TCPRxDataCount>:
	...

100008aa <HTTPStatus>:
	...

100008ac <TCPTxDataCount>:
	...

100008ae <RecdFrameIP>:
100008ae:	0000      	.short	0x0000
	...

100008b2 <RemoteMAC>:
100008b2:	0000      	.short	0x0000
100008b4:	00000000 	.word	0x00000000

100008b8 <TCPStateMachine>:
100008b8:	00000000 	.word	0x00000000

100008bc <TCPUNASeqNr>:
100008bc:	00000000 	.word	0x00000000

100008c0 <TCPLocalPort>:
	...

100008c2 <_RxTCPBuffer>:
	...

100009c2 <TCPFlags>:
	...

100009c4 <RecdFrameMAC>:
100009c4:	00000000 	.word	0x00000000
	...

100009ca <RecdIPFrameLength>:
	...

100009cc <PWebSide>:
100009cc:	00000000 	.word	0x00000000

100009d0 <RemoteIP>:
100009d0:	00000000 	.word	0x00000000

100009d4 <LastFrameSent>:
	...

100009d6 <TCPRemotePort>:
	...

100009d8 <TxFrame2Size>:
100009d8:	00000000 	.word	0x00000000

100009dc <TCPAckNr>:
100009dc:	00000000 	.word	0x00000000

100009e0 <TransmitControl>:
	...

100009e2 <TxFrame1Size>:
	...

100009e4 <ISNGenHigh>:
	...

100009e6 <_TxFrame2>:
	...

10000a30 <RecdFrameLength>:
	...

10000a32 <_TxFrame1>:
	...

10000c68 <TCPSeqNr>:
10000c68:	00000000 	.word	0x00000000

10000c6c <RetryCounter>:
	...

10000c6d <SocketStatus>:
10000c6d:	00          	.byte	0x00
	...

10000c70 <errno>:
	...

Disassembly of section .heap:

10000c78 <__heap>:
	...

Disassembly of section .stack:

10000d78 <__stack>:
	...

Disassembly of section .comment:

00000000 <.comment>:
   0:	43434700 	movtmi	r4, #14080	; 0x3700
   4:	5328203a 	teqpl	r8, #58	; 0x3a
   8:	6372756f 	cmnvs	r2, #465567744	; 0x1bc00000
   c:	20797265 	rsbscs	r7, r9, r5, ror #4
  10:	202b2b47 	eorcs	r2, fp, r7, asr #22
  14:	6574694c 	ldrbvs	r6, [r4, #-2380]!
  18:	30303220 	eorscc	r3, r0, r0, lsr #4
  1c:	2d317139 	ldfcss	f7, [r1, #-228]!
  20:	29313631 	ldmdbcs	r1!, {r0, r4, r5, r9, sl, ip, sp}
  24:	332e3420 	teqcc	lr, #536870912	; 0x20000000
  28:	0000332e 	andeq	r3, r0, lr, lsr #6
  2c:	3a434347 	bcc	10d0d50 <__fini_array_end+0x10c7db0>
  30:	6f532820 	svcvs	0x00532820
  34:	65637275 	strbvs	r7, [r3, #-629]!
  38:	47207972 	undefined
  3c:	4c202b2b 	stcmi	11, cr2, [r0], #-172
  40:	20657469 	rsbcs	r7, r5, r9, ror #8
  44:	39303032 	ldmdbcc	r0!, {r1, r4, r5, ip, sp}
  48:	312d3171 	teqcc	sp, r1, ror r1
  4c:	20293136 	eorcs	r3, r9, r6, lsr r1
  50:	2e332e34 	mrccs	14, 1, r2, cr3, cr4, {1}
  54:	47000033 	smladxmi	r0, r3, r0, r0
  58:	203a4343 	.word	0x203a4343
  5c:	756f5328 	.word	0x756f5328
  60:	72656372 	.word	0x72656372
  64:	2b472079 	.word	0x2b472079
  68:	694c202b 	.word	0x694c202b
  6c:	32206574 	.word	0x32206574
  70:	71393030 	.word	0x71393030
  74:	36312d31 	.word	0x36312d31
  78:	34202931 	.word	0x34202931
  7c:	332e332e 	.word	0x332e332e
  80:	0000      	.short	0x0000
  82:	4347      	.short	0x4347
  84:	28203a43 	.word	0x28203a43
  88:	72756f53 	.word	0x72756f53
  8c:	79726563 	.word	0x79726563
  90:	2b2b4720 	.word	0x2b2b4720
  94:	74694c20 	.word	0x74694c20
  98:	30322065 	.word	0x30322065
  9c:	31713930 	.word	0x31713930
  a0:	3136312d 	.word	0x3136312d
  a4:	2e342029 	.word	0x2e342029
  a8:	00332e33 	.word	0x00332e33
  ac:	00          	.byte	0x00
  ad:	47          	.byte	0x47
  ae:	4343      	.short	0x4343
  b0:	5328203a 	.word	0x5328203a
  b4:	6372756f 	.word	0x6372756f
  b8:	20797265 	.word	0x20797265
  bc:	202b2b47 	.word	0x202b2b47
  c0:	6574694c 	.word	0x6574694c
  c4:	30303220 	.word	0x30303220
  c8:	2d317139 	.word	0x2d317139
  cc:	29313631 	.word	0x29313631
  d0:	332e3420 	.word	0x332e3420
  d4:	0000332e 	.word	0x0000332e
  d8:	3a434347 	.word	0x3a434347
  dc:	6f532820 	.word	0x6f532820
  e0:	65637275 	.word	0x65637275
  e4:	47207972 	.word	0x47207972
  e8:	4c202b2b 	.word	0x4c202b2b
  ec:	20657469 	.word	0x20657469
  f0:	39303032 	.word	0x39303032
  f4:	312d3171 	.word	0x312d3171
  f8:	20293136 	.word	0x20293136
  fc:	2e332e34 	.word	0x2e332e34
 100:	Address 0x00000100 is out of bounds.


Disassembly of section .debug_frame:

00000000 <.debug_frame>:
   0:	0000000c 	.word	0x0000000c
   4:	ffffffff 	.word	0xffffffff
   8:	7c010001 	.word	0x7c010001
   c:	000d0c0e 	.word	0x000d0c0e
  10:	00000018 	.word	0x00000018
  14:	00000000 	.word	0x00000000
  18:	00002fc8 	.word	0x00002fc8
  1c:	00000058 	.word	0x00000058
  20:	84100e42 	.word	0x84100e42
  24:	86038504 	.word	0x86038504
  28:	00018e02 	.word	0x00018e02
  2c:	0000000c 	.word	0x0000000c
  30:	ffffffff 	.word	0xffffffff
  34:	7c010001 	.word	0x7c010001
  38:	000d0c0e 	.word	0x000d0c0e
  3c:	00000024 	.word	0x00000024
  40:	0000002c 	.word	0x0000002c
  44:	00003020 	.word	0x00003020
  48:	00000138 	.word	0x00000138
  4c:	84140e42 	.word	0x84140e42
  50:	86048505 	.word	0x86048505
  54:	8703      	.short	0x8703
  56:	02          	.byte	0x02
  57:	8e          	.byte	0x8e
  58:	200e4801 	.word	0x200e4801
  5c:	07890888 	.word	0x07890888
  60:	0000068a 	.word	0x0000068a
  64:	0000000c 	.word	0x0000000c
  68:	ffffffff 	.word	0xffffffff
  6c:	7c010001 	.word	0x7c010001
  70:	000d0c0e 	.word	0x000d0c0e
  74:	00000018 	.word	0x00000018
  78:	00000064 	.word	0x00000064
  7c:	00003158 	.word	0x00003158
  80:	00a0      	.short	0x00a0
  82:	0000      	.short	0x0000
  84:	84100e42 	.word	0x84100e42
  88:	86038504 	.word	0x86038504
  8c:	00018e02 	.word	0x00018e02
  90:	0000000c 	.word	0x0000000c
  94:	ffffffff 	.word	0xffffffff
  98:	7c010001 	.word	0x7c010001
  9c:	000d0c0e 	.word	0x000d0c0e
  a0:	00000018 	.word	0x00000018
  a4:	00000090 	.word	0x00000090
  a8:	000031f8 	.word	0x000031f8
  ac:	48          	.byte	0x48
  ad:	00          	.byte	0x00
  ae:	0000      	.short	0x0000
  b0:	420c0e42 	.word	0x420c0e42
  b4:	048e100e 	.word	0x048e100e
  b8:	01800e42 	.word	0x01800e42
  bc:	0000001c 	.word	0x0000001c
  c0:	00000090 	.word	0x00000090
  c4:	00003240 	.word	0x00003240
  c8:	00000044 	.word	0x00000044
  cc:	42080e42 	.word	0x42080e42
  d0:	0484100e 	.word	0x0484100e
  d4:	0e42038e 	.word	0x0e42038e
  d8:	00000180 	.word	0x00000180
  dc:	0000000c 	.word	0x0000000c
  e0:	ffffffff 	.word	0xffffffff
  e4:	7c010001 	.word	0x7c010001
  e8:	000d0c0e 	.word	0x000d0c0e
  ec:	00000028 	.word	0x00000028
  f0:	000000dc 	.word	0x000000dc
  f4:	00003288 	.word	0x00003288
  f8:	0000012c 	.word	0x0000012c
  fc:	84140e42 	.word	0x84140e42
 100:	86048505 	.word	0x86048505
 104:	8e028703 	.word	0x8e028703
 108:	240e4a01 	.word	0x240e4a01
 10c:	08890988 	.word	0x08890988
 110:	068b078a 	.word	0x068b078a
 114:	00380e44 	.word	0x00380e44
 118:	00000028 	.word	0x00000028
 11c:	00dc      	.short	0x00dc
 11e:	0000      	.short	0x0000
 120:	33b4      	.short	0x33b4
 122:	0000      	.short	0x0000
 124:	148c      	.short	0x148c
 126:	0000      	.short	0x0000
 128:	0e42      	.short	0x0e42
 12a:	8414      	.short	0x8414
 12c:	8505      	.short	0x8505
 12e:	8604      	.short	0x8604
 130:	8e028703 	.word	0x8e028703
 134:	240e4a01 	.word	0x240e4a01
 138:	08890988 	.word	0x08890988
 13c:	068b078a 	.word	0x068b078a
 140:	02b80e42 	.word	0x02b80e42
 144:	0000000c 	.word	0x0000000c
 148:	ffffffff 	.word	0xffffffff
 14c:	7c010001 	.word	0x7c010001
 150:	000d0c0e 	.word	0x000d0c0e
 154:	00000028 	.word	0x00000028
 158:	00000144 	.word	0x00000144
 15c:	00004840 	.word	0x00004840
 160:	00000170 	.word	0x00000170
 164:	84140e42 	.word	0x84140e42
 168:	86048505 	.word	0x86048505
 16c:	8e028703 	.word	0x8e028703
 170:	240e4a01 	.word	0x240e4a01
 174:	08890988 	.word	0x08890988
 178:	068b078a 	.word	0x068b078a
 17c:	00380e46 	.word	0x00380e46
 180:	00000028 	.word	0x00000028
 184:	00000144 	.word	0x00000144
 188:	000049b0 	.word	0x000049b0
 18c:	00000e14 	.word	0x00000e14
 190:	84140e42 	.word	0x84140e42
 194:	86048505 	.word	0x86048505
 198:	8e028703 	.word	0x8e028703
 19c:	240e4a01 	.word	0x240e4a01
 1a0:	08890988 	.word	0x08890988
 1a4:	068b078a 	.word	0x068b078a
 1a8:	01b00e44 	.word	0x01b00e44
 1ac:	0000000c 	.word	0x0000000c
 1b0:	ffffffff 	.word	0xffffffff
 1b4:	7c010001 	.word	0x7c010001
 1b8:	000d0c0e 	.word	0x000d0c0e
 1bc:	0000001c 	.word	0x0000001c
 1c0:	000001ac 	.word	0x000001ac
 1c4:	000057c8 	.word	0x000057c8
 1c8:	000000a4 	.word	0x000000a4
 1cc:	83180e42 	.word	0x83180e42
 1d0:	85058406 	.word	0x85058406
 1d4:	87038604 	.word	0x87038604
 1d8:	00018e02 	.word	0x00018e02
 1dc:	00000020 	.word	0x00000020
 1e0:	000001ac 	.word	0x000001ac
 1e4:	0000586c 	.word	0x0000586c
 1e8:	00000194 	.word	0x00000194
 1ec:	84140e42 	.word	0x84140e42
 1f0:	86048505 	.word	0x86048505
 1f4:	8e028703 	.word	0x8e028703
 1f8:	180e4401 	.word	0x180e4401
 1fc:	00000688 	.word	0x00000688
 200:	0000000c 	.word	0x0000000c
 204:	ffffffff 	.word	0xffffffff
 208:	7c010001 	.word	0x7c010001
 20c:	000d0c0e 	.word	0x000d0c0e
 210:	0000000c 	.word	0x0000000c
 214:	00000200 	.word	0x00000200
 218:	00005a00 	.word	0x00005a00
 21c:	0000000c 	.word	0x0000000c
 220:	0000000c 	.word	0x0000000c
 224:	00000200 	.word	0x00000200
 228:	00005a0c 	.word	0x00005a0c
 22c:	0000000c 	.word	0x0000000c
 230:	0000000c 	.word	0x0000000c
 234:	00000200 	.word	0x00000200
 238:	00005a18 	.word	0x00005a18
 23c:	0000000c 	.word	0x0000000c
 240:	0000001c 	.word	0x0000001c
 244:	00000200 	.word	0x00000200
 248:	00005a24 	.word	0x00005a24
 24c:	00000044 	.word	0x00000044
 250:	83180e42 	.word	0x83180e42
 254:	85058406 	.word	0x85058406
 258:	87038604 	.word	0x87038604
 25c:	00018e02 	.word	0x00018e02
 260:	00000014 	.word	0x00000014
 264:	00000200 	.word	0x00000200
 268:	00005a68 	.word	0x00005a68
 26c:	0000001c 	.word	0x0000001c
 270:	84080e42 	.word	0x84080e42
 274:	00018e02 	.word	0x00018e02
 278:	0000000c 	.word	0x0000000c
 27c:	ffffffff 	.word	0xffffffff
 280:	7c010001 	.word	0x7c010001
 284:	000d0c0e 	.word	0x000d0c0e
 288:	00000028 	.word	0x00000028
 28c:	00000278 	.word	0x00000278
 290:	00005a84 	.word	0x00005a84
 294:	000004ec 	.word	0x000004ec
 298:	84140e42 	.word	0x84140e42
 29c:	86048505 	.word	0x86048505
 2a0:	8e028703 	.word	0x8e028703
 2a4:	240e4a01 	.word	0x240e4a01
 2a8:	08890988 	.word	0x08890988
 2ac:	068b078a 	.word	0x068b078a
 2b0:	00300e46 	.word	0x00300e46
 2b4:	0000000c 	.word	0x0000000c
 2b8:	ffffffff 	.word	0xffffffff
 2bc:	7c010001 	.word	0x7c010001
 2c0:	000d0c0e 	.word	0x000d0c0e
 2c4:	0000001c 	.word	0x0000001c
 2c8:	000002b4 	.word	0x000002b4
 2cc:	00005f70 	.word	0x00005f70
 2d0:	0000008c 	.word	0x0000008c
 2d4:	84140e42 	.word	0x84140e42
 2d8:	86048505 	.word	0x86048505
 2dc:	8e028703 	.word	0x8e028703
 2e0:	00000001 	.word	0x00000001
 2e4:	0000000c 	.word	0x0000000c
 2e8:	ffffffff 	.word	0xffffffff
 2ec:	7c010001 	.word	0x7c010001
 2f0:	000d0c0e 	.word	0x000d0c0e
 2f4:	0000001c 	.word	0x0000001c
 2f8:	000002e4 	.word	0x000002e4
 2fc:	00005ffc 	.word	0x00005ffc
 300:	000000ae 	.word	0x000000ae
 304:	84140e42 	.word	0x84140e42
 308:	86048505 	.word	0x86048505
 30c:	8e028703 	.word	0x8e028703
 310:	00000001 	.word	0x00000001
 314:	0000000c 	.word	0x0000000c
 318:	ffffffff 	.word	0xffffffff
 31c:	7c010001 	.word	0x7c010001
 320:	000d0c0e 	.word	0x000d0c0e
 324:	0000000c 	.word	0x0000000c
 328:	00000314 	.word	0x00000314
 32c:	000060ac 	.word	0x000060ac
 330:	00000002 	.word	0x00000002
 334:	0000000c 	.word	0x0000000c
 338:	00000314 	.word	0x00000314
 33c:	000060b0 	.word	0x000060b0
 340:	00000002 	.word	0x00000002
 344:	0000000c 	.word	0x0000000c
 348:	ffffffff 	.word	0xffffffff
 34c:	7c010001 	.word	0x7c010001
 350:	000d0c0e 	.word	0x000d0c0e
 354:	00000014 	.word	0x00000014
 358:	00000344 	.word	0x00000344
 35c:	000060b8 	.word	0x000060b8
 360:	0000001a 	.word	0x0000001a
 364:	8e040e42 	.word	0x8e040e42
 368:	00000001 	.word	0x00000001
 36c:	00000014 	.word	0x00000014
 370:	00000344 	.word	0x00000344
 374:	000060d4 	.word	0x000060d4
 378:	00000054 	.word	0x00000054
 37c:	8e040e42 	.word	0x8e040e42
 380:	00000001 	.word	0x00000001
 384:	00000014 	.word	0x00000014
 388:	00000344 	.word	0x00000344
 38c:	00006128 	.word	0x00006128
 390:	00000068 	.word	0x00000068
 394:	8e040e42 	.word	0x8e040e42
 398:	00000001 	.word	0x00000001
 39c:	00000018 	.word	0x00000018
 3a0:	00000344 	.word	0x00000344
 3a4:	00006190 	.word	0x00006190
 3a8:	00000042 	.word	0x00000042
 3ac:	840c0e42 	.word	0x840c0e42
 3b0:	8e028503 	.word	0x8e028503
 3b4:	00000001 	.word	0x00000001
 3b8:	00000014 	.word	0x00000014
 3bc:	00000344 	.word	0x00000344
 3c0:	000061d4 	.word	0x000061d4
 3c4:	0000004c 	.word	0x0000004c
 3c8:	8e040e42 	.word	0x8e040e42
 3cc:	00000001 	.word	0x00000001
 3d0:	00000020 	.word	0x00000020
 3d4:	00000344 	.word	0x00000344
 3d8:	00006220 	.word	0x00006220
 3dc:	000000bc 	.word	0x000000bc
 3e0:	84140e42 	.word	0x84140e42
 3e4:	86048505 	.word	0x86048505
 3e8:	8e028703 	.word	0x8e028703
 3ec:	180e4401 	.word	0x180e4401
 3f0:	00000688 	.word	0x00000688
 3f4:	0000001c 	.word	0x0000001c
 3f8:	00000344 	.word	0x00000344
 3fc:	000062dc 	.word	0x000062dc
 400:	00000054 	.word	0x00000054
 404:	84140e42 	.word	0x84140e42
 408:	86048505 	.word	0x86048505
 40c:	8e028703 	.word	0x8e028703
 410:	280e4201 	.word	0x280e4201
 414:	00000014 	.word	0x00000014
 418:	00000344 	.word	0x00000344
 41c:	00006330 	.word	0x00006330
 420:	00000044 	.word	0x00000044
 424:	84080e42 	.word	0x84080e42
 428:	00018e02 	.word	0x00018e02
 42c:	00000018 	.word	0x00000018
 430:	00000344 	.word	0x00000344
 434:	00006374 	.word	0x00006374
 438:	0000004a 	.word	0x0000004a
 43c:	84100e42 	.word	0x84100e42
 440:	86038504 	.word	0x86038504
 444:	00018e02 	.word	0x00018e02
 448:	00000014 	.word	0x00000014
 44c:	00000344 	.word	0x00000344
 450:	000063c0 	.word	0x000063c0
 454:	0000005c 	.word	0x0000005c
 458:	84080e42 	.word	0x84080e42
 45c:	00018e02 	.word	0x00018e02
 460:	00000018 	.word	0x00000018
 464:	00000344 	.word	0x00000344
 468:	0000641c 	.word	0x0000641c
 46c:	00000054 	.word	0x00000054
 470:	84100e42 	.word	0x84100e42
 474:	86038504 	.word	0x86038504
 478:	00018e02 	.word	0x00018e02
 47c:	0000001c 	.word	0x0000001c
 480:	00000344 	.word	0x00000344
 484:	00006470 	.word	0x00006470
 488:	000000d4 	.word	0x000000d4
 48c:	84140e42 	.word	0x84140e42
 490:	86048505 	.word	0x86048505
 494:	8e028703 	.word	0x8e028703
 498:	200e4201 	.word	0x200e4201
 49c:	00000028 	.word	0x00000028
 4a0:	00000344 	.word	0x00000344
 4a4:	00006544 	.word	0x00006544
 4a8:	00000120 	.word	0x00000120
 4ac:	83180e42 	.word	0x83180e42
 4b0:	85058406 	.word	0x85058406
 4b4:	87038604 	.word	0x87038604
 4b8:	4a018e02 	.word	0x4a018e02
 4bc:	0a88280e 	.word	0x0a88280e
 4c0:	088a0989 	.word	0x088a0989
 4c4:	0000078b 	.word	0x0000078b
 4c8:	00000024 	.word	0x00000024
 4cc:	00000344 	.word	0x00000344
 4d0:	00006664 	.word	0x00006664
 4d4:	000000be 	.word	0x000000be
 4d8:	84140e42 	.word	0x84140e42
 4dc:	86048505 	.word	0x86048505
 4e0:	8e028703 	.word	0x8e028703
 4e4:	200e4801 	.word	0x200e4801
 4e8:	07890888 	.word	0x07890888
 4ec:	0000068a 	.word	0x0000068a
 4f0:	00000028 	.word	0x00000028
 4f4:	00000344 	.word	0x00000344
 4f8:	00006724 	.word	0x00006724
 4fc:	00000160 	.word	0x00000160
 500:	84140e42 	.word	0x84140e42
 504:	86048505 	.word	0x86048505
 508:	8e028703 	.word	0x8e028703
 50c:	240e4a01 	.word	0x240e4a01
 510:	08890988 	.word	0x08890988
 514:	068b078a 	.word	0x068b078a
 518:	00380e46 	.word	0x00380e46
 51c:	00000014 	.word	0x00000014
 520:	00000344 	.word	0x00000344
 524:	00006884 	.word	0x00006884
 528:	00000016 	.word	0x00000016
 52c:	84080e42 	.word	0x84080e42
 530:	00018e02 	.word	0x00018e02
 534:	00000024 	.word	0x00000024
 538:	00000344 	.word	0x00000344
 53c:	0000689c 	.word	0x0000689c
 540:	000000a8 	.word	0x000000a8
 544:	84140e42 	.word	0x84140e42
 548:	86048505 	.word	0x86048505
 54c:	8e028703 	.word	0x8e028703
 550:	200e4801 	.word	0x200e4801
 554:	07890888 	.word	0x07890888
 558:	0000068a 	.word	0x0000068a
 55c:	00000024 	.word	0x00000024
 560:	00000344 	.word	0x00000344
 564:	00006944 	.word	0x00006944
 568:	000000b8 	.word	0x000000b8
 56c:	83180e42 	.word	0x83180e42
 570:	85058406 	.word	0x85058406
 574:	87038604 	.word	0x87038604
 578:	46018e02 	.word	0x46018e02
 57c:	0888200e 	.word	0x0888200e
 580:	00000789 	.word	0x00000789
 584:	00000024 	.word	0x00000024
 588:	00000344 	.word	0x00000344
 58c:	000069fc 	.word	0x000069fc
 590:	00000096 	.word	0x00000096
 594:	83180e42 	.word	0x83180e42
 598:	85058406 	.word	0x85058406
 59c:	87038604 	.word	0x87038604
 5a0:	46018e02 	.word	0x46018e02
 5a4:	0888200e 	.word	0x0888200e
 5a8:	00000789 	.word	0x00000789
 5ac:	0000000c 	.word	0x0000000c
 5b0:	ffffffff 	.word	0xffffffff
 5b4:	7c010001 	.word	0x7c010001
 5b8:	000d0c0e 	.word	0x000d0c0e
 5bc:	00000028 	.word	0x00000028
 5c0:	000005ac 	.word	0x000005ac
 5c4:	00006a98 	.word	0x00006a98
 5c8:	00000344 	.word	0x00000344
 5cc:	84140e42 	.word	0x84140e42
 5d0:	86048505 	.word	0x86048505
 5d4:	8e028703 	.word	0x8e028703
 5d8:	240e4a01 	.word	0x240e4a01
 5dc:	08890988 	.word	0x08890988
 5e0:	068b078a 	.word	0x068b078a
 5e4:	00380e42 	.word	0x00380e42
 5e8:	0000000c 	.word	0x0000000c
 5ec:	ffffffff 	.word	0xffffffff
 5f0:	7c010001 	.word	0x7c010001
 5f4:	000d0c0e 	.word	0x000d0c0e
 5f8:	0000000c 	.word	0x0000000c
 5fc:	000005e8 	.word	0x000005e8
 600:	00006ddc 	.word	0x00006ddc
 604:	00000024 	.word	0x00000024
 608:	0000000c 	.word	0x0000000c
 60c:	ffffffff 	.word	0xffffffff
 610:	7c010001 	.word	0x7c010001
 614:	000d0c0e 	.word	0x000d0c0e
 618:	0000000c 	.word	0x0000000c
 61c:	00000608 	.word	0x00000608
 620:	00006e00 	.word	0x00006e00
 624:	0000001c 	.word	0x0000001c
 628:	0000000c 	.word	0x0000000c
 62c:	ffffffff 	.word	0xffffffff
 630:	7c010001 	.word	0x7c010001
 634:	000d0c0e 	.word	0x000d0c0e
 638:	00000018 	.word	0x00000018
 63c:	00000628 	.word	0x00000628
 640:	00006e1c 	.word	0x00006e1c
 644:	00000028 	.word	0x00000028
 648:	84100e42 	.word	0x84100e42
 64c:	86038504 	.word	0x86038504
 650:	00018e02 	.word	0x00018e02
 654:	0000000c 	.word	0x0000000c
 658:	ffffffff 	.word	0xffffffff
 65c:	7c010001 	.word	0x7c010001
 660:	000d0c0e 	.word	0x000d0c0e
 664:	0000000c 	.word	0x0000000c
 668:	00000654 	.word	0x00000654
 66c:	00006e44 	.word	0x00006e44
 670:	00000014 	.word	0x00000014
 674:	0000000c 	.word	0x0000000c
 678:	ffffffff 	.word	0xffffffff
 67c:	7c010001 	.word	0x7c010001
 680:	000d0c0e 	.word	0x000d0c0e
 684:	0000000c 	.word	0x0000000c
 688:	00000674 	.word	0x00000674
 68c:	00006e58 	.word	0x00006e58
 690:	00000010 	.word	0x00000010
 694:	0000000c 	.word	0x0000000c
 698:	ffffffff 	.word	0xffffffff
 69c:	7c010001 	.word	0x7c010001
 6a0:	000d0c0e 	.word	0x000d0c0e
 6a4:	00000014 	.word	0x00000014
 6a8:	00000694 	.word	0x00000694
 6ac:	00006e68 	.word	0x00006e68
 6b0:	0000005c 	.word	0x0000005c
 6b4:	84080e42 	.word	0x84080e42
 6b8:	00018e02 	.word	0x00018e02
 6bc:	0000000c 	.word	0x0000000c
 6c0:	ffffffff 	.word	0xffffffff
 6c4:	7c010001 	.word	0x7c010001
 6c8:	000d0c0e 	.word	0x000d0c0e
 6cc:	0000001c 	.word	0x0000001c
 6d0:	000006bc 	.word	0x000006bc
 6d4:	00006ec4 	.word	0x00006ec4
 6d8:	0000004c 	.word	0x0000004c
 6dc:	83180e42 	.word	0x83180e42
 6e0:	85058406 	.word	0x85058406
 6e4:	87038604 	.word	0x87038604
 6e8:	00018e02 	.word	0x00018e02
 6ec:	00000018 	.word	0x00000018
 6f0:	000006bc 	.word	0x000006bc
 6f4:	00006f10 	.word	0x00006f10
 6f8:	0000001e 	.word	0x0000001e
 6fc:	84100e42 	.word	0x84100e42
 700:	86038504 	.word	0x86038504
 704:	00018e02 	.word	0x00018e02
 708:	00000018 	.word	0x00000018
 70c:	000006bc 	.word	0x000006bc
 710:	00006f30 	.word	0x00006f30
 714:	000000a0 	.word	0x000000a0
 718:	84100e42 	.word	0x84100e42
 71c:	86038504 	.word	0x86038504
 720:	00018e02 	.word	0x00018e02
 724:	0000000c 	.word	0x0000000c
 728:	ffffffff 	.word	0xffffffff
 72c:	7c010001 	.word	0x7c010001
 730:	000d0c0e 	.word	0x000d0c0e
 734:	0000000c 	.word	0x0000000c
 738:	00000724 	.word	0x00000724
 73c:	00006fd5 	.word	0x00006fd5
 740:	00000080 	.word	0x00000080
 744:	0000000c 	.word	0x0000000c
 748:	ffffffff 	.word	0xffffffff
 74c:	7c010001 	.word	0x7c010001
 750:	000d0c0e 	.word	0x000d0c0e
 754:	0000000c 	.word	0x0000000c
 758:	00000744 	.word	0x00000744
 75c:	00007069 	.word	0x00007069
 760:	0000009c 	.word	0x0000009c
 764:	0000000c 	.word	0x0000000c
 768:	ffffffff 	.word	0xffffffff
 76c:	7c010001 	.word	0x7c010001
 770:	000d0c0e 	.word	0x000d0c0e
 774:	0000001c 	.word	0x0000001c
 778:	00000764 	.word	0x00000764
 77c:	00007bb0 	.word	0x00007bb0
 780:	0000003a 	.word	0x0000003a
 784:	84140e42 	.word	0x84140e42
 788:	86048505 	.word	0x86048505
 78c:	8e028703 	.word	0x8e028703
 790:	200e4201 	.word	0x200e4201
 794:	0000001c 	.word	0x0000001c
 798:	00000764 	.word	0x00000764
 79c:	00007bec 	.word	0x00007bec
 7a0:	0000003a 	.word	0x0000003a
 7a4:	84140e42 	.word	0x84140e42
 7a8:	86048505 	.word	0x86048505
 7ac:	8e028703 	.word	0x8e028703
 7b0:	200e4201 	.word	0x200e4201
 7b4:	0000000c 	.word	0x0000000c
 7b8:	ffffffff 	.word	0xffffffff
 7bc:	7c010001 	.word	0x7c010001
 7c0:	000d0c0e 	.word	0x000d0c0e
 7c4:	00000024 	.word	0x00000024
 7c8:	000007b4 	.word	0x000007b4
 7cc:	00007c28 	.word	0x00007c28
 7d0:	00000070 	.word	0x00000070
 7d4:	84140e42 	.word	0x84140e42
 7d8:	86048505 	.word	0x86048505
 7dc:	8e028703 	.word	0x8e028703
 7e0:	200e4801 	.word	0x200e4801
 7e4:	07890888 	.word	0x07890888
 7e8:	0000068a 	.word	0x0000068a
 7ec:	0000000c 	.word	0x0000000c
 7f0:	ffffffff 	.word	0xffffffff
 7f4:	7c010001 	.word	0x7c010001
 7f8:	000d0c0e 	.word	0x000d0c0e
 7fc:	00000028 	.word	0x00000028
 800:	000007ec 	.word	0x000007ec
 804:	00007c98 	.word	0x00007c98
 808:	00000450 	.word	0x00000450
 80c:	84140e42 	.word	0x84140e42
 810:	86048505 	.word	0x86048505
 814:	8e028703 	.word	0x8e028703
 818:	240e4a01 	.word	0x240e4a01
 81c:	08890988 	.word	0x08890988
 820:	068b078a 	.word	0x068b078a
 824:	00500e42 	.word	0x00500e42
 828:	0000000c 	.word	0x0000000c
 82c:	ffffffff 	.word	0xffffffff
 830:	7c010001 	.word	0x7c010001
 834:	000d0c0e 	.word	0x000d0c0e
 838:	00000028 	.word	0x00000028
 83c:	00000828 	.word	0x00000828
 840:	000080e8 	.word	0x000080e8
 844:	00000400 	.word	0x00000400
 848:	84140e42 	.word	0x84140e42
 84c:	86048505 	.word	0x86048505
 850:	8e028703 	.word	0x8e028703
 854:	240e4a01 	.word	0x240e4a01
 858:	08890988 	.word	0x08890988
 85c:	068b078a 	.word	0x068b078a
 860:	00400e44 	.word	0x00400e44

Disassembly of section .ARM.attributes:

00000000 <.ARM.attributes>:
   0:	00002e41 	andeq	r2, r0, r1, asr #28
   4:	61656100 	cmnvs	r5, r0, lsl #2
   8:	01006962 	tsteq	r0, r2, ror #18
   c:	00000024 	andeq	r0, r0, r4, lsr #32
  10:	524f4305 	subpl	r4, pc, #335544320	; 0x14000000
  14:	2d584554 	cfldr64cs	mvdx4, [r8, #-336]
  18:	0600334d 	streq	r3, [r0], -sp, asr #6
  1c:	084d070a 	stmdaeq	sp, {r1, r3, r8, r9, sl}^
  20:	12020901 	andne	r0, r2, #16384	; 0x4000
  24:	15011404 	strne	r1, [r1, #-1028]
  28:	18031701 	stmdane	r3, {r0, r8, r9, sl, ip}
  2c:	Address 0x0000002c is out of bounds.

